
out/Release/obj/libyuv_internal/row_gcc.o:     file format elf64-x86-64


Disassembly of section .text.J400ToARGBRow_SSE2:

0000000000000000 <J400ToARGBRow_SSE2>:
   0:	66 0f 74 ed          	pcmpeqb %xmm5,%xmm5
   4:	66 0f 72 f5 18       	pslld  $0x18,%xmm5
   9:	f3 0f 7e 07          	movq   (%rdi),%xmm0
   d:	48 8d 7f 08          	lea    0x8(%rdi),%rdi
  11:	66 0f 60 c0          	punpcklbw %xmm0,%xmm0
  15:	66 0f 6f c8          	movdqa %xmm0,%xmm1
  19:	66 0f 61 c0          	punpcklwd %xmm0,%xmm0
  1d:	66 0f 69 c9          	punpckhwd %xmm1,%xmm1
  21:	66 0f eb c5          	por    %xmm5,%xmm0
  25:	66 0f eb cd          	por    %xmm5,%xmm1
  29:	f3 0f 7f 06          	movdqu %xmm0,(%rsi)
  2d:	f3 0f 7f 4e 10       	movdqu %xmm1,0x10(%rsi)
  32:	48 8d 76 20          	lea    0x20(%rsi),%rsi
  36:	83 ea 08             	sub    $0x8,%edx
  39:	7f ce                	jg     9 <J400ToARGBRow_SSE2+0x9>
  3b:	c3                   	retq   

Disassembly of section .text.RGB24ToARGBRow_SSSE3:

0000000000000000 <RGB24ToARGBRow_SSSE3>:
   0:	66 0f 74 ed          	pcmpeqb %xmm5,%xmm5
   4:	66 0f 72 f5 18       	pslld  $0x18,%xmm5
   9:	66 0f 6f 25 00 00 00 	movdqa 0x0(%rip),%xmm4        # 11 <RGB24ToARGBRow_SSSE3+0x11>
  10:	00 
  11:	f3 0f 6f 07          	movdqu (%rdi),%xmm0
  15:	f3 0f 6f 4f 10       	movdqu 0x10(%rdi),%xmm1
  1a:	f3 0f 6f 5f 20       	movdqu 0x20(%rdi),%xmm3
  1f:	48 8d 7f 30          	lea    0x30(%rdi),%rdi
  23:	66 0f 6f d3          	movdqa %xmm3,%xmm2
  27:	66 0f 3a 0f d1 08    	palignr $0x8,%xmm1,%xmm2
  2d:	66 0f 38 00 d4       	pshufb %xmm4,%xmm2
  32:	66 0f eb d5          	por    %xmm5,%xmm2
  36:	66 0f 3a 0f c8 0c    	palignr $0xc,%xmm0,%xmm1
  3c:	66 0f 38 00 c4       	pshufb %xmm4,%xmm0
  41:	f3 0f 7f 56 20       	movdqu %xmm2,0x20(%rsi)
  46:	66 0f eb c5          	por    %xmm5,%xmm0
  4a:	66 0f 38 00 cc       	pshufb %xmm4,%xmm1
  4f:	f3 0f 7f 06          	movdqu %xmm0,(%rsi)
  53:	66 0f eb cd          	por    %xmm5,%xmm1
  57:	66 0f 3a 0f db 04    	palignr $0x4,%xmm3,%xmm3
  5d:	66 0f 38 00 dc       	pshufb %xmm4,%xmm3
  62:	f3 0f 7f 4e 10       	movdqu %xmm1,0x10(%rsi)
  67:	66 0f eb dd          	por    %xmm5,%xmm3
  6b:	f3 0f 7f 5e 30       	movdqu %xmm3,0x30(%rsi)
  70:	48 8d 76 40          	lea    0x40(%rsi),%rsi
  74:	83 ea 10             	sub    $0x10,%edx
  77:	7f 98                	jg     11 <RGB24ToARGBRow_SSSE3+0x11>
  79:	c3                   	retq   

Disassembly of section .text.RAWToARGBRow_SSSE3:

0000000000000000 <RAWToARGBRow_SSSE3>:
   0:	66 0f 74 ed          	pcmpeqb %xmm5,%xmm5
   4:	66 0f 72 f5 18       	pslld  $0x18,%xmm5
   9:	66 0f 6f 25 00 00 00 	movdqa 0x0(%rip),%xmm4        # 11 <RAWToARGBRow_SSSE3+0x11>
  10:	00 
  11:	f3 0f 6f 07          	movdqu (%rdi),%xmm0
  15:	f3 0f 6f 4f 10       	movdqu 0x10(%rdi),%xmm1
  1a:	f3 0f 6f 5f 20       	movdqu 0x20(%rdi),%xmm3
  1f:	48 8d 7f 30          	lea    0x30(%rdi),%rdi
  23:	66 0f 6f d3          	movdqa %xmm3,%xmm2
  27:	66 0f 3a 0f d1 08    	palignr $0x8,%xmm1,%xmm2
  2d:	66 0f 38 00 d4       	pshufb %xmm4,%xmm2
  32:	66 0f eb d5          	por    %xmm5,%xmm2
  36:	66 0f 3a 0f c8 0c    	palignr $0xc,%xmm0,%xmm1
  3c:	66 0f 38 00 c4       	pshufb %xmm4,%xmm0
  41:	f3 0f 7f 56 20       	movdqu %xmm2,0x20(%rsi)
  46:	66 0f eb c5          	por    %xmm5,%xmm0
  4a:	66 0f 38 00 cc       	pshufb %xmm4,%xmm1
  4f:	f3 0f 7f 06          	movdqu %xmm0,(%rsi)
  53:	66 0f eb cd          	por    %xmm5,%xmm1
  57:	66 0f 3a 0f db 04    	palignr $0x4,%xmm3,%xmm3
  5d:	66 0f 38 00 dc       	pshufb %xmm4,%xmm3
  62:	f3 0f 7f 4e 10       	movdqu %xmm1,0x10(%rsi)
  67:	66 0f eb dd          	por    %xmm5,%xmm3
  6b:	f3 0f 7f 5e 30       	movdqu %xmm3,0x30(%rsi)
  70:	48 8d 76 40          	lea    0x40(%rsi),%rsi
  74:	83 ea 10             	sub    $0x10,%edx
  77:	7f 98                	jg     11 <RAWToARGBRow_SSSE3+0x11>
  79:	c3                   	retq   

Disassembly of section .text.RAWToRGB24Row_SSSE3:

0000000000000000 <RAWToRGB24Row_SSSE3>:
   0:	66 0f 6f 1d 00 00 00 	movdqa 0x0(%rip),%xmm3        # 8 <RAWToRGB24Row_SSSE3+0x8>
   7:	00 
   8:	66 0f 6f 25 00 00 00 	movdqa 0x0(%rip),%xmm4        # 10 <RAWToRGB24Row_SSSE3+0x10>
   f:	00 
  10:	66 0f 6f 2d 00 00 00 	movdqa 0x0(%rip),%xmm5        # 18 <RAWToRGB24Row_SSSE3+0x18>
  17:	00 
  18:	f3 0f 6f 07          	movdqu (%rdi),%xmm0
  1c:	f3 0f 6f 4f 04       	movdqu 0x4(%rdi),%xmm1
  21:	f3 0f 6f 57 08       	movdqu 0x8(%rdi),%xmm2
  26:	48 8d 7f 18          	lea    0x18(%rdi),%rdi
  2a:	66 0f 38 00 c3       	pshufb %xmm3,%xmm0
  2f:	66 0f 38 00 cc       	pshufb %xmm4,%xmm1
  34:	66 0f 38 00 d5       	pshufb %xmm5,%xmm2
  39:	66 0f d6 06          	movq   %xmm0,(%rsi)
  3d:	66 0f d6 4e 08       	movq   %xmm1,0x8(%rsi)
  42:	66 0f d6 56 10       	movq   %xmm2,0x10(%rsi)
  47:	48 8d 76 18          	lea    0x18(%rsi),%rsi
  4b:	83 ea 08             	sub    $0x8,%edx
  4e:	7f c8                	jg     18 <RAWToRGB24Row_SSSE3+0x18>
  50:	c3                   	retq   

Disassembly of section .text.RGB565ToARGBRow_SSE2:

0000000000000000 <RGB565ToARGBRow_SSE2>:
   0:	b8 08 01 08 01       	mov    $0x1080108,%eax
   5:	66 0f 6e e8          	movd   %eax,%xmm5
   9:	66 0f 70 ed 00       	pshufd $0x0,%xmm5,%xmm5
   e:	b8 80 20 80 20       	mov    $0x20802080,%eax
  13:	66 0f 6e f0          	movd   %eax,%xmm6
  17:	66 0f 70 f6 00       	pshufd $0x0,%xmm6,%xmm6
  1c:	66 0f 74 db          	pcmpeqb %xmm3,%xmm3
  20:	66 0f 71 f3 0b       	psllw  $0xb,%xmm3
  25:	66 0f 74 e4          	pcmpeqb %xmm4,%xmm4
  29:	66 0f 71 f4 0a       	psllw  $0xa,%xmm4
  2e:	66 0f 71 d4 05       	psrlw  $0x5,%xmm4
  33:	66 0f 74 ff          	pcmpeqb %xmm7,%xmm7
  37:	66 0f 71 f7 08       	psllw  $0x8,%xmm7
  3c:	48 29 fe             	sub    %rdi,%rsi
  3f:	48 29 fe             	sub    %rdi,%rsi
  42:	f3 0f 6f 07          	movdqu (%rdi),%xmm0
  46:	66 0f 6f c8          	movdqa %xmm0,%xmm1
  4a:	66 0f 6f d0          	movdqa %xmm0,%xmm2
  4e:	66 0f db cb          	pand   %xmm3,%xmm1
  52:	66 0f 71 f2 0b       	psllw  $0xb,%xmm2
  57:	66 0f e4 cd          	pmulhuw %xmm5,%xmm1
  5b:	66 0f e4 d5          	pmulhuw %xmm5,%xmm2
  5f:	66 0f 71 f1 08       	psllw  $0x8,%xmm1
  64:	66 0f eb ca          	por    %xmm2,%xmm1
  68:	66 0f db c4          	pand   %xmm4,%xmm0
  6c:	66 0f e4 c6          	pmulhuw %xmm6,%xmm0
  70:	66 0f eb c7          	por    %xmm7,%xmm0
  74:	66 0f 6f d1          	movdqa %xmm1,%xmm2
  78:	66 0f 60 c8          	punpcklbw %xmm0,%xmm1
  7c:	66 0f 68 d0          	punpckhbw %xmm0,%xmm2
  80:	f3 0f 7f 0c 7e       	movdqu %xmm1,(%rsi,%rdi,2)
  85:	f3 0f 7f 54 7e 10    	movdqu %xmm2,0x10(%rsi,%rdi,2)
  8b:	48 8d 7f 10          	lea    0x10(%rdi),%rdi
  8f:	83 ea 08             	sub    $0x8,%edx
  92:	7f ae                	jg     42 <RGB565ToARGBRow_SSE2+0x42>
  94:	c3                   	retq   

Disassembly of section .text.ARGB1555ToARGBRow_SSE2:

0000000000000000 <ARGB1555ToARGBRow_SSE2>:
   0:	b8 08 01 08 01       	mov    $0x1080108,%eax
   5:	66 0f 6e e8          	movd   %eax,%xmm5
   9:	66 0f 70 ed 00       	pshufd $0x0,%xmm5,%xmm5
   e:	b8 00 42 00 42       	mov    $0x42004200,%eax
  13:	66 0f 6e f0          	movd   %eax,%xmm6
  17:	66 0f 70 f6 00       	pshufd $0x0,%xmm6,%xmm6
  1c:	66 0f 74 db          	pcmpeqb %xmm3,%xmm3
  20:	66 0f 71 f3 0b       	psllw  $0xb,%xmm3
  25:	66 0f 6f e3          	movdqa %xmm3,%xmm4
  29:	66 0f 71 d4 06       	psrlw  $0x6,%xmm4
  2e:	66 0f 74 ff          	pcmpeqb %xmm7,%xmm7
  32:	66 0f 71 f7 08       	psllw  $0x8,%xmm7
  37:	48 29 fe             	sub    %rdi,%rsi
  3a:	48 29 fe             	sub    %rdi,%rsi
  3d:	f3 0f 6f 07          	movdqu (%rdi),%xmm0
  41:	66 0f 6f c8          	movdqa %xmm0,%xmm1
  45:	66 0f 6f d0          	movdqa %xmm0,%xmm2
  49:	66 0f 71 f1 01       	psllw  $0x1,%xmm1
  4e:	66 0f 71 f2 0b       	psllw  $0xb,%xmm2
  53:	66 0f db cb          	pand   %xmm3,%xmm1
  57:	66 0f e4 d5          	pmulhuw %xmm5,%xmm2
  5b:	66 0f e4 cd          	pmulhuw %xmm5,%xmm1
  5f:	66 0f 71 f1 08       	psllw  $0x8,%xmm1
  64:	66 0f eb ca          	por    %xmm2,%xmm1
  68:	66 0f 6f d0          	movdqa %xmm0,%xmm2
  6c:	66 0f db c4          	pand   %xmm4,%xmm0
  70:	66 0f 71 e2 08       	psraw  $0x8,%xmm2
  75:	66 0f e4 c6          	pmulhuw %xmm6,%xmm0
  79:	66 0f db d7          	pand   %xmm7,%xmm2
  7d:	66 0f eb c2          	por    %xmm2,%xmm0
  81:	66 0f 6f d1          	movdqa %xmm1,%xmm2
  85:	66 0f 60 c8          	punpcklbw %xmm0,%xmm1
  89:	66 0f 68 d0          	punpckhbw %xmm0,%xmm2
  8d:	f3 0f 7f 0c 7e       	movdqu %xmm1,(%rsi,%rdi,2)
  92:	f3 0f 7f 54 7e 10    	movdqu %xmm2,0x10(%rsi,%rdi,2)
  98:	48 8d 7f 10          	lea    0x10(%rdi),%rdi
  9c:	83 ea 08             	sub    $0x8,%edx
  9f:	7f 9c                	jg     3d <ARGB1555ToARGBRow_SSE2+0x3d>
  a1:	c3                   	retq   

Disassembly of section .text.ARGB4444ToARGBRow_SSE2:

0000000000000000 <ARGB4444ToARGBRow_SSE2>:
   0:	b8 0f 0f 0f 0f       	mov    $0xf0f0f0f,%eax
   5:	66 0f 6e e0          	movd   %eax,%xmm4
   9:	66 0f 70 e4 00       	pshufd $0x0,%xmm4,%xmm4
   e:	66 0f 6f ec          	movdqa %xmm4,%xmm5
  12:	66 0f 72 f5 04       	pslld  $0x4,%xmm5
  17:	48 29 fe             	sub    %rdi,%rsi
  1a:	48 29 fe             	sub    %rdi,%rsi
  1d:	f3 0f 6f 07          	movdqu (%rdi),%xmm0
  21:	66 0f 6f d0          	movdqa %xmm0,%xmm2
  25:	66 0f db c4          	pand   %xmm4,%xmm0
  29:	66 0f db d5          	pand   %xmm5,%xmm2
  2d:	66 0f 6f c8          	movdqa %xmm0,%xmm1
  31:	66 0f 6f da          	movdqa %xmm2,%xmm3
  35:	66 0f 71 f1 04       	psllw  $0x4,%xmm1
  3a:	66 0f 71 d3 04       	psrlw  $0x4,%xmm3
  3f:	66 0f eb c1          	por    %xmm1,%xmm0
  43:	66 0f eb d3          	por    %xmm3,%xmm2
  47:	66 0f 6f c8          	movdqa %xmm0,%xmm1
  4b:	66 0f 60 c2          	punpcklbw %xmm2,%xmm0
  4f:	66 0f 68 ca          	punpckhbw %xmm2,%xmm1
  53:	f3 0f 7f 04 7e       	movdqu %xmm0,(%rsi,%rdi,2)
  58:	f3 0f 7f 4c 7e 10    	movdqu %xmm1,0x10(%rsi,%rdi,2)
  5e:	48 8d 7f 10          	lea    0x10(%rdi),%rdi
  62:	83 ea 08             	sub    $0x8,%edx
  65:	7f b6                	jg     1d <ARGB4444ToARGBRow_SSE2+0x1d>
  67:	c3                   	retq   

Disassembly of section .text.ARGBToRGB24Row_SSSE3:

0000000000000000 <ARGBToRGB24Row_SSSE3>:
   0:	66 0f 6f 35 00 00 00 	movdqa 0x0(%rip),%xmm6        # 8 <ARGBToRGB24Row_SSSE3+0x8>
   7:	00 
   8:	f3 0f 6f 07          	movdqu (%rdi),%xmm0
   c:	f3 0f 6f 4f 10       	movdqu 0x10(%rdi),%xmm1
  11:	f3 0f 6f 57 20       	movdqu 0x20(%rdi),%xmm2
  16:	f3 0f 6f 5f 30       	movdqu 0x30(%rdi),%xmm3
  1b:	48 8d 7f 40          	lea    0x40(%rdi),%rdi
  1f:	66 0f 38 00 c6       	pshufb %xmm6,%xmm0
  24:	66 0f 38 00 ce       	pshufb %xmm6,%xmm1
  29:	66 0f 38 00 d6       	pshufb %xmm6,%xmm2
  2e:	66 0f 38 00 de       	pshufb %xmm6,%xmm3
  33:	66 0f 6f e1          	movdqa %xmm1,%xmm4
  37:	66 0f 73 d9 04       	psrldq $0x4,%xmm1
  3c:	66 0f 73 fc 0c       	pslldq $0xc,%xmm4
  41:	66 0f 6f ea          	movdqa %xmm2,%xmm5
  45:	66 0f eb c4          	por    %xmm4,%xmm0
  49:	66 0f 73 fd 08       	pslldq $0x8,%xmm5
  4e:	f3 0f 7f 06          	movdqu %xmm0,(%rsi)
  52:	66 0f eb cd          	por    %xmm5,%xmm1
  56:	66 0f 73 da 08       	psrldq $0x8,%xmm2
  5b:	66 0f 73 fb 04       	pslldq $0x4,%xmm3
  60:	66 0f eb d3          	por    %xmm3,%xmm2
  64:	f3 0f 7f 4e 10       	movdqu %xmm1,0x10(%rsi)
  69:	f3 0f 7f 56 20       	movdqu %xmm2,0x20(%rsi)
  6e:	48 8d 76 30          	lea    0x30(%rsi),%rsi
  72:	83 ea 10             	sub    $0x10,%edx
  75:	7f 91                	jg     8 <ARGBToRGB24Row_SSSE3+0x8>
  77:	c3                   	retq   

Disassembly of section .text.ARGBToRAWRow_SSSE3:

0000000000000000 <ARGBToRAWRow_SSSE3>:
   0:	66 0f 6f 35 00 00 00 	movdqa 0x0(%rip),%xmm6        # 8 <ARGBToRAWRow_SSSE3+0x8>
   7:	00 
   8:	f3 0f 6f 07          	movdqu (%rdi),%xmm0
   c:	f3 0f 6f 4f 10       	movdqu 0x10(%rdi),%xmm1
  11:	f3 0f 6f 57 20       	movdqu 0x20(%rdi),%xmm2
  16:	f3 0f 6f 5f 30       	movdqu 0x30(%rdi),%xmm3
  1b:	48 8d 7f 40          	lea    0x40(%rdi),%rdi
  1f:	66 0f 38 00 c6       	pshufb %xmm6,%xmm0
  24:	66 0f 38 00 ce       	pshufb %xmm6,%xmm1
  29:	66 0f 38 00 d6       	pshufb %xmm6,%xmm2
  2e:	66 0f 38 00 de       	pshufb %xmm6,%xmm3
  33:	66 0f 6f e1          	movdqa %xmm1,%xmm4
  37:	66 0f 73 d9 04       	psrldq $0x4,%xmm1
  3c:	66 0f 73 fc 0c       	pslldq $0xc,%xmm4
  41:	66 0f 6f ea          	movdqa %xmm2,%xmm5
  45:	66 0f eb c4          	por    %xmm4,%xmm0
  49:	66 0f 73 fd 08       	pslldq $0x8,%xmm5
  4e:	f3 0f 7f 06          	movdqu %xmm0,(%rsi)
  52:	66 0f eb cd          	por    %xmm5,%xmm1
  56:	66 0f 73 da 08       	psrldq $0x8,%xmm2
  5b:	66 0f 73 fb 04       	pslldq $0x4,%xmm3
  60:	66 0f eb d3          	por    %xmm3,%xmm2
  64:	f3 0f 7f 4e 10       	movdqu %xmm1,0x10(%rsi)
  69:	f3 0f 7f 56 20       	movdqu %xmm2,0x20(%rsi)
  6e:	48 8d 76 30          	lea    0x30(%rsi),%rsi
  72:	83 ea 10             	sub    $0x10,%edx
  75:	7f 91                	jg     8 <ARGBToRAWRow_SSSE3+0x8>
  77:	c3                   	retq   

Disassembly of section .text.ARGBToRGB565Row_SSE2:

0000000000000000 <ARGBToRGB565Row_SSE2>:
   0:	66 0f 74 db          	pcmpeqb %xmm3,%xmm3
   4:	66 0f 72 d3 1b       	psrld  $0x1b,%xmm3
   9:	66 0f 74 e4          	pcmpeqb %xmm4,%xmm4
   d:	66 0f 72 d4 1a       	psrld  $0x1a,%xmm4
  12:	66 0f 72 f4 05       	pslld  $0x5,%xmm4
  17:	66 0f 74 ed          	pcmpeqb %xmm5,%xmm5
  1b:	66 0f 72 f5 0b       	pslld  $0xb,%xmm5
  20:	f3 0f 6f 07          	movdqu (%rdi),%xmm0
  24:	66 0f 6f c8          	movdqa %xmm0,%xmm1
  28:	66 0f 6f d0          	movdqa %xmm0,%xmm2
  2c:	66 0f 72 f0 08       	pslld  $0x8,%xmm0
  31:	66 0f 72 d1 03       	psrld  $0x3,%xmm1
  36:	66 0f 72 d2 05       	psrld  $0x5,%xmm2
  3b:	66 0f 72 e0 10       	psrad  $0x10,%xmm0
  40:	66 0f db cb          	pand   %xmm3,%xmm1
  44:	66 0f db d4          	pand   %xmm4,%xmm2
  48:	66 0f db c5          	pand   %xmm5,%xmm0
  4c:	66 0f eb ca          	por    %xmm2,%xmm1
  50:	66 0f eb c1          	por    %xmm1,%xmm0
  54:	66 0f 6b c0          	packssdw %xmm0,%xmm0
  58:	48 8d 7f 10          	lea    0x10(%rdi),%rdi
  5c:	66 0f d6 06          	movq   %xmm0,(%rsi)
  60:	48 8d 76 08          	lea    0x8(%rsi),%rsi
  64:	83 ea 04             	sub    $0x4,%edx
  67:	7f b7                	jg     20 <ARGBToRGB565Row_SSE2+0x20>
  69:	c3                   	retq   

Disassembly of section .text.ARGBToRGB565DitherRow_SSE2:

0000000000000000 <ARGBToRGB565DitherRow_SSE2>:
   0:	89 54 24 fc          	mov    %edx,-0x4(%rsp)
   4:	66 0f 6e 74 24 fc    	movd   -0x4(%rsp),%xmm6
   a:	66 0f 60 f6          	punpcklbw %xmm6,%xmm6
   e:	66 0f 6f fe          	movdqa %xmm6,%xmm7
  12:	66 0f 61 f6          	punpcklwd %xmm6,%xmm6
  16:	66 0f 69 ff          	punpckhwd %xmm7,%xmm7
  1a:	66 0f 74 db          	pcmpeqb %xmm3,%xmm3
  1e:	66 0f 72 d3 1b       	psrld  $0x1b,%xmm3
  23:	66 0f 74 e4          	pcmpeqb %xmm4,%xmm4
  27:	66 0f 72 d4 1a       	psrld  $0x1a,%xmm4
  2c:	66 0f 72 f4 05       	pslld  $0x5,%xmm4
  31:	66 0f 74 ed          	pcmpeqb %xmm5,%xmm5
  35:	66 0f 72 f5 0b       	pslld  $0xb,%xmm5
  3a:	f3 0f 6f 07          	movdqu (%rdi),%xmm0
  3e:	66 0f dc c6          	paddusb %xmm6,%xmm0
  42:	66 0f 6f c8          	movdqa %xmm0,%xmm1
  46:	66 0f 6f d0          	movdqa %xmm0,%xmm2
  4a:	66 0f 72 f0 08       	pslld  $0x8,%xmm0
  4f:	66 0f 72 d1 03       	psrld  $0x3,%xmm1
  54:	66 0f 72 d2 05       	psrld  $0x5,%xmm2
  59:	66 0f 72 e0 10       	psrad  $0x10,%xmm0
  5e:	66 0f db cb          	pand   %xmm3,%xmm1
  62:	66 0f db d4          	pand   %xmm4,%xmm2
  66:	66 0f db c5          	pand   %xmm5,%xmm0
  6a:	66 0f eb ca          	por    %xmm2,%xmm1
  6e:	66 0f eb c1          	por    %xmm1,%xmm0
  72:	66 0f 6b c0          	packssdw %xmm0,%xmm0
  76:	48 8d 7f 10          	lea    0x10(%rdi),%rdi
  7a:	66 0f d6 06          	movq   %xmm0,(%rsi)
  7e:	48 8d 76 08          	lea    0x8(%rsi),%rsi
  82:	83 e9 04             	sub    $0x4,%ecx
  85:	7f b3                	jg     3a <ARGBToRGB565DitherRow_SSE2+0x3a>
  87:	c3                   	retq   

Disassembly of section .text.ARGBToRGB565DitherRow_AVX2:

0000000000000000 <ARGBToRGB565DitherRow_AVX2>:
   0:	89 54 24 fc          	mov    %edx,-0x4(%rsp)
   4:	c4 e2 79 18 74 24 fc 	vbroadcastss -0x4(%rsp),%xmm6
   b:	c5 c9 60 f6          	vpunpcklbw %xmm6,%xmm6,%xmm6
   f:	c4 e3 fd 00 f6 d8    	vpermq $0xd8,%ymm6,%ymm6
  15:	c5 cd 61 f6          	vpunpcklwd %ymm6,%ymm6,%ymm6
  19:	c5 e5 74 db          	vpcmpeqb %ymm3,%ymm3,%ymm3
  1d:	c5 e5 72 d3 1b       	vpsrld $0x1b,%ymm3,%ymm3
  22:	c5 dd 74 e4          	vpcmpeqb %ymm4,%ymm4,%ymm4
  26:	c5 dd 72 d4 1a       	vpsrld $0x1a,%ymm4,%ymm4
  2b:	c5 dd 72 f4 05       	vpslld $0x5,%ymm4,%ymm4
  30:	c5 d5 72 f3 0b       	vpslld $0xb,%ymm3,%ymm5
  35:	c5 fe 6f 07          	vmovdqu (%rdi),%ymm0
  39:	c5 fd dc c6          	vpaddusb %ymm6,%ymm0,%ymm0
  3d:	c5 ed 72 d0 05       	vpsrld $0x5,%ymm0,%ymm2
  42:	c5 f5 72 d0 03       	vpsrld $0x3,%ymm0,%ymm1
  47:	c5 fd 72 d0 08       	vpsrld $0x8,%ymm0,%ymm0
  4c:	c5 ed db d4          	vpand  %ymm4,%ymm2,%ymm2
  50:	c5 f5 db cb          	vpand  %ymm3,%ymm1,%ymm1
  54:	c5 fd db c5          	vpand  %ymm5,%ymm0,%ymm0
  58:	c5 f5 eb ca          	vpor   %ymm2,%ymm1,%ymm1
  5c:	c5 fd eb c1          	vpor   %ymm1,%ymm0,%ymm0
  60:	c4 e2 7d 2b c0       	vpackusdw %ymm0,%ymm0,%ymm0
  65:	c4 e3 fd 00 c0 d8    	vpermq $0xd8,%ymm0,%ymm0
  6b:	48 8d 7f 20          	lea    0x20(%rdi),%rdi
  6f:	c5 fa 7f 06          	vmovdqu %xmm0,(%rsi)
  73:	48 8d 76 10          	lea    0x10(%rsi),%rsi
  77:	83 e9 08             	sub    $0x8,%ecx
  7a:	7f b9                	jg     35 <ARGBToRGB565DitherRow_AVX2+0x35>
  7c:	c5 f8 77             	vzeroupper 
  7f:	c3                   	retq   

Disassembly of section .text.ARGBToARGB1555Row_SSE2:

0000000000000000 <ARGBToARGB1555Row_SSE2>:
   0:	66 0f 74 e4          	pcmpeqb %xmm4,%xmm4
   4:	66 0f 72 d4 1b       	psrld  $0x1b,%xmm4
   9:	66 0f 6f ec          	movdqa %xmm4,%xmm5
   d:	66 0f 72 f5 05       	pslld  $0x5,%xmm5
  12:	66 0f 6f f4          	movdqa %xmm4,%xmm6
  16:	66 0f 72 f6 0a       	pslld  $0xa,%xmm6
  1b:	66 0f 74 ff          	pcmpeqb %xmm7,%xmm7
  1f:	66 0f 72 f7 0f       	pslld  $0xf,%xmm7
  24:	f3 0f 6f 07          	movdqu (%rdi),%xmm0
  28:	66 0f 6f c8          	movdqa %xmm0,%xmm1
  2c:	66 0f 6f d0          	movdqa %xmm0,%xmm2
  30:	66 0f 6f d8          	movdqa %xmm0,%xmm3
  34:	66 0f 72 e0 10       	psrad  $0x10,%xmm0
  39:	66 0f 72 d1 03       	psrld  $0x3,%xmm1
  3e:	66 0f 72 d2 06       	psrld  $0x6,%xmm2
  43:	66 0f 72 d3 09       	psrld  $0x9,%xmm3
  48:	66 0f db c7          	pand   %xmm7,%xmm0
  4c:	66 0f db cc          	pand   %xmm4,%xmm1
  50:	66 0f db d5          	pand   %xmm5,%xmm2
  54:	66 0f db de          	pand   %xmm6,%xmm3
  58:	66 0f eb c1          	por    %xmm1,%xmm0
  5c:	66 0f eb d3          	por    %xmm3,%xmm2
  60:	66 0f eb c2          	por    %xmm2,%xmm0
  64:	66 0f 6b c0          	packssdw %xmm0,%xmm0
  68:	48 8d 7f 10          	lea    0x10(%rdi),%rdi
  6c:	66 0f d6 06          	movq   %xmm0,(%rsi)
  70:	48 8d 76 08          	lea    0x8(%rsi),%rsi
  74:	83 ea 04             	sub    $0x4,%edx
  77:	7f ab                	jg     24 <ARGBToARGB1555Row_SSE2+0x24>
  79:	c3                   	retq   

Disassembly of section .text.ARGBToARGB4444Row_SSE2:

0000000000000000 <ARGBToARGB4444Row_SSE2>:
   0:	66 0f 74 e4          	pcmpeqb %xmm4,%xmm4
   4:	66 0f 71 f4 0c       	psllw  $0xc,%xmm4
   9:	66 0f 6f dc          	movdqa %xmm4,%xmm3
   d:	66 0f 71 d3 08       	psrlw  $0x8,%xmm3
  12:	f3 0f 6f 07          	movdqu (%rdi),%xmm0
  16:	66 0f 6f c8          	movdqa %xmm0,%xmm1
  1a:	66 0f db c3          	pand   %xmm3,%xmm0
  1e:	66 0f db cc          	pand   %xmm4,%xmm1
  22:	66 0f 73 d0 04       	psrlq  $0x4,%xmm0
  27:	66 0f 73 d1 08       	psrlq  $0x8,%xmm1
  2c:	66 0f eb c1          	por    %xmm1,%xmm0
  30:	66 0f 67 c0          	packuswb %xmm0,%xmm0
  34:	48 8d 7f 10          	lea    0x10(%rdi),%rdi
  38:	66 0f d6 06          	movq   %xmm0,(%rsi)
  3c:	48 8d 76 08          	lea    0x8(%rsi),%rsi
  40:	83 ea 04             	sub    $0x4,%edx
  43:	7f cd                	jg     12 <ARGBToARGB4444Row_SSE2+0x12>
  45:	c3                   	retq   

Disassembly of section .text.ARGBToAR30Row_SSSE3:

0000000000000000 <ARGBToAR30Row_SSSE3>:
   0:	66 0f 6f 15 00 00 00 	movdqa 0x0(%rip),%xmm2        # 8 <ARGBToAR30Row_SSSE3+0x8>
   7:	00 
   8:	66 0f 6e 1d 00 00 00 	movd   0x0(%rip),%xmm3        # 10 <ARGBToAR30Row_SSSE3+0x10>
   f:	00 
  10:	66 0f 6e 25 00 00 00 	movd   0x0(%rip),%xmm4        # 18 <ARGBToAR30Row_SSSE3+0x18>
  17:	00 
  18:	66 0f 6e 2d 00 00 00 	movd   0x0(%rip),%xmm5        # 20 <ARGBToAR30Row_SSSE3+0x20>
  1f:	00 
  20:	66 0f 6e 35 00 00 00 	movd   0x0(%rip),%xmm6        # 28 <ARGBToAR30Row_SSSE3+0x28>
  27:	00 
  28:	66 0f 70 db 00       	pshufd $0x0,%xmm3,%xmm3
  2d:	66 0f 70 e4 00       	pshufd $0x0,%xmm4,%xmm4
  32:	66 0f 70 ed 00       	pshufd $0x0,%xmm5,%xmm5
  37:	66 0f 70 f6 00       	pshufd $0x0,%xmm6,%xmm6
  3c:	48 29 fe             	sub    %rdi,%rsi
  3f:	f3 0f 6f 07          	movdqu (%rdi),%xmm0
  43:	66 0f 6f c8          	movdqa %xmm0,%xmm1
  47:	66 0f 38 00 ca       	pshufb %xmm2,%xmm1
  4c:	66 0f db c5          	pand   %xmm5,%xmm0
  50:	66 0f e4 cb          	pmulhuw %xmm3,%xmm1
  54:	66 0f e4 c6          	pmulhuw %xmm6,%xmm0
  58:	66 0f db cc          	pand   %xmm4,%xmm1
  5c:	66 0f 72 f0 0a       	pslld  $0xa,%xmm0
  61:	66 0f eb c1          	por    %xmm1,%xmm0
  65:	f3 0f 7f 04 3e       	movdqu %xmm0,(%rsi,%rdi,1)
  6a:	48 83 c7 10          	add    $0x10,%rdi
  6e:	83 ea 04             	sub    $0x4,%edx
  71:	7f cc                	jg     3f <ARGBToAR30Row_SSSE3+0x3f>
  73:	c3                   	retq   

Disassembly of section .text.ABGRToAR30Row_SSSE3:

0000000000000000 <ABGRToAR30Row_SSSE3>:
   0:	66 0f 6f 15 00 00 00 	movdqa 0x0(%rip),%xmm2        # 8 <ABGRToAR30Row_SSSE3+0x8>
   7:	00 
   8:	66 0f 6e 1d 00 00 00 	movd   0x0(%rip),%xmm3        # 10 <ABGRToAR30Row_SSSE3+0x10>
   f:	00 
  10:	66 0f 6e 25 00 00 00 	movd   0x0(%rip),%xmm4        # 18 <ABGRToAR30Row_SSSE3+0x18>
  17:	00 
  18:	66 0f 6e 2d 00 00 00 	movd   0x0(%rip),%xmm5        # 20 <ABGRToAR30Row_SSSE3+0x20>
  1f:	00 
  20:	66 0f 6e 35 00 00 00 	movd   0x0(%rip),%xmm6        # 28 <ABGRToAR30Row_SSSE3+0x28>
  27:	00 
  28:	66 0f 70 db 00       	pshufd $0x0,%xmm3,%xmm3
  2d:	66 0f 70 e4 00       	pshufd $0x0,%xmm4,%xmm4
  32:	66 0f 70 ed 00       	pshufd $0x0,%xmm5,%xmm5
  37:	66 0f 70 f6 00       	pshufd $0x0,%xmm6,%xmm6
  3c:	48 29 fe             	sub    %rdi,%rsi
  3f:	f3 0f 6f 07          	movdqu (%rdi),%xmm0
  43:	66 0f 6f c8          	movdqa %xmm0,%xmm1
  47:	66 0f 38 00 ca       	pshufb %xmm2,%xmm1
  4c:	66 0f db c5          	pand   %xmm5,%xmm0
  50:	66 0f e4 cb          	pmulhuw %xmm3,%xmm1
  54:	66 0f e4 c6          	pmulhuw %xmm6,%xmm0
  58:	66 0f db cc          	pand   %xmm4,%xmm1
  5c:	66 0f 72 f0 0a       	pslld  $0xa,%xmm0
  61:	66 0f eb c1          	por    %xmm1,%xmm0
  65:	f3 0f 7f 04 3e       	movdqu %xmm0,(%rsi,%rdi,1)
  6a:	48 83 c7 10          	add    $0x10,%rdi
  6e:	83 ea 04             	sub    $0x4,%edx
  71:	7f cc                	jg     3f <ABGRToAR30Row_SSSE3+0x3f>
  73:	c3                   	retq   

Disassembly of section .text.ARGBToAR30Row_AVX2:

0000000000000000 <ARGBToAR30Row_AVX2>:
   0:	c4 e2 7d 1a 15 00 00 	vbroadcastf128 0x0(%rip),%ymm2        # 9 <ARGBToAR30Row_AVX2+0x9>
   7:	00 00 
   9:	c4 e2 7d 18 1d 00 00 	vbroadcastss 0x0(%rip),%ymm3        # 12 <ARGBToAR30Row_AVX2+0x12>
  10:	00 00 
  12:	c4 e2 7d 18 25 00 00 	vbroadcastss 0x0(%rip),%ymm4        # 1b <ARGBToAR30Row_AVX2+0x1b>
  19:	00 00 
  1b:	c4 e2 7d 18 2d 00 00 	vbroadcastss 0x0(%rip),%ymm5        # 24 <ARGBToAR30Row_AVX2+0x24>
  22:	00 00 
  24:	c4 e2 7d 18 35 00 00 	vbroadcastss 0x0(%rip),%ymm6        # 2d <ARGBToAR30Row_AVX2+0x2d>
  2b:	00 00 
  2d:	48 29 fe             	sub    %rdi,%rsi
  30:	c5 fe 6f 07          	vmovdqu (%rdi),%ymm0
  34:	c4 e2 7d 00 ca       	vpshufb %ymm2,%ymm0,%ymm1
  39:	c5 fd db c5          	vpand  %ymm5,%ymm0,%ymm0
  3d:	c5 f5 e4 cb          	vpmulhuw %ymm3,%ymm1,%ymm1
  41:	c5 fd e4 c6          	vpmulhuw %ymm6,%ymm0,%ymm0
  45:	c5 f5 db cc          	vpand  %ymm4,%ymm1,%ymm1
  49:	c5 fd 72 f0 0a       	vpslld $0xa,%ymm0,%ymm0
  4e:	c5 fd eb c1          	vpor   %ymm1,%ymm0,%ymm0
  52:	c5 fe 7f 04 3e       	vmovdqu %ymm0,(%rsi,%rdi,1)
  57:	48 83 c7 20          	add    $0x20,%rdi
  5b:	83 ea 08             	sub    $0x8,%edx
  5e:	7f d0                	jg     30 <ARGBToAR30Row_AVX2+0x30>
  60:	c5 f8 77             	vzeroupper 
  63:	c3                   	retq   

Disassembly of section .text.ABGRToAR30Row_AVX2:

0000000000000000 <ABGRToAR30Row_AVX2>:
   0:	c4 e2 7d 1a 15 00 00 	vbroadcastf128 0x0(%rip),%ymm2        # 9 <ABGRToAR30Row_AVX2+0x9>
   7:	00 00 
   9:	c4 e2 7d 18 1d 00 00 	vbroadcastss 0x0(%rip),%ymm3        # 12 <ABGRToAR30Row_AVX2+0x12>
  10:	00 00 
  12:	c4 e2 7d 18 25 00 00 	vbroadcastss 0x0(%rip),%ymm4        # 1b <ABGRToAR30Row_AVX2+0x1b>
  19:	00 00 
  1b:	c4 e2 7d 18 2d 00 00 	vbroadcastss 0x0(%rip),%ymm5        # 24 <ABGRToAR30Row_AVX2+0x24>
  22:	00 00 
  24:	c4 e2 7d 18 35 00 00 	vbroadcastss 0x0(%rip),%ymm6        # 2d <ABGRToAR30Row_AVX2+0x2d>
  2b:	00 00 
  2d:	48 29 fe             	sub    %rdi,%rsi
  30:	c5 fe 6f 07          	vmovdqu (%rdi),%ymm0
  34:	c4 e2 7d 00 ca       	vpshufb %ymm2,%ymm0,%ymm1
  39:	c5 fd db c5          	vpand  %ymm5,%ymm0,%ymm0
  3d:	c5 f5 e4 cb          	vpmulhuw %ymm3,%ymm1,%ymm1
  41:	c5 fd e4 c6          	vpmulhuw %ymm6,%ymm0,%ymm0
  45:	c5 f5 db cc          	vpand  %ymm4,%ymm1,%ymm1
  49:	c5 fd 72 f0 0a       	vpslld $0xa,%ymm0,%ymm0
  4e:	c5 fd eb c1          	vpor   %ymm1,%ymm0,%ymm0
  52:	c5 fe 7f 04 3e       	vmovdqu %ymm0,(%rsi,%rdi,1)
  57:	48 83 c7 20          	add    $0x20,%rdi
  5b:	83 ea 08             	sub    $0x8,%edx
  5e:	7f d0                	jg     30 <ABGRToAR30Row_AVX2+0x30>
  60:	c5 f8 77             	vzeroupper 
  63:	c3                   	retq   

Disassembly of section .text.ARGBToYRow_SSSE3:

0000000000000000 <ARGBToYRow_SSSE3>:
   0:	66 0f 6f 25 00 00 00 	movdqa 0x0(%rip),%xmm4        # 8 <ARGBToYRow_SSSE3+0x8>
   7:	00 
   8:	66 0f 6f 2d 00 00 00 	movdqa 0x0(%rip),%xmm5        # 10 <ARGBToYRow_SSSE3+0x10>
   f:	00 
  10:	f3 0f 6f 07          	movdqu (%rdi),%xmm0
  14:	f3 0f 6f 4f 10       	movdqu 0x10(%rdi),%xmm1
  19:	f3 0f 6f 57 20       	movdqu 0x20(%rdi),%xmm2
  1e:	f3 0f 6f 5f 30       	movdqu 0x30(%rdi),%xmm3
  23:	66 0f 38 04 c4       	pmaddubsw %xmm4,%xmm0
  28:	66 0f 38 04 cc       	pmaddubsw %xmm4,%xmm1
  2d:	66 0f 38 04 d4       	pmaddubsw %xmm4,%xmm2
  32:	66 0f 38 04 dc       	pmaddubsw %xmm4,%xmm3
  37:	48 8d 7f 40          	lea    0x40(%rdi),%rdi
  3b:	66 0f 38 01 c1       	phaddw %xmm1,%xmm0
  40:	66 0f 38 01 d3       	phaddw %xmm3,%xmm2
  45:	66 0f 71 d0 07       	psrlw  $0x7,%xmm0
  4a:	66 0f 71 d2 07       	psrlw  $0x7,%xmm2
  4f:	66 0f 67 c2          	packuswb %xmm2,%xmm0
  53:	66 0f fc c5          	paddb  %xmm5,%xmm0
  57:	f3 0f 7f 06          	movdqu %xmm0,(%rsi)
  5b:	48 8d 76 10          	lea    0x10(%rsi),%rsi
  5f:	83 ea 10             	sub    $0x10,%edx
  62:	7f ac                	jg     10 <ARGBToYRow_SSSE3+0x10>
  64:	c3                   	retq   

Disassembly of section .text.ARGBToYJRow_SSSE3:

0000000000000000 <ARGBToYJRow_SSSE3>:
   0:	66 0f 6f 25 00 00 00 	movdqa 0x0(%rip),%xmm4        # 8 <ARGBToYJRow_SSSE3+0x8>
   7:	00 
   8:	66 0f 6f 2d 00 00 00 	movdqa 0x0(%rip),%xmm5        # 10 <ARGBToYJRow_SSSE3+0x10>
   f:	00 
  10:	f3 0f 6f 07          	movdqu (%rdi),%xmm0
  14:	f3 0f 6f 4f 10       	movdqu 0x10(%rdi),%xmm1
  19:	f3 0f 6f 57 20       	movdqu 0x20(%rdi),%xmm2
  1e:	f3 0f 6f 5f 30       	movdqu 0x30(%rdi),%xmm3
  23:	66 0f 38 04 c4       	pmaddubsw %xmm4,%xmm0
  28:	66 0f 38 04 cc       	pmaddubsw %xmm4,%xmm1
  2d:	66 0f 38 04 d4       	pmaddubsw %xmm4,%xmm2
  32:	66 0f 38 04 dc       	pmaddubsw %xmm4,%xmm3
  37:	48 8d 7f 40          	lea    0x40(%rdi),%rdi
  3b:	66 0f 38 01 c1       	phaddw %xmm1,%xmm0
  40:	66 0f 38 01 d3       	phaddw %xmm3,%xmm2
  45:	66 0f fd c5          	paddw  %xmm5,%xmm0
  49:	66 0f fd d5          	paddw  %xmm5,%xmm2
  4d:	66 0f 71 d0 07       	psrlw  $0x7,%xmm0
  52:	66 0f 71 d2 07       	psrlw  $0x7,%xmm2
  57:	66 0f 67 c2          	packuswb %xmm2,%xmm0
  5b:	f3 0f 7f 06          	movdqu %xmm0,(%rsi)
  5f:	48 8d 76 10          	lea    0x10(%rsi),%rsi
  63:	83 ea 10             	sub    $0x10,%edx
  66:	7f a8                	jg     10 <ARGBToYJRow_SSSE3+0x10>
  68:	c3                   	retq   

Disassembly of section .text.ARGBToYRow_AVX2:

0000000000000000 <ARGBToYRow_AVX2>:
   0:	c4 e2 7d 1a 25 00 00 	vbroadcastf128 0x0(%rip),%ymm4        # 9 <ARGBToYRow_AVX2+0x9>
   7:	00 00 
   9:	c4 e2 7d 1a 2d 00 00 	vbroadcastf128 0x0(%rip),%ymm5        # 12 <ARGBToYRow_AVX2+0x12>
  10:	00 00 
  12:	c5 fe 6f 35 00 00 00 	vmovdqu 0x0(%rip),%ymm6        # 1a <ARGBToYRow_AVX2+0x1a>
  19:	00 
  1a:	c5 fe 6f 07          	vmovdqu (%rdi),%ymm0
  1e:	c5 fe 6f 4f 20       	vmovdqu 0x20(%rdi),%ymm1
  23:	c5 fe 6f 57 40       	vmovdqu 0x40(%rdi),%ymm2
  28:	c5 fe 6f 5f 60       	vmovdqu 0x60(%rdi),%ymm3
  2d:	c4 e2 7d 04 c4       	vpmaddubsw %ymm4,%ymm0,%ymm0
  32:	c4 e2 75 04 cc       	vpmaddubsw %ymm4,%ymm1,%ymm1
  37:	c4 e2 6d 04 d4       	vpmaddubsw %ymm4,%ymm2,%ymm2
  3c:	c4 e2 65 04 dc       	vpmaddubsw %ymm4,%ymm3,%ymm3
  41:	48 8d bf 80 00 00 00 	lea    0x80(%rdi),%rdi
  48:	c4 e2 7d 01 c1       	vphaddw %ymm1,%ymm0,%ymm0
  4d:	c4 e2 6d 01 d3       	vphaddw %ymm3,%ymm2,%ymm2
  52:	c5 fd 71 d0 07       	vpsrlw $0x7,%ymm0,%ymm0
  57:	c5 ed 71 d2 07       	vpsrlw $0x7,%ymm2,%ymm2
  5c:	c5 fd 67 c2          	vpackuswb %ymm2,%ymm0,%ymm0
  60:	c4 e2 4d 36 c0       	vpermd %ymm0,%ymm6,%ymm0
  65:	c5 fd fc c5          	vpaddb %ymm5,%ymm0,%ymm0
  69:	c5 fe 7f 06          	vmovdqu %ymm0,(%rsi)
  6d:	48 8d 76 20          	lea    0x20(%rsi),%rsi
  71:	83 ea 20             	sub    $0x20,%edx
  74:	7f a4                	jg     1a <ARGBToYRow_AVX2+0x1a>
  76:	c5 f8 77             	vzeroupper 
  79:	c3                   	retq   

Disassembly of section .text.ARGBToYJRow_AVX2:

0000000000000000 <ARGBToYJRow_AVX2>:
   0:	c4 e2 7d 1a 25 00 00 	vbroadcastf128 0x0(%rip),%ymm4        # 9 <ARGBToYJRow_AVX2+0x9>
   7:	00 00 
   9:	c4 e2 7d 1a 2d 00 00 	vbroadcastf128 0x0(%rip),%ymm5        # 12 <ARGBToYJRow_AVX2+0x12>
  10:	00 00 
  12:	c5 fe 6f 35 00 00 00 	vmovdqu 0x0(%rip),%ymm6        # 1a <ARGBToYJRow_AVX2+0x1a>
  19:	00 
  1a:	c5 fe 6f 07          	vmovdqu (%rdi),%ymm0
  1e:	c5 fe 6f 4f 20       	vmovdqu 0x20(%rdi),%ymm1
  23:	c5 fe 6f 57 40       	vmovdqu 0x40(%rdi),%ymm2
  28:	c5 fe 6f 5f 60       	vmovdqu 0x60(%rdi),%ymm3
  2d:	c4 e2 7d 04 c4       	vpmaddubsw %ymm4,%ymm0,%ymm0
  32:	c4 e2 75 04 cc       	vpmaddubsw %ymm4,%ymm1,%ymm1
  37:	c4 e2 6d 04 d4       	vpmaddubsw %ymm4,%ymm2,%ymm2
  3c:	c4 e2 65 04 dc       	vpmaddubsw %ymm4,%ymm3,%ymm3
  41:	48 8d bf 80 00 00 00 	lea    0x80(%rdi),%rdi
  48:	c4 e2 7d 01 c1       	vphaddw %ymm1,%ymm0,%ymm0
  4d:	c4 e2 6d 01 d3       	vphaddw %ymm3,%ymm2,%ymm2
  52:	c5 fd fd c5          	vpaddw %ymm5,%ymm0,%ymm0
  56:	c5 ed fd d5          	vpaddw %ymm5,%ymm2,%ymm2
  5a:	c5 fd 71 d0 07       	vpsrlw $0x7,%ymm0,%ymm0
  5f:	c5 ed 71 d2 07       	vpsrlw $0x7,%ymm2,%ymm2
  64:	c5 fd 67 c2          	vpackuswb %ymm2,%ymm0,%ymm0
  68:	c4 e2 4d 36 c0       	vpermd %ymm0,%ymm6,%ymm0
  6d:	c5 fe 7f 06          	vmovdqu %ymm0,(%rsi)
  71:	48 8d 76 20          	lea    0x20(%rsi),%rsi
  75:	83 ea 20             	sub    $0x20,%edx
  78:	7f a0                	jg     1a <ARGBToYJRow_AVX2+0x1a>
  7a:	c5 f8 77             	vzeroupper 
  7d:	c3                   	retq   

Disassembly of section .text.ARGBToUVRow_SSSE3:

0000000000000000 <ARGBToUVRow_SSSE3>:
   0:	44 89 44 24 fc       	mov    %r8d,-0x4(%rsp)
   5:	48 63 c6             	movslq %esi,%rax
   8:	66 0f 6f 1d 00 00 00 	movdqa 0x0(%rip),%xmm3        # 10 <ARGBToUVRow_SSSE3+0x10>
   f:	00 
  10:	66 0f 6f 25 00 00 00 	movdqa 0x0(%rip),%xmm4        # 18 <ARGBToUVRow_SSSE3+0x18>
  17:	00 
  18:	66 0f 6f 2d 00 00 00 	movdqa 0x0(%rip),%xmm5        # 20 <ARGBToUVRow_SSSE3+0x20>
  1f:	00 
  20:	48 29 d1             	sub    %rdx,%rcx
  23:	f3 0f 6f 07          	movdqu (%rdi),%xmm0
  27:	f3 0f 6f 3c 07       	movdqu (%rdi,%rax,1),%xmm7
  2c:	66 0f e0 c7          	pavgb  %xmm7,%xmm0
  30:	f3 0f 6f 4f 10       	movdqu 0x10(%rdi),%xmm1
  35:	f3 0f 6f 7c 07 10    	movdqu 0x10(%rdi,%rax,1),%xmm7
  3b:	66 0f e0 cf          	pavgb  %xmm7,%xmm1
  3f:	f3 0f 6f 57 20       	movdqu 0x20(%rdi),%xmm2
  44:	f3 0f 6f 7c 07 20    	movdqu 0x20(%rdi,%rax,1),%xmm7
  4a:	66 0f e0 d7          	pavgb  %xmm7,%xmm2
  4e:	f3 0f 6f 77 30       	movdqu 0x30(%rdi),%xmm6
  53:	f3 0f 6f 7c 07 30    	movdqu 0x30(%rdi,%rax,1),%xmm7
  59:	66 0f e0 f7          	pavgb  %xmm7,%xmm6
  5d:	48 8d 7f 40          	lea    0x40(%rdi),%rdi
  61:	66 0f 6f f8          	movdqa %xmm0,%xmm7
  65:	0f c6 c1 88          	shufps $0x88,%xmm1,%xmm0
  69:	0f c6 f9 dd          	shufps $0xdd,%xmm1,%xmm7
  6d:	66 0f e0 c7          	pavgb  %xmm7,%xmm0
  71:	66 0f 6f fa          	movdqa %xmm2,%xmm7
  75:	0f c6 d6 88          	shufps $0x88,%xmm6,%xmm2
  79:	0f c6 fe dd          	shufps $0xdd,%xmm6,%xmm7
  7d:	66 0f e0 d7          	pavgb  %xmm7,%xmm2
  81:	66 0f 6f c8          	movdqa %xmm0,%xmm1
  85:	66 0f 6f f2          	movdqa %xmm2,%xmm6
  89:	66 0f 38 04 c4       	pmaddubsw %xmm4,%xmm0
  8e:	66 0f 38 04 d4       	pmaddubsw %xmm4,%xmm2
  93:	66 0f 38 04 cb       	pmaddubsw %xmm3,%xmm1
  98:	66 0f 38 04 f3       	pmaddubsw %xmm3,%xmm6
  9d:	66 0f 38 01 c2       	phaddw %xmm2,%xmm0
  a2:	66 0f 38 01 ce       	phaddw %xmm6,%xmm1
  a7:	66 0f 71 e0 08       	psraw  $0x8,%xmm0
  ac:	66 0f 71 e1 08       	psraw  $0x8,%xmm1
  b1:	66 0f 63 c1          	packsswb %xmm1,%xmm0
  b5:	66 0f fc c5          	paddb  %xmm5,%xmm0
  b9:	0f 13 02             	movlps %xmm0,(%rdx)
  bc:	0f 17 04 0a          	movhps %xmm0,(%rdx,%rcx,1)
  c0:	48 8d 52 08          	lea    0x8(%rdx),%rdx
  c4:	41 83 e8 10          	sub    $0x10,%r8d
  c8:	0f 8f 55 ff ff ff    	jg     23 <ARGBToUVRow_SSSE3+0x23>
  ce:	44 89 44 24 fc       	mov    %r8d,-0x4(%rsp)
  d3:	c3                   	retq   

Disassembly of section .text.ARGBToUVRow_AVX2:

0000000000000000 <ARGBToUVRow_AVX2>:
   0:	44 89 44 24 fc       	mov    %r8d,-0x4(%rsp)
   5:	48 63 c6             	movslq %esi,%rax
   8:	c4 e2 7d 1a 2d 00 00 	vbroadcastf128 0x0(%rip),%ymm5        # 11 <ARGBToUVRow_AVX2+0x11>
   f:	00 00 
  11:	c4 e2 7d 1a 35 00 00 	vbroadcastf128 0x0(%rip),%ymm6        # 1a <ARGBToUVRow_AVX2+0x1a>
  18:	00 00 
  1a:	c4 e2 7d 1a 3d 00 00 	vbroadcastf128 0x0(%rip),%ymm7        # 23 <ARGBToUVRow_AVX2+0x23>
  21:	00 00 
  23:	48 29 d1             	sub    %rdx,%rcx
  26:	c5 fe 6f 07          	vmovdqu (%rdi),%ymm0
  2a:	c5 fe 6f 4f 20       	vmovdqu 0x20(%rdi),%ymm1
  2f:	c5 fe 6f 57 40       	vmovdqu 0x40(%rdi),%ymm2
  34:	c5 fe 6f 5f 60       	vmovdqu 0x60(%rdi),%ymm3
  39:	c5 fd e0 04 07       	vpavgb (%rdi,%rax,1),%ymm0,%ymm0
  3e:	c5 f5 e0 4c 07 20    	vpavgb 0x20(%rdi,%rax,1),%ymm1,%ymm1
  44:	c5 ed e0 54 07 40    	vpavgb 0x40(%rdi,%rax,1),%ymm2,%ymm2
  4a:	c5 e5 e0 5c 07 60    	vpavgb 0x60(%rdi,%rax,1),%ymm3,%ymm3
  50:	48 8d bf 80 00 00 00 	lea    0x80(%rdi),%rdi
  57:	c5 fc c6 e1 88       	vshufps $0x88,%ymm1,%ymm0,%ymm4
  5c:	c5 fc c6 c1 dd       	vshufps $0xdd,%ymm1,%ymm0,%ymm0
  61:	c5 fd e0 c4          	vpavgb %ymm4,%ymm0,%ymm0
  65:	c5 ec c6 e3 88       	vshufps $0x88,%ymm3,%ymm2,%ymm4
  6a:	c5 ec c6 d3 dd       	vshufps $0xdd,%ymm3,%ymm2,%ymm2
  6f:	c5 ed e0 d4          	vpavgb %ymm4,%ymm2,%ymm2
  73:	c4 e2 7d 04 cf       	vpmaddubsw %ymm7,%ymm0,%ymm1
  78:	c4 e2 6d 04 df       	vpmaddubsw %ymm7,%ymm2,%ymm3
  7d:	c4 e2 7d 04 c6       	vpmaddubsw %ymm6,%ymm0,%ymm0
  82:	c4 e2 6d 04 d6       	vpmaddubsw %ymm6,%ymm2,%ymm2
  87:	c4 e2 75 01 cb       	vphaddw %ymm3,%ymm1,%ymm1
  8c:	c4 e2 7d 01 c2       	vphaddw %ymm2,%ymm0,%ymm0
  91:	c5 f5 71 e1 08       	vpsraw $0x8,%ymm1,%ymm1
  96:	c5 fd 71 e0 08       	vpsraw $0x8,%ymm0,%ymm0
  9b:	c5 f5 63 c0          	vpacksswb %ymm0,%ymm1,%ymm0
  9f:	c4 e3 fd 00 c0 d8    	vpermq $0xd8,%ymm0,%ymm0
  a5:	c4 e2 7d 00 05 00 00 	vpshufb 0x0(%rip),%ymm0,%ymm0        # ae <ARGBToUVRow_AVX2+0xae>
  ac:	00 00 
  ae:	c5 fd fc c5          	vpaddb %ymm5,%ymm0,%ymm0
  b2:	c4 e3 7d 19 02 00    	vextractf128 $0x0,%ymm0,(%rdx)
  b8:	c4 e3 7d 19 04 0a 01 	vextractf128 $0x1,%ymm0,(%rdx,%rcx,1)
  bf:	48 8d 52 10          	lea    0x10(%rdx),%rdx
  c3:	41 83 e8 20          	sub    $0x20,%r8d
  c7:	0f 8f 59 ff ff ff    	jg     26 <ARGBToUVRow_AVX2+0x26>
  cd:	c5 f8 77             	vzeroupper 
  d0:	44 89 44 24 fc       	mov    %r8d,-0x4(%rsp)
  d5:	c3                   	retq   

Disassembly of section .text.ARGBToUVJRow_AVX2:

0000000000000000 <ARGBToUVJRow_AVX2>:
   0:	44 89 44 24 fc       	mov    %r8d,-0x4(%rsp)
   5:	48 63 c6             	movslq %esi,%rax
   8:	c4 e2 7d 1a 2d 00 00 	vbroadcastf128 0x0(%rip),%ymm5        # 11 <ARGBToUVJRow_AVX2+0x11>
   f:	00 00 
  11:	c4 e2 7d 1a 35 00 00 	vbroadcastf128 0x0(%rip),%ymm6        # 1a <ARGBToUVJRow_AVX2+0x1a>
  18:	00 00 
  1a:	c4 e2 7d 1a 3d 00 00 	vbroadcastf128 0x0(%rip),%ymm7        # 23 <ARGBToUVJRow_AVX2+0x23>
  21:	00 00 
  23:	48 29 d1             	sub    %rdx,%rcx
  26:	c5 fe 6f 07          	vmovdqu (%rdi),%ymm0
  2a:	c5 fe 6f 4f 20       	vmovdqu 0x20(%rdi),%ymm1
  2f:	c5 fe 6f 57 40       	vmovdqu 0x40(%rdi),%ymm2
  34:	c5 fe 6f 5f 60       	vmovdqu 0x60(%rdi),%ymm3
  39:	c5 fd e0 04 07       	vpavgb (%rdi,%rax,1),%ymm0,%ymm0
  3e:	c5 f5 e0 4c 07 20    	vpavgb 0x20(%rdi,%rax,1),%ymm1,%ymm1
  44:	c5 ed e0 54 07 40    	vpavgb 0x40(%rdi,%rax,1),%ymm2,%ymm2
  4a:	c5 e5 e0 5c 07 60    	vpavgb 0x60(%rdi,%rax,1),%ymm3,%ymm3
  50:	48 8d bf 80 00 00 00 	lea    0x80(%rdi),%rdi
  57:	c5 fc c6 e1 88       	vshufps $0x88,%ymm1,%ymm0,%ymm4
  5c:	c5 fc c6 c1 dd       	vshufps $0xdd,%ymm1,%ymm0,%ymm0
  61:	c5 fd e0 c4          	vpavgb %ymm4,%ymm0,%ymm0
  65:	c5 ec c6 e3 88       	vshufps $0x88,%ymm3,%ymm2,%ymm4
  6a:	c5 ec c6 d3 dd       	vshufps $0xdd,%ymm3,%ymm2,%ymm2
  6f:	c5 ed e0 d4          	vpavgb %ymm4,%ymm2,%ymm2
  73:	c4 e2 7d 04 cf       	vpmaddubsw %ymm7,%ymm0,%ymm1
  78:	c4 e2 6d 04 df       	vpmaddubsw %ymm7,%ymm2,%ymm3
  7d:	c4 e2 7d 04 c6       	vpmaddubsw %ymm6,%ymm0,%ymm0
  82:	c4 e2 6d 04 d6       	vpmaddubsw %ymm6,%ymm2,%ymm2
  87:	c4 e2 75 01 cb       	vphaddw %ymm3,%ymm1,%ymm1
  8c:	c4 e2 7d 01 c2       	vphaddw %ymm2,%ymm0,%ymm0
  91:	c5 fd fd c5          	vpaddw %ymm5,%ymm0,%ymm0
  95:	c5 f5 fd cd          	vpaddw %ymm5,%ymm1,%ymm1
  99:	c5 f5 71 e1 08       	vpsraw $0x8,%ymm1,%ymm1
  9e:	c5 fd 71 e0 08       	vpsraw $0x8,%ymm0,%ymm0
  a3:	c5 f5 63 c0          	vpacksswb %ymm0,%ymm1,%ymm0
  a7:	c4 e3 fd 00 c0 d8    	vpermq $0xd8,%ymm0,%ymm0
  ad:	c4 e2 7d 00 05 00 00 	vpshufb 0x0(%rip),%ymm0,%ymm0        # b6 <ARGBToUVJRow_AVX2+0xb6>
  b4:	00 00 
  b6:	c4 e3 7d 19 02 00    	vextractf128 $0x0,%ymm0,(%rdx)
  bc:	c4 e3 7d 19 04 0a 01 	vextractf128 $0x1,%ymm0,(%rdx,%rcx,1)
  c3:	48 8d 52 10          	lea    0x10(%rdx),%rdx
  c7:	41 83 e8 20          	sub    $0x20,%r8d
  cb:	0f 8f 55 ff ff ff    	jg     26 <ARGBToUVJRow_AVX2+0x26>
  d1:	c5 f8 77             	vzeroupper 
  d4:	44 89 44 24 fc       	mov    %r8d,-0x4(%rsp)
  d9:	c3                   	retq   

Disassembly of section .text.ARGBToUVJRow_SSSE3:

0000000000000000 <ARGBToUVJRow_SSSE3>:
   0:	44 89 44 24 fc       	mov    %r8d,-0x4(%rsp)
   5:	48 63 c6             	movslq %esi,%rax
   8:	66 0f 6f 1d 00 00 00 	movdqa 0x0(%rip),%xmm3        # 10 <ARGBToUVJRow_SSSE3+0x10>
   f:	00 
  10:	66 0f 6f 25 00 00 00 	movdqa 0x0(%rip),%xmm4        # 18 <ARGBToUVJRow_SSSE3+0x18>
  17:	00 
  18:	66 0f 6f 2d 00 00 00 	movdqa 0x0(%rip),%xmm5        # 20 <ARGBToUVJRow_SSSE3+0x20>
  1f:	00 
  20:	48 29 d1             	sub    %rdx,%rcx
  23:	f3 0f 6f 07          	movdqu (%rdi),%xmm0
  27:	f3 0f 6f 3c 07       	movdqu (%rdi,%rax,1),%xmm7
  2c:	66 0f e0 c7          	pavgb  %xmm7,%xmm0
  30:	f3 0f 6f 4f 10       	movdqu 0x10(%rdi),%xmm1
  35:	f3 0f 6f 7c 07 10    	movdqu 0x10(%rdi,%rax,1),%xmm7
  3b:	66 0f e0 cf          	pavgb  %xmm7,%xmm1
  3f:	f3 0f 6f 57 20       	movdqu 0x20(%rdi),%xmm2
  44:	f3 0f 6f 7c 07 20    	movdqu 0x20(%rdi,%rax,1),%xmm7
  4a:	66 0f e0 d7          	pavgb  %xmm7,%xmm2
  4e:	f3 0f 6f 77 30       	movdqu 0x30(%rdi),%xmm6
  53:	f3 0f 6f 7c 07 30    	movdqu 0x30(%rdi,%rax,1),%xmm7
  59:	66 0f e0 f7          	pavgb  %xmm7,%xmm6
  5d:	48 8d 7f 40          	lea    0x40(%rdi),%rdi
  61:	66 0f 6f f8          	movdqa %xmm0,%xmm7
  65:	0f c6 c1 88          	shufps $0x88,%xmm1,%xmm0
  69:	0f c6 f9 dd          	shufps $0xdd,%xmm1,%xmm7
  6d:	66 0f e0 c7          	pavgb  %xmm7,%xmm0
  71:	66 0f 6f fa          	movdqa %xmm2,%xmm7
  75:	0f c6 d6 88          	shufps $0x88,%xmm6,%xmm2
  79:	0f c6 fe dd          	shufps $0xdd,%xmm6,%xmm7
  7d:	66 0f e0 d7          	pavgb  %xmm7,%xmm2
  81:	66 0f 6f c8          	movdqa %xmm0,%xmm1
  85:	66 0f 6f f2          	movdqa %xmm2,%xmm6
  89:	66 0f 38 04 c4       	pmaddubsw %xmm4,%xmm0
  8e:	66 0f 38 04 d4       	pmaddubsw %xmm4,%xmm2
  93:	66 0f 38 04 cb       	pmaddubsw %xmm3,%xmm1
  98:	66 0f 38 04 f3       	pmaddubsw %xmm3,%xmm6
  9d:	66 0f 38 01 c2       	phaddw %xmm2,%xmm0
  a2:	66 0f 38 01 ce       	phaddw %xmm6,%xmm1
  a7:	66 0f fd c5          	paddw  %xmm5,%xmm0
  ab:	66 0f fd cd          	paddw  %xmm5,%xmm1
  af:	66 0f 71 e0 08       	psraw  $0x8,%xmm0
  b4:	66 0f 71 e1 08       	psraw  $0x8,%xmm1
  b9:	66 0f 63 c1          	packsswb %xmm1,%xmm0
  bd:	0f 13 02             	movlps %xmm0,(%rdx)
  c0:	0f 17 04 0a          	movhps %xmm0,(%rdx,%rcx,1)
  c4:	48 8d 52 08          	lea    0x8(%rdx),%rdx
  c8:	41 83 e8 10          	sub    $0x10,%r8d
  cc:	0f 8f 51 ff ff ff    	jg     23 <ARGBToUVJRow_SSSE3+0x23>
  d2:	44 89 44 24 fc       	mov    %r8d,-0x4(%rsp)
  d7:	c3                   	retq   

Disassembly of section .text.ARGBToUV444Row_SSSE3:

0000000000000000 <ARGBToUV444Row_SSSE3>:
   0:	89 4c 24 fc          	mov    %ecx,-0x4(%rsp)
   4:	66 0f 6f 1d 00 00 00 	movdqa 0x0(%rip),%xmm3        # c <ARGBToUV444Row_SSSE3+0xc>
   b:	00 
   c:	66 0f 6f 25 00 00 00 	movdqa 0x0(%rip),%xmm4        # 14 <ARGBToUV444Row_SSSE3+0x14>
  13:	00 
  14:	66 0f 6f 2d 00 00 00 	movdqa 0x0(%rip),%xmm5        # 1c <ARGBToUV444Row_SSSE3+0x1c>
  1b:	00 
  1c:	48 29 f2             	sub    %rsi,%rdx
  1f:	f3 0f 6f 07          	movdqu (%rdi),%xmm0
  23:	f3 0f 6f 4f 10       	movdqu 0x10(%rdi),%xmm1
  28:	f3 0f 6f 57 20       	movdqu 0x20(%rdi),%xmm2
  2d:	f3 0f 6f 77 30       	movdqu 0x30(%rdi),%xmm6
  32:	66 0f 38 04 c4       	pmaddubsw %xmm4,%xmm0
  37:	66 0f 38 04 cc       	pmaddubsw %xmm4,%xmm1
  3c:	66 0f 38 04 d4       	pmaddubsw %xmm4,%xmm2
  41:	66 0f 38 04 f4       	pmaddubsw %xmm4,%xmm6
  46:	66 0f 38 01 c1       	phaddw %xmm1,%xmm0
  4b:	66 0f 38 01 d6       	phaddw %xmm6,%xmm2
  50:	66 0f 71 e0 08       	psraw  $0x8,%xmm0
  55:	66 0f 71 e2 08       	psraw  $0x8,%xmm2
  5a:	66 0f 63 c2          	packsswb %xmm2,%xmm0
  5e:	66 0f fc c5          	paddb  %xmm5,%xmm0
  62:	f3 0f 7f 06          	movdqu %xmm0,(%rsi)
  66:	f3 0f 6f 07          	movdqu (%rdi),%xmm0
  6a:	f3 0f 6f 4f 10       	movdqu 0x10(%rdi),%xmm1
  6f:	f3 0f 6f 57 20       	movdqu 0x20(%rdi),%xmm2
  74:	f3 0f 6f 77 30       	movdqu 0x30(%rdi),%xmm6
  79:	66 0f 38 04 c3       	pmaddubsw %xmm3,%xmm0
  7e:	66 0f 38 04 cb       	pmaddubsw %xmm3,%xmm1
  83:	66 0f 38 04 d3       	pmaddubsw %xmm3,%xmm2
  88:	66 0f 38 04 f3       	pmaddubsw %xmm3,%xmm6
  8d:	66 0f 38 01 c1       	phaddw %xmm1,%xmm0
  92:	66 0f 38 01 d6       	phaddw %xmm6,%xmm2
  97:	66 0f 71 e0 08       	psraw  $0x8,%xmm0
  9c:	66 0f 71 e2 08       	psraw  $0x8,%xmm2
  a1:	66 0f 63 c2          	packsswb %xmm2,%xmm0
  a5:	66 0f fc c5          	paddb  %xmm5,%xmm0
  a9:	48 8d 7f 40          	lea    0x40(%rdi),%rdi
  ad:	f3 0f 7f 04 16       	movdqu %xmm0,(%rsi,%rdx,1)
  b2:	48 8d 76 10          	lea    0x10(%rsi),%rsi
  b6:	83 e9 10             	sub    $0x10,%ecx
  b9:	0f 8f 60 ff ff ff    	jg     1f <ARGBToUV444Row_SSSE3+0x1f>
  bf:	89 4c 24 fc          	mov    %ecx,-0x4(%rsp)
  c3:	c3                   	retq   

Disassembly of section .text.BGRAToYRow_SSSE3:

0000000000000000 <BGRAToYRow_SSSE3>:
   0:	66 0f 6f 2d 00 00 00 	movdqa 0x0(%rip),%xmm5        # 8 <BGRAToYRow_SSSE3+0x8>
   7:	00 
   8:	66 0f 6f 25 00 00 00 	movdqa 0x0(%rip),%xmm4        # 10 <BGRAToYRow_SSSE3+0x10>
   f:	00 
  10:	f3 0f 6f 07          	movdqu (%rdi),%xmm0
  14:	f3 0f 6f 4f 10       	movdqu 0x10(%rdi),%xmm1
  19:	f3 0f 6f 57 20       	movdqu 0x20(%rdi),%xmm2
  1e:	f3 0f 6f 5f 30       	movdqu 0x30(%rdi),%xmm3
  23:	66 0f 38 04 c4       	pmaddubsw %xmm4,%xmm0
  28:	66 0f 38 04 cc       	pmaddubsw %xmm4,%xmm1
  2d:	66 0f 38 04 d4       	pmaddubsw %xmm4,%xmm2
  32:	66 0f 38 04 dc       	pmaddubsw %xmm4,%xmm3
  37:	48 8d 7f 40          	lea    0x40(%rdi),%rdi
  3b:	66 0f 38 01 c1       	phaddw %xmm1,%xmm0
  40:	66 0f 38 01 d3       	phaddw %xmm3,%xmm2
  45:	66 0f 71 d0 07       	psrlw  $0x7,%xmm0
  4a:	66 0f 71 d2 07       	psrlw  $0x7,%xmm2
  4f:	66 0f 67 c2          	packuswb %xmm2,%xmm0
  53:	66 0f fc c5          	paddb  %xmm5,%xmm0
  57:	f3 0f 7f 06          	movdqu %xmm0,(%rsi)
  5b:	48 8d 76 10          	lea    0x10(%rsi),%rsi
  5f:	83 ea 10             	sub    $0x10,%edx
  62:	7f ac                	jg     10 <BGRAToYRow_SSSE3+0x10>
  64:	c3                   	retq   

Disassembly of section .text.BGRAToUVRow_SSSE3:

0000000000000000 <BGRAToUVRow_SSSE3>:
   0:	44 89 44 24 fc       	mov    %r8d,-0x4(%rsp)
   5:	48 63 c6             	movslq %esi,%rax
   8:	66 0f 6f 1d 00 00 00 	movdqa 0x0(%rip),%xmm3        # 10 <BGRAToUVRow_SSSE3+0x10>
   f:	00 
  10:	66 0f 6f 25 00 00 00 	movdqa 0x0(%rip),%xmm4        # 18 <BGRAToUVRow_SSSE3+0x18>
  17:	00 
  18:	66 0f 6f 2d 00 00 00 	movdqa 0x0(%rip),%xmm5        # 20 <BGRAToUVRow_SSSE3+0x20>
  1f:	00 
  20:	48 29 d1             	sub    %rdx,%rcx
  23:	f3 0f 6f 07          	movdqu (%rdi),%xmm0
  27:	f3 0f 6f 3c 07       	movdqu (%rdi,%rax,1),%xmm7
  2c:	66 0f e0 c7          	pavgb  %xmm7,%xmm0
  30:	f3 0f 6f 4f 10       	movdqu 0x10(%rdi),%xmm1
  35:	f3 0f 6f 7c 07 10    	movdqu 0x10(%rdi,%rax,1),%xmm7
  3b:	66 0f e0 cf          	pavgb  %xmm7,%xmm1
  3f:	f3 0f 6f 57 20       	movdqu 0x20(%rdi),%xmm2
  44:	f3 0f 6f 7c 07 20    	movdqu 0x20(%rdi,%rax,1),%xmm7
  4a:	66 0f e0 d7          	pavgb  %xmm7,%xmm2
  4e:	f3 0f 6f 77 30       	movdqu 0x30(%rdi),%xmm6
  53:	f3 0f 6f 7c 07 30    	movdqu 0x30(%rdi,%rax,1),%xmm7
  59:	66 0f e0 f7          	pavgb  %xmm7,%xmm6
  5d:	48 8d 7f 40          	lea    0x40(%rdi),%rdi
  61:	66 0f 6f f8          	movdqa %xmm0,%xmm7
  65:	0f c6 c1 88          	shufps $0x88,%xmm1,%xmm0
  69:	0f c6 f9 dd          	shufps $0xdd,%xmm1,%xmm7
  6d:	66 0f e0 c7          	pavgb  %xmm7,%xmm0
  71:	66 0f 6f fa          	movdqa %xmm2,%xmm7
  75:	0f c6 d6 88          	shufps $0x88,%xmm6,%xmm2
  79:	0f c6 fe dd          	shufps $0xdd,%xmm6,%xmm7
  7d:	66 0f e0 d7          	pavgb  %xmm7,%xmm2
  81:	66 0f 6f c8          	movdqa %xmm0,%xmm1
  85:	66 0f 6f f2          	movdqa %xmm2,%xmm6
  89:	66 0f 38 04 c4       	pmaddubsw %xmm4,%xmm0
  8e:	66 0f 38 04 d4       	pmaddubsw %xmm4,%xmm2
  93:	66 0f 38 04 cb       	pmaddubsw %xmm3,%xmm1
  98:	66 0f 38 04 f3       	pmaddubsw %xmm3,%xmm6
  9d:	66 0f 38 01 c2       	phaddw %xmm2,%xmm0
  a2:	66 0f 38 01 ce       	phaddw %xmm6,%xmm1
  a7:	66 0f 71 e0 08       	psraw  $0x8,%xmm0
  ac:	66 0f 71 e1 08       	psraw  $0x8,%xmm1
  b1:	66 0f 63 c1          	packsswb %xmm1,%xmm0
  b5:	66 0f fc c5          	paddb  %xmm5,%xmm0
  b9:	0f 13 02             	movlps %xmm0,(%rdx)
  bc:	0f 17 04 0a          	movhps %xmm0,(%rdx,%rcx,1)
  c0:	48 8d 52 08          	lea    0x8(%rdx),%rdx
  c4:	41 83 e8 10          	sub    $0x10,%r8d
  c8:	0f 8f 55 ff ff ff    	jg     23 <BGRAToUVRow_SSSE3+0x23>
  ce:	44 89 44 24 fc       	mov    %r8d,-0x4(%rsp)
  d3:	c3                   	retq   

Disassembly of section .text.ABGRToYRow_SSSE3:

0000000000000000 <ABGRToYRow_SSSE3>:
   0:	66 0f 6f 2d 00 00 00 	movdqa 0x0(%rip),%xmm5        # 8 <ABGRToYRow_SSSE3+0x8>
   7:	00 
   8:	66 0f 6f 25 00 00 00 	movdqa 0x0(%rip),%xmm4        # 10 <ABGRToYRow_SSSE3+0x10>
   f:	00 
  10:	f3 0f 6f 07          	movdqu (%rdi),%xmm0
  14:	f3 0f 6f 4f 10       	movdqu 0x10(%rdi),%xmm1
  19:	f3 0f 6f 57 20       	movdqu 0x20(%rdi),%xmm2
  1e:	f3 0f 6f 5f 30       	movdqu 0x30(%rdi),%xmm3
  23:	66 0f 38 04 c4       	pmaddubsw %xmm4,%xmm0
  28:	66 0f 38 04 cc       	pmaddubsw %xmm4,%xmm1
  2d:	66 0f 38 04 d4       	pmaddubsw %xmm4,%xmm2
  32:	66 0f 38 04 dc       	pmaddubsw %xmm4,%xmm3
  37:	48 8d 7f 40          	lea    0x40(%rdi),%rdi
  3b:	66 0f 38 01 c1       	phaddw %xmm1,%xmm0
  40:	66 0f 38 01 d3       	phaddw %xmm3,%xmm2
  45:	66 0f 71 d0 07       	psrlw  $0x7,%xmm0
  4a:	66 0f 71 d2 07       	psrlw  $0x7,%xmm2
  4f:	66 0f 67 c2          	packuswb %xmm2,%xmm0
  53:	66 0f fc c5          	paddb  %xmm5,%xmm0
  57:	f3 0f 7f 06          	movdqu %xmm0,(%rsi)
  5b:	48 8d 76 10          	lea    0x10(%rsi),%rsi
  5f:	83 ea 10             	sub    $0x10,%edx
  62:	7f ac                	jg     10 <ABGRToYRow_SSSE3+0x10>
  64:	c3                   	retq   

Disassembly of section .text.RGBAToYRow_SSSE3:

0000000000000000 <RGBAToYRow_SSSE3>:
   0:	66 0f 6f 2d 00 00 00 	movdqa 0x0(%rip),%xmm5        # 8 <RGBAToYRow_SSSE3+0x8>
   7:	00 
   8:	66 0f 6f 25 00 00 00 	movdqa 0x0(%rip),%xmm4        # 10 <RGBAToYRow_SSSE3+0x10>
   f:	00 
  10:	f3 0f 6f 07          	movdqu (%rdi),%xmm0
  14:	f3 0f 6f 4f 10       	movdqu 0x10(%rdi),%xmm1
  19:	f3 0f 6f 57 20       	movdqu 0x20(%rdi),%xmm2
  1e:	f3 0f 6f 5f 30       	movdqu 0x30(%rdi),%xmm3
  23:	66 0f 38 04 c4       	pmaddubsw %xmm4,%xmm0
  28:	66 0f 38 04 cc       	pmaddubsw %xmm4,%xmm1
  2d:	66 0f 38 04 d4       	pmaddubsw %xmm4,%xmm2
  32:	66 0f 38 04 dc       	pmaddubsw %xmm4,%xmm3
  37:	48 8d 7f 40          	lea    0x40(%rdi),%rdi
  3b:	66 0f 38 01 c1       	phaddw %xmm1,%xmm0
  40:	66 0f 38 01 d3       	phaddw %xmm3,%xmm2
  45:	66 0f 71 d0 07       	psrlw  $0x7,%xmm0
  4a:	66 0f 71 d2 07       	psrlw  $0x7,%xmm2
  4f:	66 0f 67 c2          	packuswb %xmm2,%xmm0
  53:	66 0f fc c5          	paddb  %xmm5,%xmm0
  57:	f3 0f 7f 06          	movdqu %xmm0,(%rsi)
  5b:	48 8d 76 10          	lea    0x10(%rsi),%rsi
  5f:	83 ea 10             	sub    $0x10,%edx
  62:	7f ac                	jg     10 <RGBAToYRow_SSSE3+0x10>
  64:	c3                   	retq   

Disassembly of section .text.ABGRToUVRow_SSSE3:

0000000000000000 <ABGRToUVRow_SSSE3>:
   0:	44 89 44 24 fc       	mov    %r8d,-0x4(%rsp)
   5:	48 63 c6             	movslq %esi,%rax
   8:	66 0f 6f 1d 00 00 00 	movdqa 0x0(%rip),%xmm3        # 10 <ABGRToUVRow_SSSE3+0x10>
   f:	00 
  10:	66 0f 6f 25 00 00 00 	movdqa 0x0(%rip),%xmm4        # 18 <ABGRToUVRow_SSSE3+0x18>
  17:	00 
  18:	66 0f 6f 2d 00 00 00 	movdqa 0x0(%rip),%xmm5        # 20 <ABGRToUVRow_SSSE3+0x20>
  1f:	00 
  20:	48 29 d1             	sub    %rdx,%rcx
  23:	f3 0f 6f 07          	movdqu (%rdi),%xmm0
  27:	f3 0f 6f 3c 07       	movdqu (%rdi,%rax,1),%xmm7
  2c:	66 0f e0 c7          	pavgb  %xmm7,%xmm0
  30:	f3 0f 6f 4f 10       	movdqu 0x10(%rdi),%xmm1
  35:	f3 0f 6f 7c 07 10    	movdqu 0x10(%rdi,%rax,1),%xmm7
  3b:	66 0f e0 cf          	pavgb  %xmm7,%xmm1
  3f:	f3 0f 6f 57 20       	movdqu 0x20(%rdi),%xmm2
  44:	f3 0f 6f 7c 07 20    	movdqu 0x20(%rdi,%rax,1),%xmm7
  4a:	66 0f e0 d7          	pavgb  %xmm7,%xmm2
  4e:	f3 0f 6f 77 30       	movdqu 0x30(%rdi),%xmm6
  53:	f3 0f 6f 7c 07 30    	movdqu 0x30(%rdi,%rax,1),%xmm7
  59:	66 0f e0 f7          	pavgb  %xmm7,%xmm6
  5d:	48 8d 7f 40          	lea    0x40(%rdi),%rdi
  61:	66 0f 6f f8          	movdqa %xmm0,%xmm7
  65:	0f c6 c1 88          	shufps $0x88,%xmm1,%xmm0
  69:	0f c6 f9 dd          	shufps $0xdd,%xmm1,%xmm7
  6d:	66 0f e0 c7          	pavgb  %xmm7,%xmm0
  71:	66 0f 6f fa          	movdqa %xmm2,%xmm7
  75:	0f c6 d6 88          	shufps $0x88,%xmm6,%xmm2
  79:	0f c6 fe dd          	shufps $0xdd,%xmm6,%xmm7
  7d:	66 0f e0 d7          	pavgb  %xmm7,%xmm2
  81:	66 0f 6f c8          	movdqa %xmm0,%xmm1
  85:	66 0f 6f f2          	movdqa %xmm2,%xmm6
  89:	66 0f 38 04 c4       	pmaddubsw %xmm4,%xmm0
  8e:	66 0f 38 04 d4       	pmaddubsw %xmm4,%xmm2
  93:	66 0f 38 04 cb       	pmaddubsw %xmm3,%xmm1
  98:	66 0f 38 04 f3       	pmaddubsw %xmm3,%xmm6
  9d:	66 0f 38 01 c2       	phaddw %xmm2,%xmm0
  a2:	66 0f 38 01 ce       	phaddw %xmm6,%xmm1
  a7:	66 0f 71 e0 08       	psraw  $0x8,%xmm0
  ac:	66 0f 71 e1 08       	psraw  $0x8,%xmm1
  b1:	66 0f 63 c1          	packsswb %xmm1,%xmm0
  b5:	66 0f fc c5          	paddb  %xmm5,%xmm0
  b9:	0f 13 02             	movlps %xmm0,(%rdx)
  bc:	0f 17 04 0a          	movhps %xmm0,(%rdx,%rcx,1)
  c0:	48 8d 52 08          	lea    0x8(%rdx),%rdx
  c4:	41 83 e8 10          	sub    $0x10,%r8d
  c8:	0f 8f 55 ff ff ff    	jg     23 <ABGRToUVRow_SSSE3+0x23>
  ce:	44 89 44 24 fc       	mov    %r8d,-0x4(%rsp)
  d3:	c3                   	retq   

Disassembly of section .text.RGBAToUVRow_SSSE3:

0000000000000000 <RGBAToUVRow_SSSE3>:
   0:	44 89 44 24 fc       	mov    %r8d,-0x4(%rsp)
   5:	48 63 c6             	movslq %esi,%rax
   8:	66 0f 6f 1d 00 00 00 	movdqa 0x0(%rip),%xmm3        # 10 <RGBAToUVRow_SSSE3+0x10>
   f:	00 
  10:	66 0f 6f 25 00 00 00 	movdqa 0x0(%rip),%xmm4        # 18 <RGBAToUVRow_SSSE3+0x18>
  17:	00 
  18:	66 0f 6f 2d 00 00 00 	movdqa 0x0(%rip),%xmm5        # 20 <RGBAToUVRow_SSSE3+0x20>
  1f:	00 
  20:	48 29 d1             	sub    %rdx,%rcx
  23:	f3 0f 6f 07          	movdqu (%rdi),%xmm0
  27:	f3 0f 6f 3c 07       	movdqu (%rdi,%rax,1),%xmm7
  2c:	66 0f e0 c7          	pavgb  %xmm7,%xmm0
  30:	f3 0f 6f 4f 10       	movdqu 0x10(%rdi),%xmm1
  35:	f3 0f 6f 7c 07 10    	movdqu 0x10(%rdi,%rax,1),%xmm7
  3b:	66 0f e0 cf          	pavgb  %xmm7,%xmm1
  3f:	f3 0f 6f 57 20       	movdqu 0x20(%rdi),%xmm2
  44:	f3 0f 6f 7c 07 20    	movdqu 0x20(%rdi,%rax,1),%xmm7
  4a:	66 0f e0 d7          	pavgb  %xmm7,%xmm2
  4e:	f3 0f 6f 77 30       	movdqu 0x30(%rdi),%xmm6
  53:	f3 0f 6f 7c 07 30    	movdqu 0x30(%rdi,%rax,1),%xmm7
  59:	66 0f e0 f7          	pavgb  %xmm7,%xmm6
  5d:	48 8d 7f 40          	lea    0x40(%rdi),%rdi
  61:	66 0f 6f f8          	movdqa %xmm0,%xmm7
  65:	0f c6 c1 88          	shufps $0x88,%xmm1,%xmm0
  69:	0f c6 f9 dd          	shufps $0xdd,%xmm1,%xmm7
  6d:	66 0f e0 c7          	pavgb  %xmm7,%xmm0
  71:	66 0f 6f fa          	movdqa %xmm2,%xmm7
  75:	0f c6 d6 88          	shufps $0x88,%xmm6,%xmm2
  79:	0f c6 fe dd          	shufps $0xdd,%xmm6,%xmm7
  7d:	66 0f e0 d7          	pavgb  %xmm7,%xmm2
  81:	66 0f 6f c8          	movdqa %xmm0,%xmm1
  85:	66 0f 6f f2          	movdqa %xmm2,%xmm6
  89:	66 0f 38 04 c4       	pmaddubsw %xmm4,%xmm0
  8e:	66 0f 38 04 d4       	pmaddubsw %xmm4,%xmm2
  93:	66 0f 38 04 cb       	pmaddubsw %xmm3,%xmm1
  98:	66 0f 38 04 f3       	pmaddubsw %xmm3,%xmm6
  9d:	66 0f 38 01 c2       	phaddw %xmm2,%xmm0
  a2:	66 0f 38 01 ce       	phaddw %xmm6,%xmm1
  a7:	66 0f 71 e0 08       	psraw  $0x8,%xmm0
  ac:	66 0f 71 e1 08       	psraw  $0x8,%xmm1
  b1:	66 0f 63 c1          	packsswb %xmm1,%xmm0
  b5:	66 0f fc c5          	paddb  %xmm5,%xmm0
  b9:	0f 13 02             	movlps %xmm0,(%rdx)
  bc:	0f 17 04 0a          	movhps %xmm0,(%rdx,%rcx,1)
  c0:	48 8d 52 08          	lea    0x8(%rdx),%rdx
  c4:	41 83 e8 10          	sub    $0x10,%r8d
  c8:	0f 8f 55 ff ff ff    	jg     23 <RGBAToUVRow_SSSE3+0x23>
  ce:	44 89 44 24 fc       	mov    %r8d,-0x4(%rsp)
  d3:	c3                   	retq   

Disassembly of section .text.I444ToARGBRow_SSSE3:

0000000000000000 <I444ToARGBRow_SSSE3>:
   0:	44 89 4c 24 fc       	mov    %r9d,-0x4(%rsp)
   5:	66 45 0f 6f 00       	movdqa (%r8),%xmm8
   a:	66 45 0f 6f 48 20    	movdqa 0x20(%r8),%xmm9
  10:	66 45 0f 6f 50 40    	movdqa 0x40(%r8),%xmm10
  16:	66 45 0f 6f 58 60    	movdqa 0x60(%r8),%xmm11
  1c:	66 45 0f 6f a0 80 00 	movdqa 0x80(%r8),%xmm12
  23:	00 00 
  25:	66 45 0f 6f a8 a0 00 	movdqa 0xa0(%r8),%xmm13
  2c:	00 00 
  2e:	66 45 0f 6f b0 c0 00 	movdqa 0xc0(%r8),%xmm14
  35:	00 00 
  37:	48 29 f2             	sub    %rsi,%rdx
  3a:	66 0f 74 ed          	pcmpeqb %xmm5,%xmm5
  3e:	f3 0f 7e 06          	movq   (%rsi),%xmm0
  42:	f3 0f 7e 0c 16       	movq   (%rsi,%rdx,1),%xmm1
  47:	48 8d 76 08          	lea    0x8(%rsi),%rsi
  4b:	66 0f 60 c1          	punpcklbw %xmm1,%xmm0
  4f:	f3 0f 7e 27          	movq   (%rdi),%xmm4
  53:	66 0f 60 e4          	punpcklbw %xmm4,%xmm4
  57:	48 8d 7f 08          	lea    0x8(%rdi),%rdi
  5b:	66 0f 6f c8          	movdqa %xmm0,%xmm1
  5f:	66 0f 6f d0          	movdqa %xmm0,%xmm2
  63:	66 0f 6f d8          	movdqa %xmm0,%xmm3
  67:	66 41 0f 6f c3       	movdqa %xmm11,%xmm0
  6c:	66 41 0f 38 04 c8    	pmaddubsw %xmm8,%xmm1
  72:	66 0f f9 c1          	psubw  %xmm1,%xmm0
  76:	66 41 0f 6f cc       	movdqa %xmm12,%xmm1
  7b:	66 41 0f 38 04 d1    	pmaddubsw %xmm9,%xmm2
  81:	66 0f f9 ca          	psubw  %xmm2,%xmm1
  85:	66 41 0f 6f d5       	movdqa %xmm13,%xmm2
  8a:	66 41 0f 38 04 da    	pmaddubsw %xmm10,%xmm3
  90:	66 0f f9 d3          	psubw  %xmm3,%xmm2
  94:	66 41 0f e4 e6       	pmulhuw %xmm14,%xmm4
  99:	66 0f ed c4          	paddsw %xmm4,%xmm0
  9d:	66 0f ed cc          	paddsw %xmm4,%xmm1
  a1:	66 0f ed d4          	paddsw %xmm4,%xmm2
  a5:	66 0f 71 e0 06       	psraw  $0x6,%xmm0
  aa:	66 0f 71 e1 06       	psraw  $0x6,%xmm1
  af:	66 0f 71 e2 06       	psraw  $0x6,%xmm2
  b4:	66 0f 67 c0          	packuswb %xmm0,%xmm0
  b8:	66 0f 67 c9          	packuswb %xmm1,%xmm1
  bc:	66 0f 67 d2          	packuswb %xmm2,%xmm2
  c0:	66 0f 60 c1          	punpcklbw %xmm1,%xmm0
  c4:	66 0f 60 d5          	punpcklbw %xmm5,%xmm2
  c8:	66 0f 6f c8          	movdqa %xmm0,%xmm1
  cc:	66 0f 61 c2          	punpcklwd %xmm2,%xmm0
  d0:	66 0f 69 ca          	punpckhwd %xmm2,%xmm1
  d4:	f3 0f 7f 01          	movdqu %xmm0,(%rcx)
  d8:	f3 0f 7f 49 10       	movdqu %xmm1,0x10(%rcx)
  dd:	48 8d 49 20          	lea    0x20(%rcx),%rcx
  e1:	41 83 e9 08          	sub    $0x8,%r9d
  e5:	0f 8f 53 ff ff ff    	jg     3e <I444ToARGBRow_SSSE3+0x3e>
  eb:	44 89 4c 24 fc       	mov    %r9d,-0x4(%rsp)
  f0:	c3                   	retq   

Disassembly of section .text.I422ToRGB24Row_SSSE3:

0000000000000000 <I422ToRGB24Row_SSSE3>:
   0:	44 89 4c 24 fc       	mov    %r9d,-0x4(%rsp)
   5:	66 45 0f 6f 00       	movdqa (%r8),%xmm8
   a:	66 45 0f 6f 48 20    	movdqa 0x20(%r8),%xmm9
  10:	66 45 0f 6f 50 40    	movdqa 0x40(%r8),%xmm10
  16:	66 45 0f 6f 58 60    	movdqa 0x60(%r8),%xmm11
  1c:	66 45 0f 6f a0 80 00 	movdqa 0x80(%r8),%xmm12
  23:	00 00 
  25:	66 45 0f 6f a8 a0 00 	movdqa 0xa0(%r8),%xmm13
  2c:	00 00 
  2e:	66 45 0f 6f b0 c0 00 	movdqa 0xc0(%r8),%xmm14
  35:	00 00 
  37:	66 0f 6f 2d 00 00 00 	movdqa 0x0(%rip),%xmm5        # 3f <I422ToRGB24Row_SSSE3+0x3f>
  3e:	00 
  3f:	66 0f 6f 35 00 00 00 	movdqa 0x0(%rip),%xmm6        # 47 <I422ToRGB24Row_SSSE3+0x47>
  46:	00 
  47:	48 29 f2             	sub    %rsi,%rdx
  4a:	66 0f 6e 06          	movd   (%rsi),%xmm0
  4e:	66 0f 6e 0c 16       	movd   (%rsi,%rdx,1),%xmm1
  53:	48 8d 76 04          	lea    0x4(%rsi),%rsi
  57:	66 0f 60 c1          	punpcklbw %xmm1,%xmm0
  5b:	66 0f 61 c0          	punpcklwd %xmm0,%xmm0
  5f:	f3 0f 7e 27          	movq   (%rdi),%xmm4
  63:	66 0f 60 e4          	punpcklbw %xmm4,%xmm4
  67:	48 8d 7f 08          	lea    0x8(%rdi),%rdi
  6b:	66 0f 6f c8          	movdqa %xmm0,%xmm1
  6f:	66 0f 6f d0          	movdqa %xmm0,%xmm2
  73:	66 0f 6f d8          	movdqa %xmm0,%xmm3
  77:	66 41 0f 6f c3       	movdqa %xmm11,%xmm0
  7c:	66 41 0f 38 04 c8    	pmaddubsw %xmm8,%xmm1
  82:	66 0f f9 c1          	psubw  %xmm1,%xmm0
  86:	66 41 0f 6f cc       	movdqa %xmm12,%xmm1
  8b:	66 41 0f 38 04 d1    	pmaddubsw %xmm9,%xmm2
  91:	66 0f f9 ca          	psubw  %xmm2,%xmm1
  95:	66 41 0f 6f d5       	movdqa %xmm13,%xmm2
  9a:	66 41 0f 38 04 da    	pmaddubsw %xmm10,%xmm3
  a0:	66 0f f9 d3          	psubw  %xmm3,%xmm2
  a4:	66 41 0f e4 e6       	pmulhuw %xmm14,%xmm4
  a9:	66 0f ed c4          	paddsw %xmm4,%xmm0
  ad:	66 0f ed cc          	paddsw %xmm4,%xmm1
  b1:	66 0f ed d4          	paddsw %xmm4,%xmm2
  b5:	66 0f 71 e0 06       	psraw  $0x6,%xmm0
  ba:	66 0f 71 e1 06       	psraw  $0x6,%xmm1
  bf:	66 0f 71 e2 06       	psraw  $0x6,%xmm2
  c4:	66 0f 67 c0          	packuswb %xmm0,%xmm0
  c8:	66 0f 67 c9          	packuswb %xmm1,%xmm1
  cc:	66 0f 67 d2          	packuswb %xmm2,%xmm2
  d0:	66 0f 60 c1          	punpcklbw %xmm1,%xmm0
  d4:	66 0f 60 d2          	punpcklbw %xmm2,%xmm2
  d8:	66 0f 6f c8          	movdqa %xmm0,%xmm1
  dc:	66 0f 61 c2          	punpcklwd %xmm2,%xmm0
  e0:	66 0f 69 ca          	punpckhwd %xmm2,%xmm1
  e4:	66 0f 38 00 c5       	pshufb %xmm5,%xmm0
  e9:	66 0f 38 00 ce       	pshufb %xmm6,%xmm1
  ee:	66 0f 3a 0f c8 0c    	palignr $0xc,%xmm0,%xmm1
  f4:	66 0f d6 01          	movq   %xmm0,(%rcx)
  f8:	f3 0f 7f 49 08       	movdqu %xmm1,0x8(%rcx)
  fd:	48 8d 49 18          	lea    0x18(%rcx),%rcx
 101:	41 83 e9 08          	sub    $0x8,%r9d
 105:	0f 8f 3f ff ff ff    	jg     4a <I422ToRGB24Row_SSSE3+0x4a>
 10b:	44 89 4c 24 fc       	mov    %r9d,-0x4(%rsp)
 110:	c3                   	retq   

Disassembly of section .text.I422ToARGBRow_SSSE3:

0000000000000000 <I422ToARGBRow_SSSE3>:
   0:	44 89 4c 24 fc       	mov    %r9d,-0x4(%rsp)
   5:	66 45 0f 6f 00       	movdqa (%r8),%xmm8
   a:	66 45 0f 6f 48 20    	movdqa 0x20(%r8),%xmm9
  10:	66 45 0f 6f 50 40    	movdqa 0x40(%r8),%xmm10
  16:	66 45 0f 6f 58 60    	movdqa 0x60(%r8),%xmm11
  1c:	66 45 0f 6f a0 80 00 	movdqa 0x80(%r8),%xmm12
  23:	00 00 
  25:	66 45 0f 6f a8 a0 00 	movdqa 0xa0(%r8),%xmm13
  2c:	00 00 
  2e:	66 45 0f 6f b0 c0 00 	movdqa 0xc0(%r8),%xmm14
  35:	00 00 
  37:	48 29 f2             	sub    %rsi,%rdx
  3a:	66 0f 74 ed          	pcmpeqb %xmm5,%xmm5
  3e:	66 0f 6e 06          	movd   (%rsi),%xmm0
  42:	66 0f 6e 0c 16       	movd   (%rsi,%rdx,1),%xmm1
  47:	48 8d 76 04          	lea    0x4(%rsi),%rsi
  4b:	66 0f 60 c1          	punpcklbw %xmm1,%xmm0
  4f:	66 0f 61 c0          	punpcklwd %xmm0,%xmm0
  53:	f3 0f 7e 27          	movq   (%rdi),%xmm4
  57:	66 0f 60 e4          	punpcklbw %xmm4,%xmm4
  5b:	48 8d 7f 08          	lea    0x8(%rdi),%rdi
  5f:	66 0f 6f c8          	movdqa %xmm0,%xmm1
  63:	66 0f 6f d0          	movdqa %xmm0,%xmm2
  67:	66 0f 6f d8          	movdqa %xmm0,%xmm3
  6b:	66 41 0f 6f c3       	movdqa %xmm11,%xmm0
  70:	66 41 0f 38 04 c8    	pmaddubsw %xmm8,%xmm1
  76:	66 0f f9 c1          	psubw  %xmm1,%xmm0
  7a:	66 41 0f 6f cc       	movdqa %xmm12,%xmm1
  7f:	66 41 0f 38 04 d1    	pmaddubsw %xmm9,%xmm2
  85:	66 0f f9 ca          	psubw  %xmm2,%xmm1
  89:	66 41 0f 6f d5       	movdqa %xmm13,%xmm2
  8e:	66 41 0f 38 04 da    	pmaddubsw %xmm10,%xmm3
  94:	66 0f f9 d3          	psubw  %xmm3,%xmm2
  98:	66 41 0f e4 e6       	pmulhuw %xmm14,%xmm4
  9d:	66 0f ed c4          	paddsw %xmm4,%xmm0
  a1:	66 0f ed cc          	paddsw %xmm4,%xmm1
  a5:	66 0f ed d4          	paddsw %xmm4,%xmm2
  a9:	66 0f 71 e0 06       	psraw  $0x6,%xmm0
  ae:	66 0f 71 e1 06       	psraw  $0x6,%xmm1
  b3:	66 0f 71 e2 06       	psraw  $0x6,%xmm2
  b8:	66 0f 67 c0          	packuswb %xmm0,%xmm0
  bc:	66 0f 67 c9          	packuswb %xmm1,%xmm1
  c0:	66 0f 67 d2          	packuswb %xmm2,%xmm2
  c4:	66 0f 60 c1          	punpcklbw %xmm1,%xmm0
  c8:	66 0f 60 d5          	punpcklbw %xmm5,%xmm2
  cc:	66 0f 6f c8          	movdqa %xmm0,%xmm1
  d0:	66 0f 61 c2          	punpcklwd %xmm2,%xmm0
  d4:	66 0f 69 ca          	punpckhwd %xmm2,%xmm1
  d8:	f3 0f 7f 01          	movdqu %xmm0,(%rcx)
  dc:	f3 0f 7f 49 10       	movdqu %xmm1,0x10(%rcx)
  e1:	48 8d 49 20          	lea    0x20(%rcx),%rcx
  e5:	41 83 e9 08          	sub    $0x8,%r9d
  e9:	0f 8f 4f ff ff ff    	jg     3e <I422ToARGBRow_SSSE3+0x3e>
  ef:	44 89 4c 24 fc       	mov    %r9d,-0x4(%rsp)
  f4:	c3                   	retq   

Disassembly of section .text.I422ToAR30Row_SSSE3:

0000000000000000 <I422ToAR30Row_SSSE3>:
   0:	44 89 4c 24 fc       	mov    %r9d,-0x4(%rsp)
   5:	66 45 0f 6f 00       	movdqa (%r8),%xmm8
   a:	66 45 0f 6f 48 20    	movdqa 0x20(%r8),%xmm9
  10:	66 45 0f 6f 50 40    	movdqa 0x40(%r8),%xmm10
  16:	66 45 0f 6f 58 60    	movdqa 0x60(%r8),%xmm11
  1c:	66 45 0f 6f a0 80 00 	movdqa 0x80(%r8),%xmm12
  23:	00 00 
  25:	66 45 0f 6f a8 a0 00 	movdqa 0xa0(%r8),%xmm13
  2c:	00 00 
  2e:	66 45 0f 6f b0 c0 00 	movdqa 0xc0(%r8),%xmm14
  35:	00 00 
  37:	48 29 f2             	sub    %rsi,%rdx
  3a:	66 0f 74 ed          	pcmpeqb %xmm5,%xmm5
  3e:	66 0f 71 d5 0e       	psrlw  $0xe,%xmm5
  43:	66 0f 71 f5 04       	psllw  $0x4,%xmm5
  48:	66 0f ef f6          	pxor   %xmm6,%xmm6
  4c:	66 0f 74 ff          	pcmpeqb %xmm7,%xmm7
  50:	66 0f 71 d7 06       	psrlw  $0x6,%xmm7
  55:	66 0f 6e 06          	movd   (%rsi),%xmm0
  59:	66 0f 6e 0c 16       	movd   (%rsi,%rdx,1),%xmm1
  5e:	48 8d 76 04          	lea    0x4(%rsi),%rsi
  62:	66 0f 60 c1          	punpcklbw %xmm1,%xmm0
  66:	66 0f 61 c0          	punpcklwd %xmm0,%xmm0
  6a:	f3 0f 7e 27          	movq   (%rdi),%xmm4
  6e:	66 0f 60 e4          	punpcklbw %xmm4,%xmm4
  72:	48 8d 7f 08          	lea    0x8(%rdi),%rdi
  76:	66 0f 6f c8          	movdqa %xmm0,%xmm1
  7a:	66 0f 6f d0          	movdqa %xmm0,%xmm2
  7e:	66 0f 6f d8          	movdqa %xmm0,%xmm3
  82:	66 41 0f 6f c3       	movdqa %xmm11,%xmm0
  87:	66 41 0f 38 04 c8    	pmaddubsw %xmm8,%xmm1
  8d:	66 0f f9 c1          	psubw  %xmm1,%xmm0
  91:	66 41 0f 6f cc       	movdqa %xmm12,%xmm1
  96:	66 41 0f 38 04 d1    	pmaddubsw %xmm9,%xmm2
  9c:	66 0f f9 ca          	psubw  %xmm2,%xmm1
  a0:	66 41 0f 6f d5       	movdqa %xmm13,%xmm2
  a5:	66 41 0f 38 04 da    	pmaddubsw %xmm10,%xmm3
  ab:	66 0f f9 d3          	psubw  %xmm3,%xmm2
  af:	66 41 0f e4 e6       	pmulhuw %xmm14,%xmm4
  b4:	66 0f ed c4          	paddsw %xmm4,%xmm0
  b8:	66 0f ed cc          	paddsw %xmm4,%xmm1
  bc:	66 0f ed d4          	paddsw %xmm4,%xmm2
  c0:	66 0f 71 e0 04       	psraw  $0x4,%xmm0
  c5:	66 0f 71 e1 04       	psraw  $0x4,%xmm1
  ca:	66 0f 71 e2 04       	psraw  $0x4,%xmm2
  cf:	66 0f ea c7          	pminsw %xmm7,%xmm0
  d3:	66 0f ea cf          	pminsw %xmm7,%xmm1
  d7:	66 0f ea d7          	pminsw %xmm7,%xmm2
  db:	66 0f ee c6          	pmaxsw %xmm6,%xmm0
  df:	66 0f ee ce          	pmaxsw %xmm6,%xmm1
  e3:	66 0f ee d6          	pmaxsw %xmm6,%xmm2
  e7:	66 0f 71 f2 04       	psllw  $0x4,%xmm2
  ec:	66 0f 6f d8          	movdqa %xmm0,%xmm3
  f0:	66 0f 61 c2          	punpcklwd %xmm2,%xmm0
  f4:	66 0f 69 da          	punpckhwd %xmm2,%xmm3
  f8:	66 0f 6f d1          	movdqa %xmm1,%xmm2
  fc:	66 0f 61 cd          	punpcklwd %xmm5,%xmm1
 100:	66 0f 69 d5          	punpckhwd %xmm5,%xmm2
 104:	66 0f 72 f1 0a       	pslld  $0xa,%xmm1
 109:	66 0f 72 f2 0a       	pslld  $0xa,%xmm2
 10e:	66 0f eb c1          	por    %xmm1,%xmm0
 112:	66 0f eb da          	por    %xmm2,%xmm3
 116:	f3 0f 7f 01          	movdqu %xmm0,(%rcx)
 11a:	f3 0f 7f 59 10       	movdqu %xmm3,0x10(%rcx)
 11f:	48 8d 49 20          	lea    0x20(%rcx),%rcx
 123:	41 83 e9 08          	sub    $0x8,%r9d
 127:	0f 8f 28 ff ff ff    	jg     55 <I422ToAR30Row_SSSE3+0x55>
 12d:	44 89 4c 24 fc       	mov    %r9d,-0x4(%rsp)
 132:	c3                   	retq   

Disassembly of section .text.I210ToARGBRow_SSSE3:

0000000000000000 <I210ToARGBRow_SSSE3>:
   0:	44 89 4c 24 fc       	mov    %r9d,-0x4(%rsp)
   5:	66 45 0f 6f 00       	movdqa (%r8),%xmm8
   a:	66 45 0f 6f 48 20    	movdqa 0x20(%r8),%xmm9
  10:	66 45 0f 6f 50 40    	movdqa 0x40(%r8),%xmm10
  16:	66 45 0f 6f 58 60    	movdqa 0x60(%r8),%xmm11
  1c:	66 45 0f 6f a0 80 00 	movdqa 0x80(%r8),%xmm12
  23:	00 00 
  25:	66 45 0f 6f a8 a0 00 	movdqa 0xa0(%r8),%xmm13
  2c:	00 00 
  2e:	66 45 0f 6f b0 c0 00 	movdqa 0xc0(%r8),%xmm14
  35:	00 00 
  37:	48 29 f2             	sub    %rsi,%rdx
  3a:	66 0f 74 ed          	pcmpeqb %xmm5,%xmm5
  3e:	f3 0f 7e 06          	movq   (%rsi),%xmm0
  42:	f3 0f 7e 0c 16       	movq   (%rsi,%rdx,1),%xmm1
  47:	48 8d 76 08          	lea    0x8(%rsi),%rsi
  4b:	66 0f 61 c1          	punpcklwd %xmm1,%xmm0
  4f:	66 0f 71 e0 02       	psraw  $0x2,%xmm0
  54:	66 0f 67 c0          	packuswb %xmm0,%xmm0
  58:	66 0f 61 c0          	punpcklwd %xmm0,%xmm0
  5c:	f3 0f 6f 27          	movdqu (%rdi),%xmm4
  60:	66 0f 71 f4 06       	psllw  $0x6,%xmm4
  65:	48 8d 7f 10          	lea    0x10(%rdi),%rdi
  69:	66 0f 6f c8          	movdqa %xmm0,%xmm1
  6d:	66 0f 6f d0          	movdqa %xmm0,%xmm2
  71:	66 0f 6f d8          	movdqa %xmm0,%xmm3
  75:	66 41 0f 6f c3       	movdqa %xmm11,%xmm0
  7a:	66 41 0f 38 04 c8    	pmaddubsw %xmm8,%xmm1
  80:	66 0f f9 c1          	psubw  %xmm1,%xmm0
  84:	66 41 0f 6f cc       	movdqa %xmm12,%xmm1
  89:	66 41 0f 38 04 d1    	pmaddubsw %xmm9,%xmm2
  8f:	66 0f f9 ca          	psubw  %xmm2,%xmm1
  93:	66 41 0f 6f d5       	movdqa %xmm13,%xmm2
  98:	66 41 0f 38 04 da    	pmaddubsw %xmm10,%xmm3
  9e:	66 0f f9 d3          	psubw  %xmm3,%xmm2
  a2:	66 41 0f e4 e6       	pmulhuw %xmm14,%xmm4
  a7:	66 0f ed c4          	paddsw %xmm4,%xmm0
  ab:	66 0f ed cc          	paddsw %xmm4,%xmm1
  af:	66 0f ed d4          	paddsw %xmm4,%xmm2
  b3:	66 0f 71 e0 06       	psraw  $0x6,%xmm0
  b8:	66 0f 71 e1 06       	psraw  $0x6,%xmm1
  bd:	66 0f 71 e2 06       	psraw  $0x6,%xmm2
  c2:	66 0f 67 c0          	packuswb %xmm0,%xmm0
  c6:	66 0f 67 c9          	packuswb %xmm1,%xmm1
  ca:	66 0f 67 d2          	packuswb %xmm2,%xmm2
  ce:	66 0f 60 c1          	punpcklbw %xmm1,%xmm0
  d2:	66 0f 60 d5          	punpcklbw %xmm5,%xmm2
  d6:	66 0f 6f c8          	movdqa %xmm0,%xmm1
  da:	66 0f 61 c2          	punpcklwd %xmm2,%xmm0
  de:	66 0f 69 ca          	punpckhwd %xmm2,%xmm1
  e2:	f3 0f 7f 01          	movdqu %xmm0,(%rcx)
  e6:	f3 0f 7f 49 10       	movdqu %xmm1,0x10(%rcx)
  eb:	48 8d 49 20          	lea    0x20(%rcx),%rcx
  ef:	41 83 e9 08          	sub    $0x8,%r9d
  f3:	0f 8f 45 ff ff ff    	jg     3e <I210ToARGBRow_SSSE3+0x3e>
  f9:	44 89 4c 24 fc       	mov    %r9d,-0x4(%rsp)
  fe:	c3                   	retq   

Disassembly of section .text.I210ToAR30Row_SSSE3:

0000000000000000 <I210ToAR30Row_SSSE3>:
   0:	44 89 4c 24 fc       	mov    %r9d,-0x4(%rsp)
   5:	66 45 0f 6f 00       	movdqa (%r8),%xmm8
   a:	66 45 0f 6f 48 20    	movdqa 0x20(%r8),%xmm9
  10:	66 45 0f 6f 50 40    	movdqa 0x40(%r8),%xmm10
  16:	66 45 0f 6f 58 60    	movdqa 0x60(%r8),%xmm11
  1c:	66 45 0f 6f a0 80 00 	movdqa 0x80(%r8),%xmm12
  23:	00 00 
  25:	66 45 0f 6f a8 a0 00 	movdqa 0xa0(%r8),%xmm13
  2c:	00 00 
  2e:	66 45 0f 6f b0 c0 00 	movdqa 0xc0(%r8),%xmm14
  35:	00 00 
  37:	48 29 f2             	sub    %rsi,%rdx
  3a:	66 0f 74 ed          	pcmpeqb %xmm5,%xmm5
  3e:	66 0f 71 d5 0e       	psrlw  $0xe,%xmm5
  43:	66 0f 71 f5 04       	psllw  $0x4,%xmm5
  48:	66 0f ef f6          	pxor   %xmm6,%xmm6
  4c:	66 0f 74 ff          	pcmpeqb %xmm7,%xmm7
  50:	66 0f 71 d7 06       	psrlw  $0x6,%xmm7
  55:	f3 0f 7e 06          	movq   (%rsi),%xmm0
  59:	f3 0f 7e 0c 16       	movq   (%rsi,%rdx,1),%xmm1
  5e:	48 8d 76 08          	lea    0x8(%rsi),%rsi
  62:	66 0f 61 c1          	punpcklwd %xmm1,%xmm0
  66:	66 0f 71 e0 02       	psraw  $0x2,%xmm0
  6b:	66 0f 67 c0          	packuswb %xmm0,%xmm0
  6f:	66 0f 61 c0          	punpcklwd %xmm0,%xmm0
  73:	f3 0f 6f 27          	movdqu (%rdi),%xmm4
  77:	66 0f 71 f4 06       	psllw  $0x6,%xmm4
  7c:	48 8d 7f 10          	lea    0x10(%rdi),%rdi
  80:	66 0f 6f c8          	movdqa %xmm0,%xmm1
  84:	66 0f 6f d0          	movdqa %xmm0,%xmm2
  88:	66 0f 6f d8          	movdqa %xmm0,%xmm3
  8c:	66 41 0f 6f c3       	movdqa %xmm11,%xmm0
  91:	66 41 0f 38 04 c8    	pmaddubsw %xmm8,%xmm1
  97:	66 0f f9 c1          	psubw  %xmm1,%xmm0
  9b:	66 41 0f 6f cc       	movdqa %xmm12,%xmm1
  a0:	66 41 0f 38 04 d1    	pmaddubsw %xmm9,%xmm2
  a6:	66 0f f9 ca          	psubw  %xmm2,%xmm1
  aa:	66 41 0f 6f d5       	movdqa %xmm13,%xmm2
  af:	66 41 0f 38 04 da    	pmaddubsw %xmm10,%xmm3
  b5:	66 0f f9 d3          	psubw  %xmm3,%xmm2
  b9:	66 41 0f e4 e6       	pmulhuw %xmm14,%xmm4
  be:	66 0f ed c4          	paddsw %xmm4,%xmm0
  c2:	66 0f ed cc          	paddsw %xmm4,%xmm1
  c6:	66 0f ed d4          	paddsw %xmm4,%xmm2
  ca:	66 0f 71 e0 04       	psraw  $0x4,%xmm0
  cf:	66 0f 71 e1 04       	psraw  $0x4,%xmm1
  d4:	66 0f 71 e2 04       	psraw  $0x4,%xmm2
  d9:	66 0f ea c7          	pminsw %xmm7,%xmm0
  dd:	66 0f ea cf          	pminsw %xmm7,%xmm1
  e1:	66 0f ea d7          	pminsw %xmm7,%xmm2
  e5:	66 0f ee c6          	pmaxsw %xmm6,%xmm0
  e9:	66 0f ee ce          	pmaxsw %xmm6,%xmm1
  ed:	66 0f ee d6          	pmaxsw %xmm6,%xmm2
  f1:	66 0f 71 f2 04       	psllw  $0x4,%xmm2
  f6:	66 0f 6f d8          	movdqa %xmm0,%xmm3
  fa:	66 0f 61 c2          	punpcklwd %xmm2,%xmm0
  fe:	66 0f 69 da          	punpckhwd %xmm2,%xmm3
 102:	66 0f 6f d1          	movdqa %xmm1,%xmm2
 106:	66 0f 61 cd          	punpcklwd %xmm5,%xmm1
 10a:	66 0f 69 d5          	punpckhwd %xmm5,%xmm2
 10e:	66 0f 72 f1 0a       	pslld  $0xa,%xmm1
 113:	66 0f 72 f2 0a       	pslld  $0xa,%xmm2
 118:	66 0f eb c1          	por    %xmm1,%xmm0
 11c:	66 0f eb da          	por    %xmm2,%xmm3
 120:	f3 0f 7f 01          	movdqu %xmm0,(%rcx)
 124:	f3 0f 7f 59 10       	movdqu %xmm3,0x10(%rcx)
 129:	48 8d 49 20          	lea    0x20(%rcx),%rcx
 12d:	41 83 e9 08          	sub    $0x8,%r9d
 131:	0f 8f 1e ff ff ff    	jg     55 <I210ToAR30Row_SSSE3+0x55>
 137:	44 89 4c 24 fc       	mov    %r9d,-0x4(%rsp)
 13c:	c3                   	retq   

Disassembly of section .text.I422AlphaToARGBRow_SSSE3:

0000000000000000 <I422AlphaToARGBRow_SSSE3>:
   0:	8b 44 24 08          	mov    0x8(%rsp),%eax
   4:	66 45 0f 6f 01       	movdqa (%r9),%xmm8
   9:	66 45 0f 6f 49 20    	movdqa 0x20(%r9),%xmm9
   f:	66 45 0f 6f 51 40    	movdqa 0x40(%r9),%xmm10
  15:	66 45 0f 6f 59 60    	movdqa 0x60(%r9),%xmm11
  1b:	66 45 0f 6f a1 80 00 	movdqa 0x80(%r9),%xmm12
  22:	00 00 
  24:	66 45 0f 6f a9 a0 00 	movdqa 0xa0(%r9),%xmm13
  2b:	00 00 
  2d:	66 45 0f 6f b1 c0 00 	movdqa 0xc0(%r9),%xmm14
  34:	00 00 
  36:	48 29 f2             	sub    %rsi,%rdx
  39:	66 0f 6e 06          	movd   (%rsi),%xmm0
  3d:	66 0f 6e 0c 16       	movd   (%rsi,%rdx,1),%xmm1
  42:	48 8d 76 04          	lea    0x4(%rsi),%rsi
  46:	66 0f 60 c1          	punpcklbw %xmm1,%xmm0
  4a:	66 0f 61 c0          	punpcklwd %xmm0,%xmm0
  4e:	f3 0f 7e 27          	movq   (%rdi),%xmm4
  52:	66 0f 60 e4          	punpcklbw %xmm4,%xmm4
  56:	48 8d 7f 08          	lea    0x8(%rdi),%rdi
  5a:	f3 0f 7e 29          	movq   (%rcx),%xmm5
  5e:	48 8d 49 08          	lea    0x8(%rcx),%rcx
  62:	66 0f 6f c8          	movdqa %xmm0,%xmm1
  66:	66 0f 6f d0          	movdqa %xmm0,%xmm2
  6a:	66 0f 6f d8          	movdqa %xmm0,%xmm3
  6e:	66 41 0f 6f c3       	movdqa %xmm11,%xmm0
  73:	66 41 0f 38 04 c8    	pmaddubsw %xmm8,%xmm1
  79:	66 0f f9 c1          	psubw  %xmm1,%xmm0
  7d:	66 41 0f 6f cc       	movdqa %xmm12,%xmm1
  82:	66 41 0f 38 04 d1    	pmaddubsw %xmm9,%xmm2
  88:	66 0f f9 ca          	psubw  %xmm2,%xmm1
  8c:	66 41 0f 6f d5       	movdqa %xmm13,%xmm2
  91:	66 41 0f 38 04 da    	pmaddubsw %xmm10,%xmm3
  97:	66 0f f9 d3          	psubw  %xmm3,%xmm2
  9b:	66 41 0f e4 e6       	pmulhuw %xmm14,%xmm4
  a0:	66 0f ed c4          	paddsw %xmm4,%xmm0
  a4:	66 0f ed cc          	paddsw %xmm4,%xmm1
  a8:	66 0f ed d4          	paddsw %xmm4,%xmm2
  ac:	66 0f 71 e0 06       	psraw  $0x6,%xmm0
  b1:	66 0f 71 e1 06       	psraw  $0x6,%xmm1
  b6:	66 0f 71 e2 06       	psraw  $0x6,%xmm2
  bb:	66 0f 67 c0          	packuswb %xmm0,%xmm0
  bf:	66 0f 67 c9          	packuswb %xmm1,%xmm1
  c3:	66 0f 67 d2          	packuswb %xmm2,%xmm2
  c7:	66 0f 60 c1          	punpcklbw %xmm1,%xmm0
  cb:	66 0f 60 d5          	punpcklbw %xmm5,%xmm2
  cf:	66 0f 6f c8          	movdqa %xmm0,%xmm1
  d3:	66 0f 61 c2          	punpcklwd %xmm2,%xmm0
  d7:	66 0f 69 ca          	punpckhwd %xmm2,%xmm1
  db:	f3 41 0f 7f 00       	movdqu %xmm0,(%r8)
  e0:	f3 41 0f 7f 48 10    	movdqu %xmm1,0x10(%r8)
  e6:	4d 8d 40 20          	lea    0x20(%r8),%r8
  ea:	83 e8 08             	sub    $0x8,%eax
  ed:	0f 8f 46 ff ff ff    	jg     39 <I422AlphaToARGBRow_SSSE3+0x39>
  f3:	89 44 24 08          	mov    %eax,0x8(%rsp)
  f7:	c3                   	retq   

Disassembly of section .text.NV12ToARGBRow_SSSE3:

0000000000000000 <NV12ToARGBRow_SSSE3>:
   0:	44 89 44 24 fc       	mov    %r8d,-0x4(%rsp)
   5:	66 44 0f 6f 01       	movdqa (%rcx),%xmm8
   a:	66 44 0f 6f 49 20    	movdqa 0x20(%rcx),%xmm9
  10:	66 44 0f 6f 51 40    	movdqa 0x40(%rcx),%xmm10
  16:	66 44 0f 6f 59 60    	movdqa 0x60(%rcx),%xmm11
  1c:	66 44 0f 6f a1 80 00 	movdqa 0x80(%rcx),%xmm12
  23:	00 00 
  25:	66 44 0f 6f a9 a0 00 	movdqa 0xa0(%rcx),%xmm13
  2c:	00 00 
  2e:	66 44 0f 6f b1 c0 00 	movdqa 0xc0(%rcx),%xmm14
  35:	00 00 
  37:	66 0f 74 ed          	pcmpeqb %xmm5,%xmm5
  3b:	f3 0f 7e 06          	movq   (%rsi),%xmm0
  3f:	48 8d 76 08          	lea    0x8(%rsi),%rsi
  43:	66 0f 61 c0          	punpcklwd %xmm0,%xmm0
  47:	f3 0f 7e 27          	movq   (%rdi),%xmm4
  4b:	66 0f 60 e4          	punpcklbw %xmm4,%xmm4
  4f:	48 8d 7f 08          	lea    0x8(%rdi),%rdi
  53:	66 0f 6f c8          	movdqa %xmm0,%xmm1
  57:	66 0f 6f d0          	movdqa %xmm0,%xmm2
  5b:	66 0f 6f d8          	movdqa %xmm0,%xmm3
  5f:	66 41 0f 6f c3       	movdqa %xmm11,%xmm0
  64:	66 41 0f 38 04 c8    	pmaddubsw %xmm8,%xmm1
  6a:	66 0f f9 c1          	psubw  %xmm1,%xmm0
  6e:	66 41 0f 6f cc       	movdqa %xmm12,%xmm1
  73:	66 41 0f 38 04 d1    	pmaddubsw %xmm9,%xmm2
  79:	66 0f f9 ca          	psubw  %xmm2,%xmm1
  7d:	66 41 0f 6f d5       	movdqa %xmm13,%xmm2
  82:	66 41 0f 38 04 da    	pmaddubsw %xmm10,%xmm3
  88:	66 0f f9 d3          	psubw  %xmm3,%xmm2
  8c:	66 41 0f e4 e6       	pmulhuw %xmm14,%xmm4
  91:	66 0f ed c4          	paddsw %xmm4,%xmm0
  95:	66 0f ed cc          	paddsw %xmm4,%xmm1
  99:	66 0f ed d4          	paddsw %xmm4,%xmm2
  9d:	66 0f 71 e0 06       	psraw  $0x6,%xmm0
  a2:	66 0f 71 e1 06       	psraw  $0x6,%xmm1
  a7:	66 0f 71 e2 06       	psraw  $0x6,%xmm2
  ac:	66 0f 67 c0          	packuswb %xmm0,%xmm0
  b0:	66 0f 67 c9          	packuswb %xmm1,%xmm1
  b4:	66 0f 67 d2          	packuswb %xmm2,%xmm2
  b8:	66 0f 60 c1          	punpcklbw %xmm1,%xmm0
  bc:	66 0f 60 d5          	punpcklbw %xmm5,%xmm2
  c0:	66 0f 6f c8          	movdqa %xmm0,%xmm1
  c4:	66 0f 61 c2          	punpcklwd %xmm2,%xmm0
  c8:	66 0f 69 ca          	punpckhwd %xmm2,%xmm1
  cc:	f3 0f 7f 02          	movdqu %xmm0,(%rdx)
  d0:	f3 0f 7f 4a 10       	movdqu %xmm1,0x10(%rdx)
  d5:	48 8d 52 20          	lea    0x20(%rdx),%rdx
  d9:	41 83 e8 08          	sub    $0x8,%r8d
  dd:	0f 8f 58 ff ff ff    	jg     3b <NV12ToARGBRow_SSSE3+0x3b>
  e3:	44 89 44 24 fc       	mov    %r8d,-0x4(%rsp)
  e8:	c3                   	retq   

Disassembly of section .text.NV21ToARGBRow_SSSE3:

0000000000000000 <NV21ToARGBRow_SSSE3>:
   0:	44 89 44 24 fc       	mov    %r8d,-0x4(%rsp)
   5:	66 44 0f 6f 01       	movdqa (%rcx),%xmm8
   a:	66 44 0f 6f 49 20    	movdqa 0x20(%rcx),%xmm9
  10:	66 44 0f 6f 51 40    	movdqa 0x40(%rcx),%xmm10
  16:	66 44 0f 6f 59 60    	movdqa 0x60(%rcx),%xmm11
  1c:	66 44 0f 6f a1 80 00 	movdqa 0x80(%rcx),%xmm12
  23:	00 00 
  25:	66 44 0f 6f a9 a0 00 	movdqa 0xa0(%rcx),%xmm13
  2c:	00 00 
  2e:	66 44 0f 6f b1 c0 00 	movdqa 0xc0(%rcx),%xmm14
  35:	00 00 
  37:	66 0f 74 ed          	pcmpeqb %xmm5,%xmm5
  3b:	f3 0f 7e 06          	movq   (%rsi),%xmm0
  3f:	48 8d 76 08          	lea    0x8(%rsi),%rsi
  43:	66 0f 38 00 05 00 00 	pshufb 0x0(%rip),%xmm0        # 4c <NV21ToARGBRow_SSSE3+0x4c>
  4a:	00 00 
  4c:	f3 0f 7e 27          	movq   (%rdi),%xmm4
  50:	66 0f 60 e4          	punpcklbw %xmm4,%xmm4
  54:	48 8d 7f 08          	lea    0x8(%rdi),%rdi
  58:	66 0f 6f c8          	movdqa %xmm0,%xmm1
  5c:	66 0f 6f d0          	movdqa %xmm0,%xmm2
  60:	66 0f 6f d8          	movdqa %xmm0,%xmm3
  64:	66 41 0f 6f c3       	movdqa %xmm11,%xmm0
  69:	66 41 0f 38 04 c8    	pmaddubsw %xmm8,%xmm1
  6f:	66 0f f9 c1          	psubw  %xmm1,%xmm0
  73:	66 41 0f 6f cc       	movdqa %xmm12,%xmm1
  78:	66 41 0f 38 04 d1    	pmaddubsw %xmm9,%xmm2
  7e:	66 0f f9 ca          	psubw  %xmm2,%xmm1
  82:	66 41 0f 6f d5       	movdqa %xmm13,%xmm2
  87:	66 41 0f 38 04 da    	pmaddubsw %xmm10,%xmm3
  8d:	66 0f f9 d3          	psubw  %xmm3,%xmm2
  91:	66 41 0f e4 e6       	pmulhuw %xmm14,%xmm4
  96:	66 0f ed c4          	paddsw %xmm4,%xmm0
  9a:	66 0f ed cc          	paddsw %xmm4,%xmm1
  9e:	66 0f ed d4          	paddsw %xmm4,%xmm2
  a2:	66 0f 71 e0 06       	psraw  $0x6,%xmm0
  a7:	66 0f 71 e1 06       	psraw  $0x6,%xmm1
  ac:	66 0f 71 e2 06       	psraw  $0x6,%xmm2
  b1:	66 0f 67 c0          	packuswb %xmm0,%xmm0
  b5:	66 0f 67 c9          	packuswb %xmm1,%xmm1
  b9:	66 0f 67 d2          	packuswb %xmm2,%xmm2
  bd:	66 0f 60 c1          	punpcklbw %xmm1,%xmm0
  c1:	66 0f 60 d5          	punpcklbw %xmm5,%xmm2
  c5:	66 0f 6f c8          	movdqa %xmm0,%xmm1
  c9:	66 0f 61 c2          	punpcklwd %xmm2,%xmm0
  cd:	66 0f 69 ca          	punpckhwd %xmm2,%xmm1
  d1:	f3 0f 7f 02          	movdqu %xmm0,(%rdx)
  d5:	f3 0f 7f 4a 10       	movdqu %xmm1,0x10(%rdx)
  da:	48 8d 52 20          	lea    0x20(%rdx),%rdx
  de:	41 83 e8 08          	sub    $0x8,%r8d
  e2:	0f 8f 53 ff ff ff    	jg     3b <NV21ToARGBRow_SSSE3+0x3b>
  e8:	44 89 44 24 fc       	mov    %r8d,-0x4(%rsp)
  ed:	c3                   	retq   

Disassembly of section .text.YUY2ToARGBRow_SSSE3:

0000000000000000 <YUY2ToARGBRow_SSSE3>:
   0:	89 4c 24 fc          	mov    %ecx,-0x4(%rsp)
   4:	66 44 0f 6f 02       	movdqa (%rdx),%xmm8
   9:	66 44 0f 6f 4a 20    	movdqa 0x20(%rdx),%xmm9
   f:	66 44 0f 6f 52 40    	movdqa 0x40(%rdx),%xmm10
  15:	66 44 0f 6f 5a 60    	movdqa 0x60(%rdx),%xmm11
  1b:	66 44 0f 6f a2 80 00 	movdqa 0x80(%rdx),%xmm12
  22:	00 00 
  24:	66 44 0f 6f aa a0 00 	movdqa 0xa0(%rdx),%xmm13
  2b:	00 00 
  2d:	66 44 0f 6f b2 c0 00 	movdqa 0xc0(%rdx),%xmm14
  34:	00 00 
  36:	66 0f 74 ed          	pcmpeqb %xmm5,%xmm5
  3a:	f3 0f 6f 27          	movdqu (%rdi),%xmm4
  3e:	66 0f 38 00 25 00 00 	pshufb 0x0(%rip),%xmm4        # 47 <YUY2ToARGBRow_SSSE3+0x47>
  45:	00 00 
  47:	f3 0f 6f 07          	movdqu (%rdi),%xmm0
  4b:	66 0f 38 00 05 00 00 	pshufb 0x0(%rip),%xmm0        # 54 <YUY2ToARGBRow_SSSE3+0x54>
  52:	00 00 
  54:	48 8d 7f 10          	lea    0x10(%rdi),%rdi
  58:	66 0f 6f c8          	movdqa %xmm0,%xmm1
  5c:	66 0f 6f d0          	movdqa %xmm0,%xmm2
  60:	66 0f 6f d8          	movdqa %xmm0,%xmm3
  64:	66 41 0f 6f c3       	movdqa %xmm11,%xmm0
  69:	66 41 0f 38 04 c8    	pmaddubsw %xmm8,%xmm1
  6f:	66 0f f9 c1          	psubw  %xmm1,%xmm0
  73:	66 41 0f 6f cc       	movdqa %xmm12,%xmm1
  78:	66 41 0f 38 04 d1    	pmaddubsw %xmm9,%xmm2
  7e:	66 0f f9 ca          	psubw  %xmm2,%xmm1
  82:	66 41 0f 6f d5       	movdqa %xmm13,%xmm2
  87:	66 41 0f 38 04 da    	pmaddubsw %xmm10,%xmm3
  8d:	66 0f f9 d3          	psubw  %xmm3,%xmm2
  91:	66 41 0f e4 e6       	pmulhuw %xmm14,%xmm4
  96:	66 0f ed c4          	paddsw %xmm4,%xmm0
  9a:	66 0f ed cc          	paddsw %xmm4,%xmm1
  9e:	66 0f ed d4          	paddsw %xmm4,%xmm2
  a2:	66 0f 71 e0 06       	psraw  $0x6,%xmm0
  a7:	66 0f 71 e1 06       	psraw  $0x6,%xmm1
  ac:	66 0f 71 e2 06       	psraw  $0x6,%xmm2
  b1:	66 0f 67 c0          	packuswb %xmm0,%xmm0
  b5:	66 0f 67 c9          	packuswb %xmm1,%xmm1
  b9:	66 0f 67 d2          	packuswb %xmm2,%xmm2
  bd:	66 0f 60 c1          	punpcklbw %xmm1,%xmm0
  c1:	66 0f 60 d5          	punpcklbw %xmm5,%xmm2
  c5:	66 0f 6f c8          	movdqa %xmm0,%xmm1
  c9:	66 0f 61 c2          	punpcklwd %xmm2,%xmm0
  cd:	66 0f 69 ca          	punpckhwd %xmm2,%xmm1
  d1:	f3 0f 7f 06          	movdqu %xmm0,(%rsi)
  d5:	f3 0f 7f 4e 10       	movdqu %xmm1,0x10(%rsi)
  da:	48 8d 76 20          	lea    0x20(%rsi),%rsi
  de:	83 e9 08             	sub    $0x8,%ecx
  e1:	0f 8f 53 ff ff ff    	jg     3a <YUY2ToARGBRow_SSSE3+0x3a>
  e7:	89 4c 24 fc          	mov    %ecx,-0x4(%rsp)
  eb:	c3                   	retq   

Disassembly of section .text.UYVYToARGBRow_SSSE3:

0000000000000000 <UYVYToARGBRow_SSSE3>:
   0:	89 4c 24 fc          	mov    %ecx,-0x4(%rsp)
   4:	66 44 0f 6f 02       	movdqa (%rdx),%xmm8
   9:	66 44 0f 6f 4a 20    	movdqa 0x20(%rdx),%xmm9
   f:	66 44 0f 6f 52 40    	movdqa 0x40(%rdx),%xmm10
  15:	66 44 0f 6f 5a 60    	movdqa 0x60(%rdx),%xmm11
  1b:	66 44 0f 6f a2 80 00 	movdqa 0x80(%rdx),%xmm12
  22:	00 00 
  24:	66 44 0f 6f aa a0 00 	movdqa 0xa0(%rdx),%xmm13
  2b:	00 00 
  2d:	66 44 0f 6f b2 c0 00 	movdqa 0xc0(%rdx),%xmm14
  34:	00 00 
  36:	66 0f 74 ed          	pcmpeqb %xmm5,%xmm5
  3a:	f3 0f 6f 27          	movdqu (%rdi),%xmm4
  3e:	66 0f 38 00 25 00 00 	pshufb 0x0(%rip),%xmm4        # 47 <UYVYToARGBRow_SSSE3+0x47>
  45:	00 00 
  47:	f3 0f 6f 07          	movdqu (%rdi),%xmm0
  4b:	66 0f 38 00 05 00 00 	pshufb 0x0(%rip),%xmm0        # 54 <UYVYToARGBRow_SSSE3+0x54>
  52:	00 00 
  54:	48 8d 7f 10          	lea    0x10(%rdi),%rdi
  58:	66 0f 6f c8          	movdqa %xmm0,%xmm1
  5c:	66 0f 6f d0          	movdqa %xmm0,%xmm2
  60:	66 0f 6f d8          	movdqa %xmm0,%xmm3
  64:	66 41 0f 6f c3       	movdqa %xmm11,%xmm0
  69:	66 41 0f 38 04 c8    	pmaddubsw %xmm8,%xmm1
  6f:	66 0f f9 c1          	psubw  %xmm1,%xmm0
  73:	66 41 0f 6f cc       	movdqa %xmm12,%xmm1
  78:	66 41 0f 38 04 d1    	pmaddubsw %xmm9,%xmm2
  7e:	66 0f f9 ca          	psubw  %xmm2,%xmm1
  82:	66 41 0f 6f d5       	movdqa %xmm13,%xmm2
  87:	66 41 0f 38 04 da    	pmaddubsw %xmm10,%xmm3
  8d:	66 0f f9 d3          	psubw  %xmm3,%xmm2
  91:	66 41 0f e4 e6       	pmulhuw %xmm14,%xmm4
  96:	66 0f ed c4          	paddsw %xmm4,%xmm0
  9a:	66 0f ed cc          	paddsw %xmm4,%xmm1
  9e:	66 0f ed d4          	paddsw %xmm4,%xmm2
  a2:	66 0f 71 e0 06       	psraw  $0x6,%xmm0
  a7:	66 0f 71 e1 06       	psraw  $0x6,%xmm1
  ac:	66 0f 71 e2 06       	psraw  $0x6,%xmm2
  b1:	66 0f 67 c0          	packuswb %xmm0,%xmm0
  b5:	66 0f 67 c9          	packuswb %xmm1,%xmm1
  b9:	66 0f 67 d2          	packuswb %xmm2,%xmm2
  bd:	66 0f 60 c1          	punpcklbw %xmm1,%xmm0
  c1:	66 0f 60 d5          	punpcklbw %xmm5,%xmm2
  c5:	66 0f 6f c8          	movdqa %xmm0,%xmm1
  c9:	66 0f 61 c2          	punpcklwd %xmm2,%xmm0
  cd:	66 0f 69 ca          	punpckhwd %xmm2,%xmm1
  d1:	f3 0f 7f 06          	movdqu %xmm0,(%rsi)
  d5:	f3 0f 7f 4e 10       	movdqu %xmm1,0x10(%rsi)
  da:	48 8d 76 20          	lea    0x20(%rsi),%rsi
  de:	83 e9 08             	sub    $0x8,%ecx
  e1:	0f 8f 53 ff ff ff    	jg     3a <UYVYToARGBRow_SSSE3+0x3a>
  e7:	89 4c 24 fc          	mov    %ecx,-0x4(%rsp)
  eb:	c3                   	retq   

Disassembly of section .text.I422ToRGBARow_SSSE3:

0000000000000000 <I422ToRGBARow_SSSE3>:
   0:	44 89 4c 24 fc       	mov    %r9d,-0x4(%rsp)
   5:	66 45 0f 6f 00       	movdqa (%r8),%xmm8
   a:	66 45 0f 6f 48 20    	movdqa 0x20(%r8),%xmm9
  10:	66 45 0f 6f 50 40    	movdqa 0x40(%r8),%xmm10
  16:	66 45 0f 6f 58 60    	movdqa 0x60(%r8),%xmm11
  1c:	66 45 0f 6f a0 80 00 	movdqa 0x80(%r8),%xmm12
  23:	00 00 
  25:	66 45 0f 6f a8 a0 00 	movdqa 0xa0(%r8),%xmm13
  2c:	00 00 
  2e:	66 45 0f 6f b0 c0 00 	movdqa 0xc0(%r8),%xmm14
  35:	00 00 
  37:	48 29 f2             	sub    %rsi,%rdx
  3a:	66 0f 74 ed          	pcmpeqb %xmm5,%xmm5
  3e:	66 0f 6e 06          	movd   (%rsi),%xmm0
  42:	66 0f 6e 0c 16       	movd   (%rsi,%rdx,1),%xmm1
  47:	48 8d 76 04          	lea    0x4(%rsi),%rsi
  4b:	66 0f 60 c1          	punpcklbw %xmm1,%xmm0
  4f:	66 0f 61 c0          	punpcklwd %xmm0,%xmm0
  53:	f3 0f 7e 27          	movq   (%rdi),%xmm4
  57:	66 0f 60 e4          	punpcklbw %xmm4,%xmm4
  5b:	48 8d 7f 08          	lea    0x8(%rdi),%rdi
  5f:	66 0f 6f c8          	movdqa %xmm0,%xmm1
  63:	66 0f 6f d0          	movdqa %xmm0,%xmm2
  67:	66 0f 6f d8          	movdqa %xmm0,%xmm3
  6b:	66 41 0f 6f c3       	movdqa %xmm11,%xmm0
  70:	66 41 0f 38 04 c8    	pmaddubsw %xmm8,%xmm1
  76:	66 0f f9 c1          	psubw  %xmm1,%xmm0
  7a:	66 41 0f 6f cc       	movdqa %xmm12,%xmm1
  7f:	66 41 0f 38 04 d1    	pmaddubsw %xmm9,%xmm2
  85:	66 0f f9 ca          	psubw  %xmm2,%xmm1
  89:	66 41 0f 6f d5       	movdqa %xmm13,%xmm2
  8e:	66 41 0f 38 04 da    	pmaddubsw %xmm10,%xmm3
  94:	66 0f f9 d3          	psubw  %xmm3,%xmm2
  98:	66 41 0f e4 e6       	pmulhuw %xmm14,%xmm4
  9d:	66 0f ed c4          	paddsw %xmm4,%xmm0
  a1:	66 0f ed cc          	paddsw %xmm4,%xmm1
  a5:	66 0f ed d4          	paddsw %xmm4,%xmm2
  a9:	66 0f 71 e0 06       	psraw  $0x6,%xmm0
  ae:	66 0f 71 e1 06       	psraw  $0x6,%xmm1
  b3:	66 0f 71 e2 06       	psraw  $0x6,%xmm2
  b8:	66 0f 67 c0          	packuswb %xmm0,%xmm0
  bc:	66 0f 67 c9          	packuswb %xmm1,%xmm1
  c0:	66 0f 67 d2          	packuswb %xmm2,%xmm2
  c4:	66 0f 74 ed          	pcmpeqb %xmm5,%xmm5
  c8:	66 0f 60 ca          	punpcklbw %xmm2,%xmm1
  cc:	66 0f 60 e8          	punpcklbw %xmm0,%xmm5
  d0:	66 0f 6f c5          	movdqa %xmm5,%xmm0
  d4:	66 0f 61 e9          	punpcklwd %xmm1,%xmm5
  d8:	66 0f 69 c1          	punpckhwd %xmm1,%xmm0
  dc:	f3 0f 7f 29          	movdqu %xmm5,(%rcx)
  e0:	f3 0f 7f 41 10       	movdqu %xmm0,0x10(%rcx)
  e5:	48 8d 49 20          	lea    0x20(%rcx),%rcx
  e9:	41 83 e9 08          	sub    $0x8,%r9d
  ed:	0f 8f 4b ff ff ff    	jg     3e <I422ToRGBARow_SSSE3+0x3e>
  f3:	44 89 4c 24 fc       	mov    %r9d,-0x4(%rsp)
  f8:	c3                   	retq   

Disassembly of section .text.I444ToARGBRow_AVX2:

0000000000000000 <I444ToARGBRow_AVX2>:
   0:	44 89 4c 24 fc       	mov    %r9d,-0x4(%rsp)
   5:	c4 41 7d 6f 00       	vmovdqa (%r8),%ymm8
   a:	c4 41 7d 6f 48 20    	vmovdqa 0x20(%r8),%ymm9
  10:	c4 41 7d 6f 50 40    	vmovdqa 0x40(%r8),%ymm10
  16:	c4 41 7d 6f 58 60    	vmovdqa 0x60(%r8),%ymm11
  1c:	c4 41 7d 6f a0 80 00 	vmovdqa 0x80(%r8),%ymm12
  23:	00 00 
  25:	c4 41 7d 6f a8 a0 00 	vmovdqa 0xa0(%r8),%ymm13
  2c:	00 00 
  2e:	c4 41 7d 6f b0 c0 00 	vmovdqa 0xc0(%r8),%ymm14
  35:	00 00 
  37:	48 29 f2             	sub    %rsi,%rdx
  3a:	c5 d5 74 ed          	vpcmpeqb %ymm5,%ymm5,%ymm5
  3e:	c5 fa 6f 06          	vmovdqu (%rsi),%xmm0
  42:	c5 fa 6f 0c 16       	vmovdqu (%rsi,%rdx,1),%xmm1
  47:	48 8d 76 10          	lea    0x10(%rsi),%rsi
  4b:	c4 e3 fd 00 c0 d8    	vpermq $0xd8,%ymm0,%ymm0
  51:	c4 e3 fd 00 c9 d8    	vpermq $0xd8,%ymm1,%ymm1
  57:	c5 fd 60 c1          	vpunpcklbw %ymm1,%ymm0,%ymm0
  5b:	c5 fa 6f 27          	vmovdqu (%rdi),%xmm4
  5f:	c4 e3 fd 00 e4 d8    	vpermq $0xd8,%ymm4,%ymm4
  65:	c5 dd 60 e4          	vpunpcklbw %ymm4,%ymm4,%ymm4
  69:	48 8d 7f 10          	lea    0x10(%rdi),%rdi
  6d:	c4 c2 7d 04 d2       	vpmaddubsw %ymm10,%ymm0,%ymm2
  72:	c4 c2 7d 04 c9       	vpmaddubsw %ymm9,%ymm0,%ymm1
  77:	c4 c2 7d 04 c0       	vpmaddubsw %ymm8,%ymm0,%ymm0
  7c:	c5 95 f9 d2          	vpsubw %ymm2,%ymm13,%ymm2
  80:	c5 9d f9 c9          	vpsubw %ymm1,%ymm12,%ymm1
  84:	c5 a5 f9 c0          	vpsubw %ymm0,%ymm11,%ymm0
  88:	c4 c1 5d e4 e6       	vpmulhuw %ymm14,%ymm4,%ymm4
  8d:	c5 fd ed c4          	vpaddsw %ymm4,%ymm0,%ymm0
  91:	c5 f5 ed cc          	vpaddsw %ymm4,%ymm1,%ymm1
  95:	c5 ed ed d4          	vpaddsw %ymm4,%ymm2,%ymm2
  99:	c5 fd 71 e0 06       	vpsraw $0x6,%ymm0,%ymm0
  9e:	c5 f5 71 e1 06       	vpsraw $0x6,%ymm1,%ymm1
  a3:	c5 ed 71 e2 06       	vpsraw $0x6,%ymm2,%ymm2
  a8:	c5 fd 67 c0          	vpackuswb %ymm0,%ymm0,%ymm0
  ac:	c5 f5 67 c9          	vpackuswb %ymm1,%ymm1,%ymm1
  b0:	c5 ed 67 d2          	vpackuswb %ymm2,%ymm2,%ymm2
  b4:	c5 fd 60 c1          	vpunpcklbw %ymm1,%ymm0,%ymm0
  b8:	c4 e3 fd 00 c0 d8    	vpermq $0xd8,%ymm0,%ymm0
  be:	c5 ed 60 d5          	vpunpcklbw %ymm5,%ymm2,%ymm2
  c2:	c4 e3 fd 00 d2 d8    	vpermq $0xd8,%ymm2,%ymm2
  c8:	c5 fd 61 ca          	vpunpcklwd %ymm2,%ymm0,%ymm1
  cc:	c5 fd 69 c2          	vpunpckhwd %ymm2,%ymm0,%ymm0
  d0:	c5 fe 7f 09          	vmovdqu %ymm1,(%rcx)
  d4:	c5 fe 7f 41 20       	vmovdqu %ymm0,0x20(%rcx)
  d9:	48 8d 49 40          	lea    0x40(%rcx),%rcx
  dd:	41 83 e9 10          	sub    $0x10,%r9d
  e1:	0f 8f 57 ff ff ff    	jg     3e <I444ToARGBRow_AVX2+0x3e>
  e7:	c5 f8 77             	vzeroupper 
  ea:	44 89 4c 24 fc       	mov    %r9d,-0x4(%rsp)
  ef:	c3                   	retq   

Disassembly of section .text.I422ToARGBRow_AVX2:

0000000000000000 <I422ToARGBRow_AVX2>:
   0:	44 89 4c 24 fc       	mov    %r9d,-0x4(%rsp)
   5:	c4 41 7d 6f 00       	vmovdqa (%r8),%ymm8
   a:	c4 41 7d 6f 48 20    	vmovdqa 0x20(%r8),%ymm9
  10:	c4 41 7d 6f 50 40    	vmovdqa 0x40(%r8),%ymm10
  16:	c4 41 7d 6f 58 60    	vmovdqa 0x60(%r8),%ymm11
  1c:	c4 41 7d 6f a0 80 00 	vmovdqa 0x80(%r8),%ymm12
  23:	00 00 
  25:	c4 41 7d 6f a8 a0 00 	vmovdqa 0xa0(%r8),%ymm13
  2c:	00 00 
  2e:	c4 41 7d 6f b0 c0 00 	vmovdqa 0xc0(%r8),%ymm14
  35:	00 00 
  37:	48 29 f2             	sub    %rsi,%rdx
  3a:	c5 d5 74 ed          	vpcmpeqb %ymm5,%ymm5,%ymm5
  3e:	c5 fa 7e 06          	vmovq  (%rsi),%xmm0
  42:	c5 fa 7e 0c 16       	vmovq  (%rsi,%rdx,1),%xmm1
  47:	48 8d 76 08          	lea    0x8(%rsi),%rsi
  4b:	c5 fd 60 c1          	vpunpcklbw %ymm1,%ymm0,%ymm0
  4f:	c4 e3 fd 00 c0 d8    	vpermq $0xd8,%ymm0,%ymm0
  55:	c5 fd 61 c0          	vpunpcklwd %ymm0,%ymm0,%ymm0
  59:	c5 fa 6f 27          	vmovdqu (%rdi),%xmm4
  5d:	c4 e3 fd 00 e4 d8    	vpermq $0xd8,%ymm4,%ymm4
  63:	c5 dd 60 e4          	vpunpcklbw %ymm4,%ymm4,%ymm4
  67:	48 8d 7f 10          	lea    0x10(%rdi),%rdi
  6b:	c4 c2 7d 04 d2       	vpmaddubsw %ymm10,%ymm0,%ymm2
  70:	c4 c2 7d 04 c9       	vpmaddubsw %ymm9,%ymm0,%ymm1
  75:	c4 c2 7d 04 c0       	vpmaddubsw %ymm8,%ymm0,%ymm0
  7a:	c5 95 f9 d2          	vpsubw %ymm2,%ymm13,%ymm2
  7e:	c5 9d f9 c9          	vpsubw %ymm1,%ymm12,%ymm1
  82:	c5 a5 f9 c0          	vpsubw %ymm0,%ymm11,%ymm0
  86:	c4 c1 5d e4 e6       	vpmulhuw %ymm14,%ymm4,%ymm4
  8b:	c5 fd ed c4          	vpaddsw %ymm4,%ymm0,%ymm0
  8f:	c5 f5 ed cc          	vpaddsw %ymm4,%ymm1,%ymm1
  93:	c5 ed ed d4          	vpaddsw %ymm4,%ymm2,%ymm2
  97:	c5 fd 71 e0 06       	vpsraw $0x6,%ymm0,%ymm0
  9c:	c5 f5 71 e1 06       	vpsraw $0x6,%ymm1,%ymm1
  a1:	c5 ed 71 e2 06       	vpsraw $0x6,%ymm2,%ymm2
  a6:	c5 fd 67 c0          	vpackuswb %ymm0,%ymm0,%ymm0
  aa:	c5 f5 67 c9          	vpackuswb %ymm1,%ymm1,%ymm1
  ae:	c5 ed 67 d2          	vpackuswb %ymm2,%ymm2,%ymm2
  b2:	c5 fd 60 c1          	vpunpcklbw %ymm1,%ymm0,%ymm0
  b6:	c4 e3 fd 00 c0 d8    	vpermq $0xd8,%ymm0,%ymm0
  bc:	c5 ed 60 d5          	vpunpcklbw %ymm5,%ymm2,%ymm2
  c0:	c4 e3 fd 00 d2 d8    	vpermq $0xd8,%ymm2,%ymm2
  c6:	c5 fd 61 ca          	vpunpcklwd %ymm2,%ymm0,%ymm1
  ca:	c5 fd 69 c2          	vpunpckhwd %ymm2,%ymm0,%ymm0
  ce:	c5 fe 7f 09          	vmovdqu %ymm1,(%rcx)
  d2:	c5 fe 7f 41 20       	vmovdqu %ymm0,0x20(%rcx)
  d7:	48 8d 49 40          	lea    0x40(%rcx),%rcx
  db:	41 83 e9 10          	sub    $0x10,%r9d
  df:	0f 8f 59 ff ff ff    	jg     3e <I422ToARGBRow_AVX2+0x3e>
  e5:	c5 f8 77             	vzeroupper 
  e8:	44 89 4c 24 fc       	mov    %r9d,-0x4(%rsp)
  ed:	c3                   	retq   

Disassembly of section .text.I422ToAR30Row_AVX2:

0000000000000000 <I422ToAR30Row_AVX2>:
   0:	44 89 4c 24 fc       	mov    %r9d,-0x4(%rsp)
   5:	c4 41 7d 6f 00       	vmovdqa (%r8),%ymm8
   a:	c4 41 7d 6f 48 20    	vmovdqa 0x20(%r8),%ymm9
  10:	c4 41 7d 6f 50 40    	vmovdqa 0x40(%r8),%ymm10
  16:	c4 41 7d 6f 58 60    	vmovdqa 0x60(%r8),%ymm11
  1c:	c4 41 7d 6f a0 80 00 	vmovdqa 0x80(%r8),%ymm12
  23:	00 00 
  25:	c4 41 7d 6f a8 a0 00 	vmovdqa 0xa0(%r8),%ymm13
  2c:	00 00 
  2e:	c4 41 7d 6f b0 c0 00 	vmovdqa 0xc0(%r8),%ymm14
  35:	00 00 
  37:	48 29 f2             	sub    %rsi,%rdx
  3a:	c5 d5 74 ed          	vpcmpeqb %ymm5,%ymm5,%ymm5
  3e:	c5 d5 71 d5 0e       	vpsrlw $0xe,%ymm5,%ymm5
  43:	c5 d5 71 f5 04       	vpsllw $0x4,%ymm5,%ymm5
  48:	c5 cd ef f6          	vpxor  %ymm6,%ymm6,%ymm6
  4c:	c5 c5 74 ff          	vpcmpeqb %ymm7,%ymm7,%ymm7
  50:	c5 c5 71 d7 06       	vpsrlw $0x6,%ymm7,%ymm7
  55:	c5 fa 7e 06          	vmovq  (%rsi),%xmm0
  59:	c5 fa 7e 0c 16       	vmovq  (%rsi,%rdx,1),%xmm1
  5e:	48 8d 76 08          	lea    0x8(%rsi),%rsi
  62:	c5 fd 60 c1          	vpunpcklbw %ymm1,%ymm0,%ymm0
  66:	c4 e3 fd 00 c0 d8    	vpermq $0xd8,%ymm0,%ymm0
  6c:	c5 fd 61 c0          	vpunpcklwd %ymm0,%ymm0,%ymm0
  70:	c5 fa 6f 27          	vmovdqu (%rdi),%xmm4
  74:	c4 e3 fd 00 e4 d8    	vpermq $0xd8,%ymm4,%ymm4
  7a:	c5 dd 60 e4          	vpunpcklbw %ymm4,%ymm4,%ymm4
  7e:	48 8d 7f 10          	lea    0x10(%rdi),%rdi
  82:	c4 c2 7d 04 d2       	vpmaddubsw %ymm10,%ymm0,%ymm2
  87:	c4 c2 7d 04 c9       	vpmaddubsw %ymm9,%ymm0,%ymm1
  8c:	c4 c2 7d 04 c0       	vpmaddubsw %ymm8,%ymm0,%ymm0
  91:	c5 95 f9 d2          	vpsubw %ymm2,%ymm13,%ymm2
  95:	c5 9d f9 c9          	vpsubw %ymm1,%ymm12,%ymm1
  99:	c5 a5 f9 c0          	vpsubw %ymm0,%ymm11,%ymm0
  9d:	c4 c1 5d e4 e6       	vpmulhuw %ymm14,%ymm4,%ymm4
  a2:	c5 fd ed c4          	vpaddsw %ymm4,%ymm0,%ymm0
  a6:	c5 f5 ed cc          	vpaddsw %ymm4,%ymm1,%ymm1
  aa:	c5 ed ed d4          	vpaddsw %ymm4,%ymm2,%ymm2
  ae:	c5 fd 71 e0 04       	vpsraw $0x4,%ymm0,%ymm0
  b3:	c5 f5 71 e1 04       	vpsraw $0x4,%ymm1,%ymm1
  b8:	c5 ed 71 e2 04       	vpsraw $0x4,%ymm2,%ymm2
  bd:	c5 fd ea c7          	vpminsw %ymm7,%ymm0,%ymm0
  c1:	c5 f5 ea cf          	vpminsw %ymm7,%ymm1,%ymm1
  c5:	c5 ed ea d7          	vpminsw %ymm7,%ymm2,%ymm2
  c9:	c5 fd ee c6          	vpmaxsw %ymm6,%ymm0,%ymm0
  cd:	c5 f5 ee ce          	vpmaxsw %ymm6,%ymm1,%ymm1
  d1:	c5 ed ee d6          	vpmaxsw %ymm6,%ymm2,%ymm2
  d5:	c5 ed 71 f2 04       	vpsllw $0x4,%ymm2,%ymm2
  da:	c4 e3 fd 00 c0 d8    	vpermq $0xd8,%ymm0,%ymm0
  e0:	c4 e3 fd 00 c9 d8    	vpermq $0xd8,%ymm1,%ymm1
  e6:	c4 e3 fd 00 d2 d8    	vpermq $0xd8,%ymm2,%ymm2
  ec:	c5 fd 69 da          	vpunpckhwd %ymm2,%ymm0,%ymm3
  f0:	c5 fd 61 c2          	vpunpcklwd %ymm2,%ymm0,%ymm0
  f4:	c5 f5 69 d5          	vpunpckhwd %ymm5,%ymm1,%ymm2
  f8:	c5 f5 61 cd          	vpunpcklwd %ymm5,%ymm1,%ymm1
  fc:	c5 f5 72 f1 0a       	vpslld $0xa,%ymm1,%ymm1
 101:	c5 ed 72 f2 0a       	vpslld $0xa,%ymm2,%ymm2
 106:	c5 fd eb c1          	vpor   %ymm1,%ymm0,%ymm0
 10a:	c5 e5 eb da          	vpor   %ymm2,%ymm3,%ymm3
 10e:	c5 fe 7f 01          	vmovdqu %ymm0,(%rcx)
 112:	c5 fe 7f 59 20       	vmovdqu %ymm3,0x20(%rcx)
 117:	48 8d 49 40          	lea    0x40(%rcx),%rcx
 11b:	41 83 e9 10          	sub    $0x10,%r9d
 11f:	0f 8f 30 ff ff ff    	jg     55 <I422ToAR30Row_AVX2+0x55>
 125:	c5 f8 77             	vzeroupper 
 128:	44 89 4c 24 fc       	mov    %r9d,-0x4(%rsp)
 12d:	c3                   	retq   

Disassembly of section .text.I210ToARGBRow_AVX2:

0000000000000000 <I210ToARGBRow_AVX2>:
   0:	44 89 4c 24 fc       	mov    %r9d,-0x4(%rsp)
   5:	c4 41 7d 6f 00       	vmovdqa (%r8),%ymm8
   a:	c4 41 7d 6f 48 20    	vmovdqa 0x20(%r8),%ymm9
  10:	c4 41 7d 6f 50 40    	vmovdqa 0x40(%r8),%ymm10
  16:	c4 41 7d 6f 58 60    	vmovdqa 0x60(%r8),%ymm11
  1c:	c4 41 7d 6f a0 80 00 	vmovdqa 0x80(%r8),%ymm12
  23:	00 00 
  25:	c4 41 7d 6f a8 a0 00 	vmovdqa 0xa0(%r8),%ymm13
  2c:	00 00 
  2e:	c4 41 7d 6f b0 c0 00 	vmovdqa 0xc0(%r8),%ymm14
  35:	00 00 
  37:	48 29 f2             	sub    %rsi,%rdx
  3a:	c5 d5 74 ed          	vpcmpeqb %ymm5,%ymm5,%ymm5
  3e:	c5 fa 6f 06          	vmovdqu (%rsi),%xmm0
  42:	c5 fa 6f 0c 16       	vmovdqu (%rsi,%rdx,1),%xmm1
  47:	48 8d 76 10          	lea    0x10(%rsi),%rsi
  4b:	c4 e3 fd 00 c0 d8    	vpermq $0xd8,%ymm0,%ymm0
  51:	c4 e3 fd 00 c9 d8    	vpermq $0xd8,%ymm1,%ymm1
  57:	c5 fd 61 c1          	vpunpcklwd %ymm1,%ymm0,%ymm0
  5b:	c5 fd 71 e0 02       	vpsraw $0x2,%ymm0,%ymm0
  60:	c5 fd 67 c0          	vpackuswb %ymm0,%ymm0,%ymm0
  64:	c5 fd 61 c0          	vpunpcklwd %ymm0,%ymm0,%ymm0
  68:	c5 fe 6f 27          	vmovdqu (%rdi),%ymm4
  6c:	c5 dd 71 f4 06       	vpsllw $0x6,%ymm4,%ymm4
  71:	48 8d 7f 20          	lea    0x20(%rdi),%rdi
  75:	c4 c2 7d 04 d2       	vpmaddubsw %ymm10,%ymm0,%ymm2
  7a:	c4 c2 7d 04 c9       	vpmaddubsw %ymm9,%ymm0,%ymm1
  7f:	c4 c2 7d 04 c0       	vpmaddubsw %ymm8,%ymm0,%ymm0
  84:	c5 95 f9 d2          	vpsubw %ymm2,%ymm13,%ymm2
  88:	c5 9d f9 c9          	vpsubw %ymm1,%ymm12,%ymm1
  8c:	c5 a5 f9 c0          	vpsubw %ymm0,%ymm11,%ymm0
  90:	c4 c1 5d e4 e6       	vpmulhuw %ymm14,%ymm4,%ymm4
  95:	c5 fd ed c4          	vpaddsw %ymm4,%ymm0,%ymm0
  99:	c5 f5 ed cc          	vpaddsw %ymm4,%ymm1,%ymm1
  9d:	c5 ed ed d4          	vpaddsw %ymm4,%ymm2,%ymm2
  a1:	c5 fd 71 e0 06       	vpsraw $0x6,%ymm0,%ymm0
  a6:	c5 f5 71 e1 06       	vpsraw $0x6,%ymm1,%ymm1
  ab:	c5 ed 71 e2 06       	vpsraw $0x6,%ymm2,%ymm2
  b0:	c5 fd 67 c0          	vpackuswb %ymm0,%ymm0,%ymm0
  b4:	c5 f5 67 c9          	vpackuswb %ymm1,%ymm1,%ymm1
  b8:	c5 ed 67 d2          	vpackuswb %ymm2,%ymm2,%ymm2
  bc:	c5 fd 60 c1          	vpunpcklbw %ymm1,%ymm0,%ymm0
  c0:	c4 e3 fd 00 c0 d8    	vpermq $0xd8,%ymm0,%ymm0
  c6:	c5 ed 60 d5          	vpunpcklbw %ymm5,%ymm2,%ymm2
  ca:	c4 e3 fd 00 d2 d8    	vpermq $0xd8,%ymm2,%ymm2
  d0:	c5 fd 61 ca          	vpunpcklwd %ymm2,%ymm0,%ymm1
  d4:	c5 fd 69 c2          	vpunpckhwd %ymm2,%ymm0,%ymm0
  d8:	c5 fe 7f 09          	vmovdqu %ymm1,(%rcx)
  dc:	c5 fe 7f 41 20       	vmovdqu %ymm0,0x20(%rcx)
  e1:	48 8d 49 40          	lea    0x40(%rcx),%rcx
  e5:	41 83 e9 10          	sub    $0x10,%r9d
  e9:	0f 8f 4f ff ff ff    	jg     3e <I210ToARGBRow_AVX2+0x3e>
  ef:	c5 f8 77             	vzeroupper 
  f2:	44 89 4c 24 fc       	mov    %r9d,-0x4(%rsp)
  f7:	c3                   	retq   

Disassembly of section .text.I210ToAR30Row_AVX2:

0000000000000000 <I210ToAR30Row_AVX2>:
   0:	44 89 4c 24 fc       	mov    %r9d,-0x4(%rsp)
   5:	c4 41 7d 6f 00       	vmovdqa (%r8),%ymm8
   a:	c4 41 7d 6f 48 20    	vmovdqa 0x20(%r8),%ymm9
  10:	c4 41 7d 6f 50 40    	vmovdqa 0x40(%r8),%ymm10
  16:	c4 41 7d 6f 58 60    	vmovdqa 0x60(%r8),%ymm11
  1c:	c4 41 7d 6f a0 80 00 	vmovdqa 0x80(%r8),%ymm12
  23:	00 00 
  25:	c4 41 7d 6f a8 a0 00 	vmovdqa 0xa0(%r8),%ymm13
  2c:	00 00 
  2e:	c4 41 7d 6f b0 c0 00 	vmovdqa 0xc0(%r8),%ymm14
  35:	00 00 
  37:	48 29 f2             	sub    %rsi,%rdx
  3a:	c5 d5 74 ed          	vpcmpeqb %ymm5,%ymm5,%ymm5
  3e:	c5 d5 71 d5 0e       	vpsrlw $0xe,%ymm5,%ymm5
  43:	c5 d5 71 f5 04       	vpsllw $0x4,%ymm5,%ymm5
  48:	c5 cd ef f6          	vpxor  %ymm6,%ymm6,%ymm6
  4c:	c5 c5 74 ff          	vpcmpeqb %ymm7,%ymm7,%ymm7
  50:	c5 c5 71 d7 06       	vpsrlw $0x6,%ymm7,%ymm7
  55:	c5 fa 6f 06          	vmovdqu (%rsi),%xmm0
  59:	c5 fa 6f 0c 16       	vmovdqu (%rsi,%rdx,1),%xmm1
  5e:	48 8d 76 10          	lea    0x10(%rsi),%rsi
  62:	c4 e3 fd 00 c0 d8    	vpermq $0xd8,%ymm0,%ymm0
  68:	c4 e3 fd 00 c9 d8    	vpermq $0xd8,%ymm1,%ymm1
  6e:	c5 fd 61 c1          	vpunpcklwd %ymm1,%ymm0,%ymm0
  72:	c5 fd 71 e0 02       	vpsraw $0x2,%ymm0,%ymm0
  77:	c5 fd 67 c0          	vpackuswb %ymm0,%ymm0,%ymm0
  7b:	c5 fd 61 c0          	vpunpcklwd %ymm0,%ymm0,%ymm0
  7f:	c5 fe 6f 27          	vmovdqu (%rdi),%ymm4
  83:	c5 dd 71 f4 06       	vpsllw $0x6,%ymm4,%ymm4
  88:	48 8d 7f 20          	lea    0x20(%rdi),%rdi
  8c:	c4 c2 7d 04 d2       	vpmaddubsw %ymm10,%ymm0,%ymm2
  91:	c4 c2 7d 04 c9       	vpmaddubsw %ymm9,%ymm0,%ymm1
  96:	c4 c2 7d 04 c0       	vpmaddubsw %ymm8,%ymm0,%ymm0
  9b:	c5 95 f9 d2          	vpsubw %ymm2,%ymm13,%ymm2
  9f:	c5 9d f9 c9          	vpsubw %ymm1,%ymm12,%ymm1
  a3:	c5 a5 f9 c0          	vpsubw %ymm0,%ymm11,%ymm0
  a7:	c4 c1 5d e4 e6       	vpmulhuw %ymm14,%ymm4,%ymm4
  ac:	c5 fd ed c4          	vpaddsw %ymm4,%ymm0,%ymm0
  b0:	c5 f5 ed cc          	vpaddsw %ymm4,%ymm1,%ymm1
  b4:	c5 ed ed d4          	vpaddsw %ymm4,%ymm2,%ymm2
  b8:	c5 fd 71 e0 04       	vpsraw $0x4,%ymm0,%ymm0
  bd:	c5 f5 71 e1 04       	vpsraw $0x4,%ymm1,%ymm1
  c2:	c5 ed 71 e2 04       	vpsraw $0x4,%ymm2,%ymm2
  c7:	c5 fd ea c7          	vpminsw %ymm7,%ymm0,%ymm0
  cb:	c5 f5 ea cf          	vpminsw %ymm7,%ymm1,%ymm1
  cf:	c5 ed ea d7          	vpminsw %ymm7,%ymm2,%ymm2
  d3:	c5 fd ee c6          	vpmaxsw %ymm6,%ymm0,%ymm0
  d7:	c5 f5 ee ce          	vpmaxsw %ymm6,%ymm1,%ymm1
  db:	c5 ed ee d6          	vpmaxsw %ymm6,%ymm2,%ymm2
  df:	c5 ed 71 f2 04       	vpsllw $0x4,%ymm2,%ymm2
  e4:	c4 e3 fd 00 c0 d8    	vpermq $0xd8,%ymm0,%ymm0
  ea:	c4 e3 fd 00 c9 d8    	vpermq $0xd8,%ymm1,%ymm1
  f0:	c4 e3 fd 00 d2 d8    	vpermq $0xd8,%ymm2,%ymm2
  f6:	c5 fd 69 da          	vpunpckhwd %ymm2,%ymm0,%ymm3
  fa:	c5 fd 61 c2          	vpunpcklwd %ymm2,%ymm0,%ymm0
  fe:	c5 f5 69 d5          	vpunpckhwd %ymm5,%ymm1,%ymm2
 102:	c5 f5 61 cd          	vpunpcklwd %ymm5,%ymm1,%ymm1
 106:	c5 f5 72 f1 0a       	vpslld $0xa,%ymm1,%ymm1
 10b:	c5 ed 72 f2 0a       	vpslld $0xa,%ymm2,%ymm2
 110:	c5 fd eb c1          	vpor   %ymm1,%ymm0,%ymm0
 114:	c5 e5 eb da          	vpor   %ymm2,%ymm3,%ymm3
 118:	c5 fe 7f 01          	vmovdqu %ymm0,(%rcx)
 11c:	c5 fe 7f 59 20       	vmovdqu %ymm3,0x20(%rcx)
 121:	48 8d 49 40          	lea    0x40(%rcx),%rcx
 125:	41 83 e9 10          	sub    $0x10,%r9d
 129:	0f 8f 26 ff ff ff    	jg     55 <I210ToAR30Row_AVX2+0x55>
 12f:	c5 f8 77             	vzeroupper 
 132:	44 89 4c 24 fc       	mov    %r9d,-0x4(%rsp)
 137:	c3                   	retq   

Disassembly of section .text.I422AlphaToARGBRow_AVX2:

0000000000000000 <I422AlphaToARGBRow_AVX2>:
   0:	8b 44 24 08          	mov    0x8(%rsp),%eax
   4:	c4 41 7d 6f 01       	vmovdqa (%r9),%ymm8
   9:	c4 41 7d 6f 49 20    	vmovdqa 0x20(%r9),%ymm9
   f:	c4 41 7d 6f 51 40    	vmovdqa 0x40(%r9),%ymm10
  15:	c4 41 7d 6f 59 60    	vmovdqa 0x60(%r9),%ymm11
  1b:	c4 41 7d 6f a1 80 00 	vmovdqa 0x80(%r9),%ymm12
  22:	00 00 
  24:	c4 41 7d 6f a9 a0 00 	vmovdqa 0xa0(%r9),%ymm13
  2b:	00 00 
  2d:	c4 41 7d 6f b1 c0 00 	vmovdqa 0xc0(%r9),%ymm14
  34:	00 00 
  36:	48 29 f2             	sub    %rsi,%rdx
  39:	c5 fa 7e 06          	vmovq  (%rsi),%xmm0
  3d:	c5 fa 7e 0c 16       	vmovq  (%rsi,%rdx,1),%xmm1
  42:	48 8d 76 08          	lea    0x8(%rsi),%rsi
  46:	c5 fd 60 c1          	vpunpcklbw %ymm1,%ymm0,%ymm0
  4a:	c4 e3 fd 00 c0 d8    	vpermq $0xd8,%ymm0,%ymm0
  50:	c5 fd 61 c0          	vpunpcklwd %ymm0,%ymm0,%ymm0
  54:	c5 fa 6f 27          	vmovdqu (%rdi),%xmm4
  58:	c4 e3 fd 00 e4 d8    	vpermq $0xd8,%ymm4,%ymm4
  5e:	c5 dd 60 e4          	vpunpcklbw %ymm4,%ymm4,%ymm4
  62:	48 8d 7f 10          	lea    0x10(%rdi),%rdi
  66:	c5 fa 6f 29          	vmovdqu (%rcx),%xmm5
  6a:	c4 e3 fd 00 ed d8    	vpermq $0xd8,%ymm5,%ymm5
  70:	48 8d 49 10          	lea    0x10(%rcx),%rcx
  74:	c4 c2 7d 04 d2       	vpmaddubsw %ymm10,%ymm0,%ymm2
  79:	c4 c2 7d 04 c9       	vpmaddubsw %ymm9,%ymm0,%ymm1
  7e:	c4 c2 7d 04 c0       	vpmaddubsw %ymm8,%ymm0,%ymm0
  83:	c5 95 f9 d2          	vpsubw %ymm2,%ymm13,%ymm2
  87:	c5 9d f9 c9          	vpsubw %ymm1,%ymm12,%ymm1
  8b:	c5 a5 f9 c0          	vpsubw %ymm0,%ymm11,%ymm0
  8f:	c4 c1 5d e4 e6       	vpmulhuw %ymm14,%ymm4,%ymm4
  94:	c5 fd ed c4          	vpaddsw %ymm4,%ymm0,%ymm0
  98:	c5 f5 ed cc          	vpaddsw %ymm4,%ymm1,%ymm1
  9c:	c5 ed ed d4          	vpaddsw %ymm4,%ymm2,%ymm2
  a0:	c5 fd 71 e0 06       	vpsraw $0x6,%ymm0,%ymm0
  a5:	c5 f5 71 e1 06       	vpsraw $0x6,%ymm1,%ymm1
  aa:	c5 ed 71 e2 06       	vpsraw $0x6,%ymm2,%ymm2
  af:	c5 fd 67 c0          	vpackuswb %ymm0,%ymm0,%ymm0
  b3:	c5 f5 67 c9          	vpackuswb %ymm1,%ymm1,%ymm1
  b7:	c5 ed 67 d2          	vpackuswb %ymm2,%ymm2,%ymm2
  bb:	c5 fd 60 c1          	vpunpcklbw %ymm1,%ymm0,%ymm0
  bf:	c4 e3 fd 00 c0 d8    	vpermq $0xd8,%ymm0,%ymm0
  c5:	c5 ed 60 d5          	vpunpcklbw %ymm5,%ymm2,%ymm2
  c9:	c4 e3 fd 00 d2 d8    	vpermq $0xd8,%ymm2,%ymm2
  cf:	c5 fd 61 ca          	vpunpcklwd %ymm2,%ymm0,%ymm1
  d3:	c5 fd 69 c2          	vpunpckhwd %ymm2,%ymm0,%ymm0
  d7:	c4 c1 7e 7f 08       	vmovdqu %ymm1,(%r8)
  dc:	c4 c1 7e 7f 40 20    	vmovdqu %ymm0,0x20(%r8)
  e2:	4d 8d 40 40          	lea    0x40(%r8),%r8
  e6:	83 e8 10             	sub    $0x10,%eax
  e9:	0f 8f 4a ff ff ff    	jg     39 <I422AlphaToARGBRow_AVX2+0x39>
  ef:	c5 f8 77             	vzeroupper 
  f2:	89 44 24 08          	mov    %eax,0x8(%rsp)
  f6:	c3                   	retq   

Disassembly of section .text.I422ToRGBARow_AVX2:

0000000000000000 <I422ToRGBARow_AVX2>:
   0:	44 89 4c 24 fc       	mov    %r9d,-0x4(%rsp)
   5:	c4 41 7d 6f 00       	vmovdqa (%r8),%ymm8
   a:	c4 41 7d 6f 48 20    	vmovdqa 0x20(%r8),%ymm9
  10:	c4 41 7d 6f 50 40    	vmovdqa 0x40(%r8),%ymm10
  16:	c4 41 7d 6f 58 60    	vmovdqa 0x60(%r8),%ymm11
  1c:	c4 41 7d 6f a0 80 00 	vmovdqa 0x80(%r8),%ymm12
  23:	00 00 
  25:	c4 41 7d 6f a8 a0 00 	vmovdqa 0xa0(%r8),%ymm13
  2c:	00 00 
  2e:	c4 41 7d 6f b0 c0 00 	vmovdqa 0xc0(%r8),%ymm14
  35:	00 00 
  37:	48 29 f2             	sub    %rsi,%rdx
  3a:	c5 d5 74 ed          	vpcmpeqb %ymm5,%ymm5,%ymm5
  3e:	c5 fa 7e 06          	vmovq  (%rsi),%xmm0
  42:	c5 fa 7e 0c 16       	vmovq  (%rsi,%rdx,1),%xmm1
  47:	48 8d 76 08          	lea    0x8(%rsi),%rsi
  4b:	c5 fd 60 c1          	vpunpcklbw %ymm1,%ymm0,%ymm0
  4f:	c4 e3 fd 00 c0 d8    	vpermq $0xd8,%ymm0,%ymm0
  55:	c5 fd 61 c0          	vpunpcklwd %ymm0,%ymm0,%ymm0
  59:	c5 fa 6f 27          	vmovdqu (%rdi),%xmm4
  5d:	c4 e3 fd 00 e4 d8    	vpermq $0xd8,%ymm4,%ymm4
  63:	c5 dd 60 e4          	vpunpcklbw %ymm4,%ymm4,%ymm4
  67:	48 8d 7f 10          	lea    0x10(%rdi),%rdi
  6b:	c4 c2 7d 04 d2       	vpmaddubsw %ymm10,%ymm0,%ymm2
  70:	c4 c2 7d 04 c9       	vpmaddubsw %ymm9,%ymm0,%ymm1
  75:	c4 c2 7d 04 c0       	vpmaddubsw %ymm8,%ymm0,%ymm0
  7a:	c5 95 f9 d2          	vpsubw %ymm2,%ymm13,%ymm2
  7e:	c5 9d f9 c9          	vpsubw %ymm1,%ymm12,%ymm1
  82:	c5 a5 f9 c0          	vpsubw %ymm0,%ymm11,%ymm0
  86:	c4 c1 5d e4 e6       	vpmulhuw %ymm14,%ymm4,%ymm4
  8b:	c5 fd ed c4          	vpaddsw %ymm4,%ymm0,%ymm0
  8f:	c5 f5 ed cc          	vpaddsw %ymm4,%ymm1,%ymm1
  93:	c5 ed ed d4          	vpaddsw %ymm4,%ymm2,%ymm2
  97:	c5 fd 71 e0 06       	vpsraw $0x6,%ymm0,%ymm0
  9c:	c5 f5 71 e1 06       	vpsraw $0x6,%ymm1,%ymm1
  a1:	c5 ed 71 e2 06       	vpsraw $0x6,%ymm2,%ymm2
  a6:	c5 fd 67 c0          	vpackuswb %ymm0,%ymm0,%ymm0
  aa:	c5 f5 67 c9          	vpackuswb %ymm1,%ymm1,%ymm1
  ae:	c5 ed 67 d2          	vpackuswb %ymm2,%ymm2,%ymm2
  b2:	c5 f5 60 ca          	vpunpcklbw %ymm2,%ymm1,%ymm1
  b6:	c4 e3 fd 00 c9 d8    	vpermq $0xd8,%ymm1,%ymm1
  bc:	c5 d5 60 d0          	vpunpcklbw %ymm0,%ymm5,%ymm2
  c0:	c4 e3 fd 00 d2 d8    	vpermq $0xd8,%ymm2,%ymm2
  c6:	c5 ed 61 c1          	vpunpcklwd %ymm1,%ymm2,%ymm0
  ca:	c5 ed 69 c9          	vpunpckhwd %ymm1,%ymm2,%ymm1
  ce:	c5 fe 7f 01          	vmovdqu %ymm0,(%rcx)
  d2:	c5 fe 7f 49 20       	vmovdqu %ymm1,0x20(%rcx)
  d7:	48 8d 49 40          	lea    0x40(%rcx),%rcx
  db:	41 83 e9 10          	sub    $0x10,%r9d
  df:	0f 8f 59 ff ff ff    	jg     3e <I422ToRGBARow_AVX2+0x3e>
  e5:	c5 f8 77             	vzeroupper 
  e8:	44 89 4c 24 fc       	mov    %r9d,-0x4(%rsp)
  ed:	c3                   	retq   

Disassembly of section .text.NV12ToARGBRow_AVX2:

0000000000000000 <NV12ToARGBRow_AVX2>:
   0:	44 89 44 24 fc       	mov    %r8d,-0x4(%rsp)
   5:	c5 7d 6f 01          	vmovdqa (%rcx),%ymm8
   9:	c5 7d 6f 49 20       	vmovdqa 0x20(%rcx),%ymm9
   e:	c5 7d 6f 51 40       	vmovdqa 0x40(%rcx),%ymm10
  13:	c5 7d 6f 59 60       	vmovdqa 0x60(%rcx),%ymm11
  18:	c5 7d 6f a1 80 00 00 	vmovdqa 0x80(%rcx),%ymm12
  1f:	00 
  20:	c5 7d 6f a9 a0 00 00 	vmovdqa 0xa0(%rcx),%ymm13
  27:	00 
  28:	c5 7d 6f b1 c0 00 00 	vmovdqa 0xc0(%rcx),%ymm14
  2f:	00 
  30:	c5 d5 74 ed          	vpcmpeqb %ymm5,%ymm5,%ymm5
  34:	c5 fa 6f 06          	vmovdqu (%rsi),%xmm0
  38:	48 8d 76 10          	lea    0x10(%rsi),%rsi
  3c:	c4 e3 fd 00 c0 d8    	vpermq $0xd8,%ymm0,%ymm0
  42:	c5 fd 61 c0          	vpunpcklwd %ymm0,%ymm0,%ymm0
  46:	c5 fa 6f 27          	vmovdqu (%rdi),%xmm4
  4a:	c4 e3 fd 00 e4 d8    	vpermq $0xd8,%ymm4,%ymm4
  50:	c5 dd 60 e4          	vpunpcklbw %ymm4,%ymm4,%ymm4
  54:	48 8d 7f 10          	lea    0x10(%rdi),%rdi
  58:	c4 c2 7d 04 d2       	vpmaddubsw %ymm10,%ymm0,%ymm2
  5d:	c4 c2 7d 04 c9       	vpmaddubsw %ymm9,%ymm0,%ymm1
  62:	c4 c2 7d 04 c0       	vpmaddubsw %ymm8,%ymm0,%ymm0
  67:	c5 95 f9 d2          	vpsubw %ymm2,%ymm13,%ymm2
  6b:	c5 9d f9 c9          	vpsubw %ymm1,%ymm12,%ymm1
  6f:	c5 a5 f9 c0          	vpsubw %ymm0,%ymm11,%ymm0
  73:	c4 c1 5d e4 e6       	vpmulhuw %ymm14,%ymm4,%ymm4
  78:	c5 fd ed c4          	vpaddsw %ymm4,%ymm0,%ymm0
  7c:	c5 f5 ed cc          	vpaddsw %ymm4,%ymm1,%ymm1
  80:	c5 ed ed d4          	vpaddsw %ymm4,%ymm2,%ymm2
  84:	c5 fd 71 e0 06       	vpsraw $0x6,%ymm0,%ymm0
  89:	c5 f5 71 e1 06       	vpsraw $0x6,%ymm1,%ymm1
  8e:	c5 ed 71 e2 06       	vpsraw $0x6,%ymm2,%ymm2
  93:	c5 fd 67 c0          	vpackuswb %ymm0,%ymm0,%ymm0
  97:	c5 f5 67 c9          	vpackuswb %ymm1,%ymm1,%ymm1
  9b:	c5 ed 67 d2          	vpackuswb %ymm2,%ymm2,%ymm2
  9f:	c5 fd 60 c1          	vpunpcklbw %ymm1,%ymm0,%ymm0
  a3:	c4 e3 fd 00 c0 d8    	vpermq $0xd8,%ymm0,%ymm0
  a9:	c5 ed 60 d5          	vpunpcklbw %ymm5,%ymm2,%ymm2
  ad:	c4 e3 fd 00 d2 d8    	vpermq $0xd8,%ymm2,%ymm2
  b3:	c5 fd 61 ca          	vpunpcklwd %ymm2,%ymm0,%ymm1
  b7:	c5 fd 69 c2          	vpunpckhwd %ymm2,%ymm0,%ymm0
  bb:	c5 fe 7f 0a          	vmovdqu %ymm1,(%rdx)
  bf:	c5 fe 7f 42 20       	vmovdqu %ymm0,0x20(%rdx)
  c4:	48 8d 52 40          	lea    0x40(%rdx),%rdx
  c8:	41 83 e8 10          	sub    $0x10,%r8d
  cc:	0f 8f 62 ff ff ff    	jg     34 <NV12ToARGBRow_AVX2+0x34>
  d2:	c5 f8 77             	vzeroupper 
  d5:	44 89 44 24 fc       	mov    %r8d,-0x4(%rsp)
  da:	c3                   	retq   

Disassembly of section .text.NV21ToARGBRow_AVX2:

0000000000000000 <NV21ToARGBRow_AVX2>:
   0:	44 89 44 24 fc       	mov    %r8d,-0x4(%rsp)
   5:	c5 7d 6f 01          	vmovdqa (%rcx),%ymm8
   9:	c5 7d 6f 49 20       	vmovdqa 0x20(%rcx),%ymm9
   e:	c5 7d 6f 51 40       	vmovdqa 0x40(%rcx),%ymm10
  13:	c5 7d 6f 59 60       	vmovdqa 0x60(%rcx),%ymm11
  18:	c5 7d 6f a1 80 00 00 	vmovdqa 0x80(%rcx),%ymm12
  1f:	00 
  20:	c5 7d 6f a9 a0 00 00 	vmovdqa 0xa0(%rcx),%ymm13
  27:	00 
  28:	c5 7d 6f b1 c0 00 00 	vmovdqa 0xc0(%rcx),%ymm14
  2f:	00 
  30:	c5 d5 74 ed          	vpcmpeqb %ymm5,%ymm5,%ymm5
  34:	c5 fa 6f 06          	vmovdqu (%rsi),%xmm0
  38:	48 8d 76 10          	lea    0x10(%rsi),%rsi
  3c:	c4 e3 fd 00 c0 d8    	vpermq $0xd8,%ymm0,%ymm0
  42:	c4 e2 7d 00 05 00 00 	vpshufb 0x0(%rip),%ymm0,%ymm0        # 4b <NV21ToARGBRow_AVX2+0x4b>
  49:	00 00 
  4b:	c5 fa 6f 27          	vmovdqu (%rdi),%xmm4
  4f:	c4 e3 fd 00 e4 d8    	vpermq $0xd8,%ymm4,%ymm4
  55:	c5 dd 60 e4          	vpunpcklbw %ymm4,%ymm4,%ymm4
  59:	48 8d 7f 10          	lea    0x10(%rdi),%rdi
  5d:	c4 c2 7d 04 d2       	vpmaddubsw %ymm10,%ymm0,%ymm2
  62:	c4 c2 7d 04 c9       	vpmaddubsw %ymm9,%ymm0,%ymm1
  67:	c4 c2 7d 04 c0       	vpmaddubsw %ymm8,%ymm0,%ymm0
  6c:	c5 95 f9 d2          	vpsubw %ymm2,%ymm13,%ymm2
  70:	c5 9d f9 c9          	vpsubw %ymm1,%ymm12,%ymm1
  74:	c5 a5 f9 c0          	vpsubw %ymm0,%ymm11,%ymm0
  78:	c4 c1 5d e4 e6       	vpmulhuw %ymm14,%ymm4,%ymm4
  7d:	c5 fd ed c4          	vpaddsw %ymm4,%ymm0,%ymm0
  81:	c5 f5 ed cc          	vpaddsw %ymm4,%ymm1,%ymm1
  85:	c5 ed ed d4          	vpaddsw %ymm4,%ymm2,%ymm2
  89:	c5 fd 71 e0 06       	vpsraw $0x6,%ymm0,%ymm0
  8e:	c5 f5 71 e1 06       	vpsraw $0x6,%ymm1,%ymm1
  93:	c5 ed 71 e2 06       	vpsraw $0x6,%ymm2,%ymm2
  98:	c5 fd 67 c0          	vpackuswb %ymm0,%ymm0,%ymm0
  9c:	c5 f5 67 c9          	vpackuswb %ymm1,%ymm1,%ymm1
  a0:	c5 ed 67 d2          	vpackuswb %ymm2,%ymm2,%ymm2
  a4:	c5 fd 60 c1          	vpunpcklbw %ymm1,%ymm0,%ymm0
  a8:	c4 e3 fd 00 c0 d8    	vpermq $0xd8,%ymm0,%ymm0
  ae:	c5 ed 60 d5          	vpunpcklbw %ymm5,%ymm2,%ymm2
  b2:	c4 e3 fd 00 d2 d8    	vpermq $0xd8,%ymm2,%ymm2
  b8:	c5 fd 61 ca          	vpunpcklwd %ymm2,%ymm0,%ymm1
  bc:	c5 fd 69 c2          	vpunpckhwd %ymm2,%ymm0,%ymm0
  c0:	c5 fe 7f 0a          	vmovdqu %ymm1,(%rdx)
  c4:	c5 fe 7f 42 20       	vmovdqu %ymm0,0x20(%rdx)
  c9:	48 8d 52 40          	lea    0x40(%rdx),%rdx
  cd:	41 83 e8 10          	sub    $0x10,%r8d
  d1:	0f 8f 5d ff ff ff    	jg     34 <NV21ToARGBRow_AVX2+0x34>
  d7:	c5 f8 77             	vzeroupper 
  da:	44 89 44 24 fc       	mov    %r8d,-0x4(%rsp)
  df:	c3                   	retq   

Disassembly of section .text.YUY2ToARGBRow_AVX2:

0000000000000000 <YUY2ToARGBRow_AVX2>:
   0:	89 4c 24 fc          	mov    %ecx,-0x4(%rsp)
   4:	c5 7d 6f 02          	vmovdqa (%rdx),%ymm8
   8:	c5 7d 6f 4a 20       	vmovdqa 0x20(%rdx),%ymm9
   d:	c5 7d 6f 52 40       	vmovdqa 0x40(%rdx),%ymm10
  12:	c5 7d 6f 5a 60       	vmovdqa 0x60(%rdx),%ymm11
  17:	c5 7d 6f a2 80 00 00 	vmovdqa 0x80(%rdx),%ymm12
  1e:	00 
  1f:	c5 7d 6f aa a0 00 00 	vmovdqa 0xa0(%rdx),%ymm13
  26:	00 
  27:	c5 7d 6f b2 c0 00 00 	vmovdqa 0xc0(%rdx),%ymm14
  2e:	00 
  2f:	c5 d5 74 ed          	vpcmpeqb %ymm5,%ymm5,%ymm5
  33:	c5 fe 6f 27          	vmovdqu (%rdi),%ymm4
  37:	c4 e2 5d 00 25 00 00 	vpshufb 0x0(%rip),%ymm4,%ymm4        # 40 <YUY2ToARGBRow_AVX2+0x40>
  3e:	00 00 
  40:	c5 fe 6f 07          	vmovdqu (%rdi),%ymm0
  44:	c4 e2 7d 00 05 00 00 	vpshufb 0x0(%rip),%ymm0,%ymm0        # 4d <YUY2ToARGBRow_AVX2+0x4d>
  4b:	00 00 
  4d:	48 8d 7f 20          	lea    0x20(%rdi),%rdi
  51:	c4 c2 7d 04 d2       	vpmaddubsw %ymm10,%ymm0,%ymm2
  56:	c4 c2 7d 04 c9       	vpmaddubsw %ymm9,%ymm0,%ymm1
  5b:	c4 c2 7d 04 c0       	vpmaddubsw %ymm8,%ymm0,%ymm0
  60:	c5 95 f9 d2          	vpsubw %ymm2,%ymm13,%ymm2
  64:	c5 9d f9 c9          	vpsubw %ymm1,%ymm12,%ymm1
  68:	c5 a5 f9 c0          	vpsubw %ymm0,%ymm11,%ymm0
  6c:	c4 c1 5d e4 e6       	vpmulhuw %ymm14,%ymm4,%ymm4
  71:	c5 fd ed c4          	vpaddsw %ymm4,%ymm0,%ymm0
  75:	c5 f5 ed cc          	vpaddsw %ymm4,%ymm1,%ymm1
  79:	c5 ed ed d4          	vpaddsw %ymm4,%ymm2,%ymm2
  7d:	c5 fd 71 e0 06       	vpsraw $0x6,%ymm0,%ymm0
  82:	c5 f5 71 e1 06       	vpsraw $0x6,%ymm1,%ymm1
  87:	c5 ed 71 e2 06       	vpsraw $0x6,%ymm2,%ymm2
  8c:	c5 fd 67 c0          	vpackuswb %ymm0,%ymm0,%ymm0
  90:	c5 f5 67 c9          	vpackuswb %ymm1,%ymm1,%ymm1
  94:	c5 ed 67 d2          	vpackuswb %ymm2,%ymm2,%ymm2
  98:	c5 fd 60 c1          	vpunpcklbw %ymm1,%ymm0,%ymm0
  9c:	c4 e3 fd 00 c0 d8    	vpermq $0xd8,%ymm0,%ymm0
  a2:	c5 ed 60 d5          	vpunpcklbw %ymm5,%ymm2,%ymm2
  a6:	c4 e3 fd 00 d2 d8    	vpermq $0xd8,%ymm2,%ymm2
  ac:	c5 fd 61 ca          	vpunpcklwd %ymm2,%ymm0,%ymm1
  b0:	c5 fd 69 c2          	vpunpckhwd %ymm2,%ymm0,%ymm0
  b4:	c5 fe 7f 0e          	vmovdqu %ymm1,(%rsi)
  b8:	c5 fe 7f 46 20       	vmovdqu %ymm0,0x20(%rsi)
  bd:	48 8d 76 40          	lea    0x40(%rsi),%rsi
  c1:	83 e9 10             	sub    $0x10,%ecx
  c4:	0f 8f 69 ff ff ff    	jg     33 <YUY2ToARGBRow_AVX2+0x33>
  ca:	c5 f8 77             	vzeroupper 
  cd:	89 4c 24 fc          	mov    %ecx,-0x4(%rsp)
  d1:	c3                   	retq   

Disassembly of section .text.UYVYToARGBRow_AVX2:

0000000000000000 <UYVYToARGBRow_AVX2>:
   0:	89 4c 24 fc          	mov    %ecx,-0x4(%rsp)
   4:	c5 7d 6f 02          	vmovdqa (%rdx),%ymm8
   8:	c5 7d 6f 4a 20       	vmovdqa 0x20(%rdx),%ymm9
   d:	c5 7d 6f 52 40       	vmovdqa 0x40(%rdx),%ymm10
  12:	c5 7d 6f 5a 60       	vmovdqa 0x60(%rdx),%ymm11
  17:	c5 7d 6f a2 80 00 00 	vmovdqa 0x80(%rdx),%ymm12
  1e:	00 
  1f:	c5 7d 6f aa a0 00 00 	vmovdqa 0xa0(%rdx),%ymm13
  26:	00 
  27:	c5 7d 6f b2 c0 00 00 	vmovdqa 0xc0(%rdx),%ymm14
  2e:	00 
  2f:	c5 d5 74 ed          	vpcmpeqb %ymm5,%ymm5,%ymm5
  33:	c5 fe 6f 27          	vmovdqu (%rdi),%ymm4
  37:	c4 e2 5d 00 25 00 00 	vpshufb 0x0(%rip),%ymm4,%ymm4        # 40 <UYVYToARGBRow_AVX2+0x40>
  3e:	00 00 
  40:	c5 fe 6f 07          	vmovdqu (%rdi),%ymm0
  44:	c4 e2 7d 00 05 00 00 	vpshufb 0x0(%rip),%ymm0,%ymm0        # 4d <UYVYToARGBRow_AVX2+0x4d>
  4b:	00 00 
  4d:	48 8d 7f 20          	lea    0x20(%rdi),%rdi
  51:	c4 c2 7d 04 d2       	vpmaddubsw %ymm10,%ymm0,%ymm2
  56:	c4 c2 7d 04 c9       	vpmaddubsw %ymm9,%ymm0,%ymm1
  5b:	c4 c2 7d 04 c0       	vpmaddubsw %ymm8,%ymm0,%ymm0
  60:	c5 95 f9 d2          	vpsubw %ymm2,%ymm13,%ymm2
  64:	c5 9d f9 c9          	vpsubw %ymm1,%ymm12,%ymm1
  68:	c5 a5 f9 c0          	vpsubw %ymm0,%ymm11,%ymm0
  6c:	c4 c1 5d e4 e6       	vpmulhuw %ymm14,%ymm4,%ymm4
  71:	c5 fd ed c4          	vpaddsw %ymm4,%ymm0,%ymm0
  75:	c5 f5 ed cc          	vpaddsw %ymm4,%ymm1,%ymm1
  79:	c5 ed ed d4          	vpaddsw %ymm4,%ymm2,%ymm2
  7d:	c5 fd 71 e0 06       	vpsraw $0x6,%ymm0,%ymm0
  82:	c5 f5 71 e1 06       	vpsraw $0x6,%ymm1,%ymm1
  87:	c5 ed 71 e2 06       	vpsraw $0x6,%ymm2,%ymm2
  8c:	c5 fd 67 c0          	vpackuswb %ymm0,%ymm0,%ymm0
  90:	c5 f5 67 c9          	vpackuswb %ymm1,%ymm1,%ymm1
  94:	c5 ed 67 d2          	vpackuswb %ymm2,%ymm2,%ymm2
  98:	c5 fd 60 c1          	vpunpcklbw %ymm1,%ymm0,%ymm0
  9c:	c4 e3 fd 00 c0 d8    	vpermq $0xd8,%ymm0,%ymm0
  a2:	c5 ed 60 d5          	vpunpcklbw %ymm5,%ymm2,%ymm2
  a6:	c4 e3 fd 00 d2 d8    	vpermq $0xd8,%ymm2,%ymm2
  ac:	c5 fd 61 ca          	vpunpcklwd %ymm2,%ymm0,%ymm1
  b0:	c5 fd 69 c2          	vpunpckhwd %ymm2,%ymm0,%ymm0
  b4:	c5 fe 7f 0e          	vmovdqu %ymm1,(%rsi)
  b8:	c5 fe 7f 46 20       	vmovdqu %ymm0,0x20(%rsi)
  bd:	48 8d 76 40          	lea    0x40(%rsi),%rsi
  c1:	83 e9 10             	sub    $0x10,%ecx
  c4:	0f 8f 69 ff ff ff    	jg     33 <UYVYToARGBRow_AVX2+0x33>
  ca:	c5 f8 77             	vzeroupper 
  cd:	89 4c 24 fc          	mov    %ecx,-0x4(%rsp)
  d1:	c3                   	retq   

Disassembly of section .text.I400ToARGBRow_SSE2:

0000000000000000 <I400ToARGBRow_SSE2>:
   0:	89 54 24 fc          	mov    %edx,-0x4(%rsp)
   4:	b8 35 4a 35 4a       	mov    $0x4a354a35,%eax
   9:	66 0f 6e d0          	movd   %eax,%xmm2
   d:	66 0f 70 d2 00       	pshufd $0x0,%xmm2,%xmm2
  12:	b8 88 04 88 04       	mov    $0x4880488,%eax
  17:	66 0f 6e d8          	movd   %eax,%xmm3
  1b:	66 0f 70 db 00       	pshufd $0x0,%xmm3,%xmm3
  20:	66 0f 74 e4          	pcmpeqb %xmm4,%xmm4
  24:	66 0f 72 f4 18       	pslld  $0x18,%xmm4
  29:	f3 0f 7e 07          	movq   (%rdi),%xmm0
  2d:	48 8d 7f 08          	lea    0x8(%rdi),%rdi
  31:	66 0f 60 c0          	punpcklbw %xmm0,%xmm0
  35:	66 0f e4 c2          	pmulhuw %xmm2,%xmm0
  39:	66 0f d9 c3          	psubusw %xmm3,%xmm0
  3d:	66 0f 71 d0 06       	psrlw  $0x6,%xmm0
  42:	66 0f 67 c0          	packuswb %xmm0,%xmm0
  46:	66 0f 60 c0          	punpcklbw %xmm0,%xmm0
  4a:	66 0f 6f c8          	movdqa %xmm0,%xmm1
  4e:	66 0f 61 c0          	punpcklwd %xmm0,%xmm0
  52:	66 0f 69 c9          	punpckhwd %xmm1,%xmm1
  56:	66 0f eb c4          	por    %xmm4,%xmm0
  5a:	66 0f eb cc          	por    %xmm4,%xmm1
  5e:	f3 0f 7f 06          	movdqu %xmm0,(%rsi)
  62:	f3 0f 7f 4e 10       	movdqu %xmm1,0x10(%rsi)
  67:	48 8d 76 20          	lea    0x20(%rsi),%rsi
  6b:	83 ea 08             	sub    $0x8,%edx
  6e:	7f b9                	jg     29 <I400ToARGBRow_SSE2+0x29>
  70:	89 54 24 fc          	mov    %edx,-0x4(%rsp)
  74:	c3                   	retq   

Disassembly of section .text.I400ToARGBRow_AVX2:

0000000000000000 <I400ToARGBRow_AVX2>:
   0:	89 54 24 fc          	mov    %edx,-0x4(%rsp)
   4:	b8 35 4a 35 4a       	mov    $0x4a354a35,%eax
   9:	c5 f9 6e d0          	vmovd  %eax,%xmm2
   d:	c4 e2 7d 18 d2       	vbroadcastss %xmm2,%ymm2
  12:	b8 88 04 88 04       	mov    $0x4880488,%eax
  17:	c5 f9 6e d8          	vmovd  %eax,%xmm3
  1b:	c4 e2 7d 18 db       	vbroadcastss %xmm3,%ymm3
  20:	c5 dd 74 e4          	vpcmpeqb %ymm4,%ymm4,%ymm4
  24:	c5 dd 72 f4 18       	vpslld $0x18,%ymm4,%ymm4
  29:	c5 fa 6f 07          	vmovdqu (%rdi),%xmm0
  2d:	48 8d 7f 10          	lea    0x10(%rdi),%rdi
  31:	c4 e3 fd 00 c0 d8    	vpermq $0xd8,%ymm0,%ymm0
  37:	c5 fd 60 c0          	vpunpcklbw %ymm0,%ymm0,%ymm0
  3b:	c5 fd e4 c2          	vpmulhuw %ymm2,%ymm0,%ymm0
  3f:	c5 fd d9 c3          	vpsubusw %ymm3,%ymm0,%ymm0
  43:	c5 fd 71 d0 06       	vpsrlw $0x6,%ymm0,%ymm0
  48:	c5 fd 67 c0          	vpackuswb %ymm0,%ymm0,%ymm0
  4c:	c5 fd 60 c8          	vpunpcklbw %ymm0,%ymm0,%ymm1
  50:	c4 e3 fd 00 c9 d8    	vpermq $0xd8,%ymm1,%ymm1
  56:	c5 f5 61 c1          	vpunpcklwd %ymm1,%ymm1,%ymm0
  5a:	c5 f5 69 c9          	vpunpckhwd %ymm1,%ymm1,%ymm1
  5e:	c5 fd eb c4          	vpor   %ymm4,%ymm0,%ymm0
  62:	c5 f5 eb cc          	vpor   %ymm4,%ymm1,%ymm1
  66:	c5 fe 7f 06          	vmovdqu %ymm0,(%rsi)
  6a:	c5 fe 7f 4e 20       	vmovdqu %ymm1,0x20(%rsi)
  6f:	48 8d 76 40          	lea    0x40(%rsi),%rsi
  73:	83 ea 10             	sub    $0x10,%edx
  76:	7f b1                	jg     29 <I400ToARGBRow_AVX2+0x29>
  78:	c5 f8 77             	vzeroupper 
  7b:	89 54 24 fc          	mov    %edx,-0x4(%rsp)
  7f:	c3                   	retq   

Disassembly of section .text.MirrorRow_SSSE3:

0000000000000000 <MirrorRow_SSSE3>:
   0:	48 63 c2             	movslq %edx,%rax
   3:	66 0f 6f 2d 00 00 00 	movdqa 0x0(%rip),%xmm5        # b <MirrorRow_SSSE3+0xb>
   a:	00 
   b:	f3 0f 6f 44 07 f0    	movdqu -0x10(%rdi,%rax,1),%xmm0
  11:	66 0f 38 00 c5       	pshufb %xmm5,%xmm0
  16:	f3 0f 7f 06          	movdqu %xmm0,(%rsi)
  1a:	48 8d 76 10          	lea    0x10(%rsi),%rsi
  1e:	48 83 e8 10          	sub    $0x10,%rax
  22:	7f e7                	jg     b <MirrorRow_SSSE3+0xb>
  24:	c3                   	retq   

Disassembly of section .text.MirrorRow_AVX2:

0000000000000000 <MirrorRow_AVX2>:
   0:	48 63 c2             	movslq %edx,%rax
   3:	c4 e2 7d 1a 2d 00 00 	vbroadcastf128 0x0(%rip),%ymm5        # c <MirrorRow_AVX2+0xc>
   a:	00 00 
   c:	c5 fe 6f 44 07 e0    	vmovdqu -0x20(%rdi,%rax,1),%ymm0
  12:	c4 e2 7d 00 c5       	vpshufb %ymm5,%ymm0,%ymm0
  17:	c4 e3 fd 00 c0 4e    	vpermq $0x4e,%ymm0,%ymm0
  1d:	c5 fe 7f 06          	vmovdqu %ymm0,(%rsi)
  21:	48 8d 76 20          	lea    0x20(%rsi),%rsi
  25:	48 83 e8 20          	sub    $0x20,%rax
  29:	7f e1                	jg     c <MirrorRow_AVX2+0xc>
  2b:	c5 f8 77             	vzeroupper 
  2e:	c3                   	retq   

Disassembly of section .text.MirrorUVRow_SSSE3:

0000000000000000 <MirrorUVRow_SSSE3>:
   0:	48 63 c1             	movslq %ecx,%rax
   3:	66 0f 6f 0d 00 00 00 	movdqa 0x0(%rip),%xmm1        # b <MirrorUVRow_SSSE3+0xb>
   a:	00 
   b:	48 8d 7c 47 f0       	lea    -0x10(%rdi,%rax,2),%rdi
  10:	48 29 f2             	sub    %rsi,%rdx
  13:	f3 0f 6f 07          	movdqu (%rdi),%xmm0
  17:	48 8d 7f f0          	lea    -0x10(%rdi),%rdi
  1b:	66 0f 38 00 c1       	pshufb %xmm1,%xmm0
  20:	66 0f 13 06          	movlpd %xmm0,(%rsi)
  24:	66 0f 17 04 16       	movhpd %xmm0,(%rsi,%rdx,1)
  29:	48 8d 76 08          	lea    0x8(%rsi),%rsi
  2d:	48 83 e8 08          	sub    $0x8,%rax
  31:	7f e0                	jg     13 <MirrorUVRow_SSSE3+0x13>
  33:	c3                   	retq   

Disassembly of section .text.ARGBMirrorRow_SSE2:

0000000000000000 <ARGBMirrorRow_SSE2>:
   0:	48 63 c2             	movslq %edx,%rax
   3:	48 8d 7c 87 f0       	lea    -0x10(%rdi,%rax,4),%rdi
   8:	f3 0f 6f 07          	movdqu (%rdi),%xmm0
   c:	66 0f 70 c0 1b       	pshufd $0x1b,%xmm0,%xmm0
  11:	48 8d 7f f0          	lea    -0x10(%rdi),%rdi
  15:	f3 0f 7f 06          	movdqu %xmm0,(%rsi)
  19:	48 8d 76 10          	lea    0x10(%rsi),%rsi
  1d:	48 83 e8 04          	sub    $0x4,%rax
  21:	7f e5                	jg     8 <ARGBMirrorRow_SSE2+0x8>
  23:	c3                   	retq   

Disassembly of section .text.ARGBMirrorRow_AVX2:

0000000000000000 <ARGBMirrorRow_AVX2>:
   0:	48 63 c2             	movslq %edx,%rax
   3:	c5 fe 6f 2d 00 00 00 	vmovdqu 0x0(%rip),%ymm5        # b <ARGBMirrorRow_AVX2+0xb>
   a:	00 
   b:	c4 e2 55 36 44 87 e0 	vpermd -0x20(%rdi,%rax,4),%ymm5,%ymm0
  12:	c5 fe 7f 06          	vmovdqu %ymm0,(%rsi)
  16:	48 8d 76 20          	lea    0x20(%rsi),%rsi
  1a:	48 83 e8 08          	sub    $0x8,%rax
  1e:	7f eb                	jg     b <ARGBMirrorRow_AVX2+0xb>
  20:	c5 f8 77             	vzeroupper 
  23:	c3                   	retq   

Disassembly of section .text.SplitUVRow_AVX2:

0000000000000000 <SplitUVRow_AVX2>:
   0:	c5 d5 74 ed          	vpcmpeqb %ymm5,%ymm5,%ymm5
   4:	c5 d5 71 d5 08       	vpsrlw $0x8,%ymm5,%ymm5
   9:	48 29 f2             	sub    %rsi,%rdx
   c:	c5 fe 6f 07          	vmovdqu (%rdi),%ymm0
  10:	c5 fe 6f 4f 20       	vmovdqu 0x20(%rdi),%ymm1
  15:	48 8d 7f 40          	lea    0x40(%rdi),%rdi
  19:	c5 ed 71 d0 08       	vpsrlw $0x8,%ymm0,%ymm2
  1e:	c5 e5 71 d1 08       	vpsrlw $0x8,%ymm1,%ymm3
  23:	c5 fd db c5          	vpand  %ymm5,%ymm0,%ymm0
  27:	c5 f5 db cd          	vpand  %ymm5,%ymm1,%ymm1
  2b:	c5 fd 67 c1          	vpackuswb %ymm1,%ymm0,%ymm0
  2f:	c5 ed 67 d3          	vpackuswb %ymm3,%ymm2,%ymm2
  33:	c4 e3 fd 00 c0 d8    	vpermq $0xd8,%ymm0,%ymm0
  39:	c4 e3 fd 00 d2 d8    	vpermq $0xd8,%ymm2,%ymm2
  3f:	c5 fe 7f 06          	vmovdqu %ymm0,(%rsi)
  43:	c5 fe 7f 14 16       	vmovdqu %ymm2,(%rsi,%rdx,1)
  48:	48 8d 76 20          	lea    0x20(%rsi),%rsi
  4c:	83 e9 20             	sub    $0x20,%ecx
  4f:	7f bb                	jg     c <SplitUVRow_AVX2+0xc>
  51:	c5 f8 77             	vzeroupper 
  54:	c3                   	retq   

Disassembly of section .text.SplitUVRow_SSE2:

0000000000000000 <SplitUVRow_SSE2>:
   0:	66 0f 74 ed          	pcmpeqb %xmm5,%xmm5
   4:	66 0f 71 d5 08       	psrlw  $0x8,%xmm5
   9:	48 29 f2             	sub    %rsi,%rdx
   c:	f3 0f 6f 07          	movdqu (%rdi),%xmm0
  10:	f3 0f 6f 4f 10       	movdqu 0x10(%rdi),%xmm1
  15:	48 8d 7f 20          	lea    0x20(%rdi),%rdi
  19:	66 0f 6f d0          	movdqa %xmm0,%xmm2
  1d:	66 0f 6f d9          	movdqa %xmm1,%xmm3
  21:	66 0f db c5          	pand   %xmm5,%xmm0
  25:	66 0f db cd          	pand   %xmm5,%xmm1
  29:	66 0f 67 c1          	packuswb %xmm1,%xmm0
  2d:	66 0f 71 d2 08       	psrlw  $0x8,%xmm2
  32:	66 0f 71 d3 08       	psrlw  $0x8,%xmm3
  37:	66 0f 67 d3          	packuswb %xmm3,%xmm2
  3b:	f3 0f 7f 06          	movdqu %xmm0,(%rsi)
  3f:	f3 0f 7f 14 16       	movdqu %xmm2,(%rsi,%rdx,1)
  44:	48 8d 76 10          	lea    0x10(%rsi),%rsi
  48:	83 e9 10             	sub    $0x10,%ecx
  4b:	7f bf                	jg     c <SplitUVRow_SSE2+0xc>
  4d:	c3                   	retq   

Disassembly of section .text.MergeUVRow_AVX2:

0000000000000000 <MergeUVRow_AVX2>:
   0:	48 29 fe             	sub    %rdi,%rsi
   3:	c5 fe 6f 07          	vmovdqu (%rdi),%ymm0
   7:	c5 fe 6f 0c 37       	vmovdqu (%rdi,%rsi,1),%ymm1
   c:	48 8d 7f 20          	lea    0x20(%rdi),%rdi
  10:	c5 fd 60 d1          	vpunpcklbw %ymm1,%ymm0,%ymm2
  14:	c5 fd 68 c1          	vpunpckhbw %ymm1,%ymm0,%ymm0
  18:	c4 e3 7d 19 12 00    	vextractf128 $0x0,%ymm2,(%rdx)
  1e:	c4 e3 7d 19 42 10 00 	vextractf128 $0x0,%ymm0,0x10(%rdx)
  25:	c4 e3 7d 19 52 20 01 	vextractf128 $0x1,%ymm2,0x20(%rdx)
  2c:	c4 e3 7d 19 42 30 01 	vextractf128 $0x1,%ymm0,0x30(%rdx)
  33:	48 8d 52 40          	lea    0x40(%rdx),%rdx
  37:	83 e9 20             	sub    $0x20,%ecx
  3a:	7f c7                	jg     3 <MergeUVRow_AVX2+0x3>
  3c:	c5 f8 77             	vzeroupper 
  3f:	c3                   	retq   

Disassembly of section .text.MergeUVRow_SSE2:

0000000000000000 <MergeUVRow_SSE2>:
   0:	48 29 fe             	sub    %rdi,%rsi
   3:	f3 0f 6f 07          	movdqu (%rdi),%xmm0
   7:	f3 0f 6f 0c 37       	movdqu (%rdi,%rsi,1),%xmm1
   c:	48 8d 7f 10          	lea    0x10(%rdi),%rdi
  10:	66 0f 6f d0          	movdqa %xmm0,%xmm2
  14:	66 0f 60 c1          	punpcklbw %xmm1,%xmm0
  18:	66 0f 68 d1          	punpckhbw %xmm1,%xmm2
  1c:	f3 0f 7f 02          	movdqu %xmm0,(%rdx)
  20:	f3 0f 7f 52 10       	movdqu %xmm2,0x10(%rdx)
  25:	48 8d 52 20          	lea    0x20(%rdx),%rdx
  29:	83 e9 10             	sub    $0x10,%ecx
  2c:	7f d5                	jg     3 <MergeUVRow_SSE2+0x3>
  2e:	c3                   	retq   

Disassembly of section .text.MergeUVRow_16_AVX2:

0000000000000000 <MergeUVRow_16_AVX2>:
   0:	c5 f9 6e d9          	vmovd  %ecx,%xmm3
   4:	c5 e1 61 db          	vpunpcklwd %xmm3,%xmm3,%xmm3
   8:	c4 e2 7d 18 db       	vbroadcastss %xmm3,%ymm3
   d:	48 29 fe             	sub    %rdi,%rsi
  10:	c5 fe 6f 07          	vmovdqu (%rdi),%ymm0
  14:	c5 fe 6f 0c 37       	vmovdqu (%rdi,%rsi,1),%ymm1
  19:	48 83 c7 20          	add    $0x20,%rdi
  1d:	c5 fd d5 c3          	vpmullw %ymm3,%ymm0,%ymm0
  21:	c5 f5 d5 cb          	vpmullw %ymm3,%ymm1,%ymm1
  25:	c5 fd 61 d1          	vpunpcklwd %ymm1,%ymm0,%ymm2
  29:	c5 fd 69 c1          	vpunpckhwd %ymm1,%ymm0,%ymm0
  2d:	c4 e3 7d 19 12 00    	vextractf128 $0x0,%ymm2,(%rdx)
  33:	c4 e3 7d 19 42 10 00 	vextractf128 $0x0,%ymm0,0x10(%rdx)
  3a:	c4 e3 7d 19 52 20 01 	vextractf128 $0x1,%ymm2,0x20(%rdx)
  41:	c4 e3 7d 19 42 30 01 	vextractf128 $0x1,%ymm0,0x30(%rdx)
  48:	48 83 c2 40          	add    $0x40,%rdx
  4c:	41 83 e8 10          	sub    $0x10,%r8d
  50:	7f be                	jg     10 <MergeUVRow_16_AVX2+0x10>
  52:	c5 f8 77             	vzeroupper 
  55:	c3                   	retq   

Disassembly of section .text.MultiplyRow_16_AVX2:

0000000000000000 <MultiplyRow_16_AVX2>:
   0:	c5 f9 6e da          	vmovd  %edx,%xmm3
   4:	c5 e1 61 db          	vpunpcklwd %xmm3,%xmm3,%xmm3
   8:	c4 e2 7d 18 db       	vbroadcastss %xmm3,%ymm3
   d:	48 29 fe             	sub    %rdi,%rsi
  10:	c5 fe 6f 07          	vmovdqu (%rdi),%ymm0
  14:	c5 fe 6f 4f 20       	vmovdqu 0x20(%rdi),%ymm1
  19:	c5 fd d5 c3          	vpmullw %ymm3,%ymm0,%ymm0
  1d:	c5 f5 d5 cb          	vpmullw %ymm3,%ymm1,%ymm1
  21:	c5 fe 7f 04 37       	vmovdqu %ymm0,(%rdi,%rsi,1)
  26:	c5 fe 7f 4c 37 20    	vmovdqu %ymm1,0x20(%rdi,%rsi,1)
  2c:	48 83 c7 40          	add    $0x40,%rdi
  30:	83 e9 20             	sub    $0x20,%ecx
  33:	7f db                	jg     10 <MultiplyRow_16_AVX2+0x10>
  35:	c5 f8 77             	vzeroupper 
  38:	c3                   	retq   

Disassembly of section .text.Convert16To8Row_SSSE3:

0000000000000000 <Convert16To8Row_SSSE3>:
   0:	66 0f 6e d2          	movd   %edx,%xmm2
   4:	66 0f 61 d2          	punpcklwd %xmm2,%xmm2
   8:	66 0f 70 d2 00       	pshufd $0x0,%xmm2,%xmm2
   d:	f3 0f 6f 07          	movdqu (%rdi),%xmm0
  11:	f3 0f 6f 4f 10       	movdqu 0x10(%rdi),%xmm1
  16:	48 83 c7 20          	add    $0x20,%rdi
  1a:	66 0f e4 c2          	pmulhuw %xmm2,%xmm0
  1e:	66 0f e4 ca          	pmulhuw %xmm2,%xmm1
  22:	66 0f 67 c1          	packuswb %xmm1,%xmm0
  26:	f3 0f 7f 06          	movdqu %xmm0,(%rsi)
  2a:	48 83 c6 10          	add    $0x10,%rsi
  2e:	83 e9 10             	sub    $0x10,%ecx
  31:	7f da                	jg     d <Convert16To8Row_SSSE3+0xd>
  33:	c3                   	retq   

Disassembly of section .text.Convert16To8Row_AVX2:

0000000000000000 <Convert16To8Row_AVX2>:
   0:	c5 f9 6e d2          	vmovd  %edx,%xmm2
   4:	c5 e9 61 d2          	vpunpcklwd %xmm2,%xmm2,%xmm2
   8:	c4 e2 7d 18 d2       	vbroadcastss %xmm2,%ymm2
   d:	c5 fe 6f 07          	vmovdqu (%rdi),%ymm0
  11:	c5 fe 6f 4f 20       	vmovdqu 0x20(%rdi),%ymm1
  16:	48 83 c7 40          	add    $0x40,%rdi
  1a:	c5 fd e4 c2          	vpmulhuw %ymm2,%ymm0,%ymm0
  1e:	c5 f5 e4 ca          	vpmulhuw %ymm2,%ymm1,%ymm1
  22:	c5 fd 67 c1          	vpackuswb %ymm1,%ymm0,%ymm0
  26:	c4 e3 fd 00 c0 d8    	vpermq $0xd8,%ymm0,%ymm0
  2c:	c5 fe 7f 06          	vmovdqu %ymm0,(%rsi)
  30:	48 83 c6 20          	add    $0x20,%rsi
  34:	83 e9 20             	sub    $0x20,%ecx
  37:	7f d4                	jg     d <Convert16To8Row_AVX2+0xd>
  39:	c5 f8 77             	vzeroupper 
  3c:	c3                   	retq   

Disassembly of section .text.Convert8To16Row_SSE2:

0000000000000000 <Convert8To16Row_SSE2>:
   0:	66 0f 6e d2          	movd   %edx,%xmm2
   4:	66 0f 61 d2          	punpcklwd %xmm2,%xmm2
   8:	66 0f 70 d2 00       	pshufd $0x0,%xmm2,%xmm2
   d:	f3 0f 6f 07          	movdqu (%rdi),%xmm0
  11:	66 0f 6f c8          	movdqa %xmm0,%xmm1
  15:	66 0f 60 c0          	punpcklbw %xmm0,%xmm0
  19:	66 0f 68 c9          	punpckhbw %xmm1,%xmm1
  1d:	48 83 c7 10          	add    $0x10,%rdi
  21:	66 0f e4 c2          	pmulhuw %xmm2,%xmm0
  25:	66 0f e4 ca          	pmulhuw %xmm2,%xmm1
  29:	f3 0f 7f 06          	movdqu %xmm0,(%rsi)
  2d:	f3 0f 7f 4e 10       	movdqu %xmm1,0x10(%rsi)
  32:	48 83 c6 20          	add    $0x20,%rsi
  36:	83 e9 10             	sub    $0x10,%ecx
  39:	7f d2                	jg     d <Convert8To16Row_SSE2+0xd>
  3b:	c3                   	retq   

Disassembly of section .text.Convert8To16Row_AVX2:

0000000000000000 <Convert8To16Row_AVX2>:
   0:	c5 f9 6e d2          	vmovd  %edx,%xmm2
   4:	c5 e9 61 d2          	vpunpcklwd %xmm2,%xmm2,%xmm2
   8:	c4 e2 7d 18 d2       	vbroadcastss %xmm2,%ymm2
   d:	c5 fe 6f 07          	vmovdqu (%rdi),%ymm0
  11:	c4 e3 fd 00 c0 d8    	vpermq $0xd8,%ymm0,%ymm0
  17:	48 83 c7 20          	add    $0x20,%rdi
  1b:	c5 fd 68 c8          	vpunpckhbw %ymm0,%ymm0,%ymm1
  1f:	c5 fd 60 c0          	vpunpcklbw %ymm0,%ymm0,%ymm0
  23:	c5 fd e4 c2          	vpmulhuw %ymm2,%ymm0,%ymm0
  27:	c5 f5 e4 ca          	vpmulhuw %ymm2,%ymm1,%ymm1
  2b:	c5 fe 7f 06          	vmovdqu %ymm0,(%rsi)
  2f:	c5 fe 7f 4e 20       	vmovdqu %ymm1,0x20(%rsi)
  34:	48 83 c6 40          	add    $0x40,%rsi
  38:	83 e9 20             	sub    $0x20,%ecx
  3b:	7f d0                	jg     d <Convert8To16Row_AVX2+0xd>
  3d:	c5 f8 77             	vzeroupper 
  40:	c3                   	retq   

Disassembly of section .text.SplitRGBRow_SSSE3:

0000000000000000 <SplitRGBRow_SSSE3>:
   0:	f3 0f 6f 07          	movdqu (%rdi),%xmm0
   4:	f3 0f 6f 4f 10       	movdqu 0x10(%rdi),%xmm1
   9:	f3 0f 6f 57 20       	movdqu 0x20(%rdi),%xmm2
   e:	66 0f 38 00 05 00 00 	pshufb 0x0(%rip),%xmm0        # 17 <SplitRGBRow_SSSE3+0x17>
  15:	00 00 
  17:	66 0f 38 00 0d 00 00 	pshufb 0x0(%rip),%xmm1        # 20 <SplitRGBRow_SSSE3+0x20>
  1e:	00 00 
  20:	66 0f 38 00 15 00 00 	pshufb 0x0(%rip),%xmm2        # 29 <SplitRGBRow_SSSE3+0x29>
  27:	00 00 
  29:	66 0f eb c1          	por    %xmm1,%xmm0
  2d:	66 0f eb c2          	por    %xmm2,%xmm0
  31:	f3 0f 7f 06          	movdqu %xmm0,(%rsi)
  35:	48 8d 76 10          	lea    0x10(%rsi),%rsi
  39:	f3 0f 6f 07          	movdqu (%rdi),%xmm0
  3d:	f3 0f 6f 4f 10       	movdqu 0x10(%rdi),%xmm1
  42:	f3 0f 6f 57 20       	movdqu 0x20(%rdi),%xmm2
  47:	66 0f 38 00 05 00 00 	pshufb 0x0(%rip),%xmm0        # 50 <SplitRGBRow_SSSE3+0x50>
  4e:	00 00 
  50:	66 0f 38 00 0d 00 00 	pshufb 0x0(%rip),%xmm1        # 59 <SplitRGBRow_SSSE3+0x59>
  57:	00 00 
  59:	66 0f 38 00 15 00 00 	pshufb 0x0(%rip),%xmm2        # 62 <SplitRGBRow_SSSE3+0x62>
  60:	00 00 
  62:	66 0f eb c1          	por    %xmm1,%xmm0
  66:	66 0f eb c2          	por    %xmm2,%xmm0
  6a:	f3 0f 7f 02          	movdqu %xmm0,(%rdx)
  6e:	48 8d 52 10          	lea    0x10(%rdx),%rdx
  72:	f3 0f 6f 07          	movdqu (%rdi),%xmm0
  76:	f3 0f 6f 4f 10       	movdqu 0x10(%rdi),%xmm1
  7b:	f3 0f 6f 57 20       	movdqu 0x20(%rdi),%xmm2
  80:	66 0f 38 00 05 00 00 	pshufb 0x0(%rip),%xmm0        # 89 <SplitRGBRow_SSSE3+0x89>
  87:	00 00 
  89:	66 0f 38 00 0d 00 00 	pshufb 0x0(%rip),%xmm1        # 92 <SplitRGBRow_SSSE3+0x92>
  90:	00 00 
  92:	66 0f 38 00 15 00 00 	pshufb 0x0(%rip),%xmm2        # 9b <SplitRGBRow_SSSE3+0x9b>
  99:	00 00 
  9b:	66 0f eb c1          	por    %xmm1,%xmm0
  9f:	66 0f eb c2          	por    %xmm2,%xmm0
  a3:	f3 0f 7f 01          	movdqu %xmm0,(%rcx)
  a7:	48 8d 49 10          	lea    0x10(%rcx),%rcx
  ab:	48 8d 7f 30          	lea    0x30(%rdi),%rdi
  af:	41 83 e8 10          	sub    $0x10,%r8d
  b3:	0f 8f 47 ff ff ff    	jg     0 <SplitRGBRow_SSSE3>
  b9:	c3                   	retq   

Disassembly of section .text.MergeRGBRow_SSSE3:

0000000000000000 <MergeRGBRow_SSSE3>:
   0:	f3 0f 6f 07          	movdqu (%rdi),%xmm0
   4:	f3 0f 6f 0e          	movdqu (%rsi),%xmm1
   8:	f3 0f 6f 12          	movdqu (%rdx),%xmm2
   c:	66 0f 38 00 05 00 00 	pshufb 0x0(%rip),%xmm0        # 15 <MergeRGBRow_SSSE3+0x15>
  13:	00 00 
  15:	66 0f 38 00 0d 00 00 	pshufb 0x0(%rip),%xmm1        # 1e <MergeRGBRow_SSSE3+0x1e>
  1c:	00 00 
  1e:	66 0f 38 00 15 00 00 	pshufb 0x0(%rip),%xmm2        # 27 <MergeRGBRow_SSSE3+0x27>
  25:	00 00 
  27:	66 0f eb c1          	por    %xmm1,%xmm0
  2b:	66 0f eb c2          	por    %xmm2,%xmm0
  2f:	f3 0f 7f 01          	movdqu %xmm0,(%rcx)
  33:	f3 0f 6f 07          	movdqu (%rdi),%xmm0
  37:	f3 0f 6f 0e          	movdqu (%rsi),%xmm1
  3b:	f3 0f 6f 12          	movdqu (%rdx),%xmm2
  3f:	66 0f 38 00 05 00 00 	pshufb 0x0(%rip),%xmm0        # 48 <MergeRGBRow_SSSE3+0x48>
  46:	00 00 
  48:	66 0f 38 00 0d 00 00 	pshufb 0x0(%rip),%xmm1        # 51 <MergeRGBRow_SSSE3+0x51>
  4f:	00 00 
  51:	66 0f 38 00 15 00 00 	pshufb 0x0(%rip),%xmm2        # 5a <MergeRGBRow_SSSE3+0x5a>
  58:	00 00 
  5a:	66 0f eb c1          	por    %xmm1,%xmm0
  5e:	66 0f eb c2          	por    %xmm2,%xmm0
  62:	f3 0f 7f 41 10       	movdqu %xmm0,0x10(%rcx)
  67:	f3 0f 6f 07          	movdqu (%rdi),%xmm0
  6b:	f3 0f 6f 0e          	movdqu (%rsi),%xmm1
  6f:	f3 0f 6f 12          	movdqu (%rdx),%xmm2
  73:	66 0f 38 00 05 00 00 	pshufb 0x0(%rip),%xmm0        # 7c <MergeRGBRow_SSSE3+0x7c>
  7a:	00 00 
  7c:	66 0f 38 00 0d 00 00 	pshufb 0x0(%rip),%xmm1        # 85 <MergeRGBRow_SSSE3+0x85>
  83:	00 00 
  85:	66 0f 38 00 15 00 00 	pshufb 0x0(%rip),%xmm2        # 8e <MergeRGBRow_SSSE3+0x8e>
  8c:	00 00 
  8e:	66 0f eb c1          	por    %xmm1,%xmm0
  92:	66 0f eb c2          	por    %xmm2,%xmm0
  96:	f3 0f 7f 41 20       	movdqu %xmm0,0x20(%rcx)
  9b:	48 8d 7f 10          	lea    0x10(%rdi),%rdi
  9f:	48 8d 76 10          	lea    0x10(%rsi),%rsi
  a3:	48 8d 52 10          	lea    0x10(%rdx),%rdx
  a7:	48 8d 49 30          	lea    0x30(%rcx),%rcx
  ab:	41 83 e8 10          	sub    $0x10,%r8d
  af:	0f 8f 4b ff ff ff    	jg     0 <MergeRGBRow_SSSE3>
  b5:	c3                   	retq   

Disassembly of section .text.CopyRow_SSE2:

0000000000000000 <CopyRow_SSE2>:
   0:	48 f7 c7 0f 00 00 00 	test   $0xf,%rdi
   7:	75 2a                	jne    33 <CopyRow_SSE2+0x33>
   9:	48 f7 c6 0f 00 00 00 	test   $0xf,%rsi
  10:	75 21                	jne    33 <CopyRow_SSE2+0x33>
  12:	66 0f 6f 07          	movdqa (%rdi),%xmm0
  16:	66 0f 6f 4f 10       	movdqa 0x10(%rdi),%xmm1
  1b:	48 8d 7f 20          	lea    0x20(%rdi),%rdi
  1f:	66 0f 7f 06          	movdqa %xmm0,(%rsi)
  23:	66 0f 7f 4e 10       	movdqa %xmm1,0x10(%rsi)
  28:	48 8d 76 20          	lea    0x20(%rsi),%rsi
  2c:	83 ea 20             	sub    $0x20,%edx
  2f:	7f e1                	jg     12 <CopyRow_SSE2+0x12>
  31:	eb 1f                	jmp    52 <CopyRow_SSE2+0x52>
  33:	f3 0f 6f 07          	movdqu (%rdi),%xmm0
  37:	f3 0f 6f 4f 10       	movdqu 0x10(%rdi),%xmm1
  3c:	48 8d 7f 20          	lea    0x20(%rdi),%rdi
  40:	f3 0f 7f 06          	movdqu %xmm0,(%rsi)
  44:	f3 0f 7f 4e 10       	movdqu %xmm1,0x10(%rsi)
  49:	48 8d 76 20          	lea    0x20(%rsi),%rsi
  4d:	83 ea 20             	sub    $0x20,%edx
  50:	7f e1                	jg     33 <CopyRow_SSE2+0x33>
  52:	c3                   	retq   

Disassembly of section .text.CopyRow_AVX:

0000000000000000 <CopyRow_AVX>:
   0:	c5 fe 6f 07          	vmovdqu (%rdi),%ymm0
   4:	c5 fe 6f 4f 20       	vmovdqu 0x20(%rdi),%ymm1
   9:	48 8d 7f 40          	lea    0x40(%rdi),%rdi
   d:	c5 fe 7f 06          	vmovdqu %ymm0,(%rsi)
  11:	c5 fe 7f 4e 20       	vmovdqu %ymm1,0x20(%rsi)
  16:	48 8d 76 40          	lea    0x40(%rsi),%rsi
  1a:	83 ea 40             	sub    $0x40,%edx
  1d:	7f e1                	jg     0 <CopyRow_AVX>
  1f:	c3                   	retq   

Disassembly of section .text.CopyRow_ERMS:

0000000000000000 <CopyRow_ERMS>:
   0:	48 89 f8             	mov    %rdi,%rax
   3:	48 63 ca             	movslq %edx,%rcx
   6:	48 89 f7             	mov    %rsi,%rdi
   9:	48 89 c6             	mov    %rax,%rsi
   c:	f3 a4                	rep movsb %ds:(%rsi),%es:(%rdi)
   e:	c3                   	retq   

Disassembly of section .text.ARGBCopyAlphaRow_SSE2:

0000000000000000 <ARGBCopyAlphaRow_SSE2>:
   0:	66 0f 74 c0          	pcmpeqb %xmm0,%xmm0
   4:	66 0f 72 f0 18       	pslld  $0x18,%xmm0
   9:	66 0f 74 c9          	pcmpeqb %xmm1,%xmm1
   d:	66 0f 72 d1 08       	psrld  $0x8,%xmm1
  12:	f3 0f 6f 17          	movdqu (%rdi),%xmm2
  16:	f3 0f 6f 5f 10       	movdqu 0x10(%rdi),%xmm3
  1b:	48 8d 7f 20          	lea    0x20(%rdi),%rdi
  1f:	f3 0f 6f 26          	movdqu (%rsi),%xmm4
  23:	f3 0f 6f 6e 10       	movdqu 0x10(%rsi),%xmm5
  28:	66 0f db d0          	pand   %xmm0,%xmm2
  2c:	66 0f db d8          	pand   %xmm0,%xmm3
  30:	66 0f db e1          	pand   %xmm1,%xmm4
  34:	66 0f db e9          	pand   %xmm1,%xmm5
  38:	66 0f eb d4          	por    %xmm4,%xmm2
  3c:	66 0f eb dd          	por    %xmm5,%xmm3
  40:	f3 0f 7f 16          	movdqu %xmm2,(%rsi)
  44:	f3 0f 7f 5e 10       	movdqu %xmm3,0x10(%rsi)
  49:	48 8d 76 20          	lea    0x20(%rsi),%rsi
  4d:	83 ea 08             	sub    $0x8,%edx
  50:	7f c0                	jg     12 <ARGBCopyAlphaRow_SSE2+0x12>
  52:	c3                   	retq   

Disassembly of section .text.ARGBCopyAlphaRow_AVX2:

0000000000000000 <ARGBCopyAlphaRow_AVX2>:
   0:	c5 fd 74 c0          	vpcmpeqb %ymm0,%ymm0,%ymm0
   4:	c5 fd 72 d0 08       	vpsrld $0x8,%ymm0,%ymm0
   9:	c5 fe 6f 0f          	vmovdqu (%rdi),%ymm1
   d:	c5 fe 6f 57 20       	vmovdqu 0x20(%rdi),%ymm2
  12:	48 8d 7f 40          	lea    0x40(%rdi),%rdi
  16:	c4 e3 75 4c 0e 00    	vpblendvb %ymm0,(%rsi),%ymm1,%ymm1
  1c:	c4 e3 6d 4c 56 20 00 	vpblendvb %ymm0,0x20(%rsi),%ymm2,%ymm2
  23:	c5 fe 7f 0e          	vmovdqu %ymm1,(%rsi)
  27:	c5 fe 7f 56 20       	vmovdqu %ymm2,0x20(%rsi)
  2c:	48 8d 76 40          	lea    0x40(%rsi),%rsi
  30:	83 ea 10             	sub    $0x10,%edx
  33:	7f d4                	jg     9 <ARGBCopyAlphaRow_AVX2+0x9>
  35:	c5 f8 77             	vzeroupper 
  38:	c3                   	retq   

Disassembly of section .text.ARGBExtractAlphaRow_SSE2:

0000000000000000 <ARGBExtractAlphaRow_SSE2>:
   0:	89 54 24 fc          	mov    %edx,-0x4(%rsp)
   4:	f3 0f 6f 07          	movdqu (%rdi),%xmm0
   8:	f3 0f 6f 4f 10       	movdqu 0x10(%rdi),%xmm1
   d:	48 8d 7f 20          	lea    0x20(%rdi),%rdi
  11:	66 0f 72 d0 18       	psrld  $0x18,%xmm0
  16:	66 0f 72 d1 18       	psrld  $0x18,%xmm1
  1b:	66 0f 6b c1          	packssdw %xmm1,%xmm0
  1f:	66 0f 67 c0          	packuswb %xmm0,%xmm0
  23:	66 0f d6 06          	movq   %xmm0,(%rsi)
  27:	48 8d 76 08          	lea    0x8(%rsi),%rsi
  2b:	83 ea 08             	sub    $0x8,%edx
  2e:	7f d4                	jg     4 <ARGBExtractAlphaRow_SSE2+0x4>
  30:	89 54 24 fc          	mov    %edx,-0x4(%rsp)
  34:	c3                   	retq   

Disassembly of section .text.ARGBExtractAlphaRow_AVX2:

0000000000000000 <ARGBExtractAlphaRow_AVX2>:
   0:	89 54 24 fc          	mov    %edx,-0x4(%rsp)
   4:	c5 fd 6f 25 00 00 00 	vmovdqa 0x0(%rip),%ymm4        # c <ARGBExtractAlphaRow_AVX2+0xc>
   b:	00 
   c:	c4 e2 7d 1a 2d 00 00 	vbroadcastf128 0x0(%rip),%ymm5        # 15 <ARGBExtractAlphaRow_AVX2+0x15>
  13:	00 00 
  15:	c5 fe 6f 07          	vmovdqu (%rdi),%ymm0
  19:	c5 fe 6f 4f 20       	vmovdqu 0x20(%rdi),%ymm1
  1e:	c4 e2 7d 00 c5       	vpshufb %ymm5,%ymm0,%ymm0
  23:	c4 e2 75 00 cd       	vpshufb %ymm5,%ymm1,%ymm1
  28:	c5 fe 6f 57 40       	vmovdqu 0x40(%rdi),%ymm2
  2d:	c5 fe 6f 5f 60       	vmovdqu 0x60(%rdi),%ymm3
  32:	48 8d bf 80 00 00 00 	lea    0x80(%rdi),%rdi
  39:	c5 fd 6b c1          	vpackssdw %ymm1,%ymm0,%ymm0
  3d:	c4 e2 6d 00 d5       	vpshufb %ymm5,%ymm2,%ymm2
  42:	c4 e2 65 00 dd       	vpshufb %ymm5,%ymm3,%ymm3
  47:	c5 ed 6b d3          	vpackssdw %ymm3,%ymm2,%ymm2
  4b:	c5 fd 67 c2          	vpackuswb %ymm2,%ymm0,%ymm0
  4f:	c4 e2 5d 36 c0       	vpermd %ymm0,%ymm4,%ymm0
  54:	c5 fe 7f 06          	vmovdqu %ymm0,(%rsi)
  58:	48 8d 76 20          	lea    0x20(%rsi),%rsi
  5c:	83 ea 20             	sub    $0x20,%edx
  5f:	7f b4                	jg     15 <ARGBExtractAlphaRow_AVX2+0x15>
  61:	c5 f8 77             	vzeroupper 
  64:	89 54 24 fc          	mov    %edx,-0x4(%rsp)
  68:	c3                   	retq   

Disassembly of section .text.ARGBCopyYToAlphaRow_SSE2:

0000000000000000 <ARGBCopyYToAlphaRow_SSE2>:
   0:	66 0f 74 c0          	pcmpeqb %xmm0,%xmm0
   4:	66 0f 72 f0 18       	pslld  $0x18,%xmm0
   9:	66 0f 74 c9          	pcmpeqb %xmm1,%xmm1
   d:	66 0f 72 d1 08       	psrld  $0x8,%xmm1
  12:	f3 0f 7e 17          	movq   (%rdi),%xmm2
  16:	48 8d 7f 08          	lea    0x8(%rdi),%rdi
  1a:	66 0f 60 d2          	punpcklbw %xmm2,%xmm2
  1e:	66 0f 69 da          	punpckhwd %xmm2,%xmm3
  22:	66 0f 61 d2          	punpcklwd %xmm2,%xmm2
  26:	f3 0f 6f 26          	movdqu (%rsi),%xmm4
  2a:	f3 0f 6f 6e 10       	movdqu 0x10(%rsi),%xmm5
  2f:	66 0f db d0          	pand   %xmm0,%xmm2
  33:	66 0f db d8          	pand   %xmm0,%xmm3
  37:	66 0f db e1          	pand   %xmm1,%xmm4
  3b:	66 0f db e9          	pand   %xmm1,%xmm5
  3f:	66 0f eb d4          	por    %xmm4,%xmm2
  43:	66 0f eb dd          	por    %xmm5,%xmm3
  47:	f3 0f 7f 16          	movdqu %xmm2,(%rsi)
  4b:	f3 0f 7f 5e 10       	movdqu %xmm3,0x10(%rsi)
  50:	48 8d 76 20          	lea    0x20(%rsi),%rsi
  54:	83 ea 08             	sub    $0x8,%edx
  57:	7f b9                	jg     12 <ARGBCopyYToAlphaRow_SSE2+0x12>
  59:	c3                   	retq   

Disassembly of section .text.ARGBCopyYToAlphaRow_AVX2:

0000000000000000 <ARGBCopyYToAlphaRow_AVX2>:
   0:	c5 fd 74 c0          	vpcmpeqb %ymm0,%ymm0,%ymm0
   4:	c5 fd 72 d0 08       	vpsrld $0x8,%ymm0,%ymm0
   9:	c4 e2 7d 31 0f       	vpmovzxbd (%rdi),%ymm1
   e:	c4 e2 7d 31 57 08    	vpmovzxbd 0x8(%rdi),%ymm2
  14:	48 8d 7f 10          	lea    0x10(%rdi),%rdi
  18:	c5 f5 72 f1 18       	vpslld $0x18,%ymm1,%ymm1
  1d:	c5 ed 72 f2 18       	vpslld $0x18,%ymm2,%ymm2
  22:	c4 e3 75 4c 0e 00    	vpblendvb %ymm0,(%rsi),%ymm1,%ymm1
  28:	c4 e3 6d 4c 56 20 00 	vpblendvb %ymm0,0x20(%rsi),%ymm2,%ymm2
  2f:	c5 fe 7f 0e          	vmovdqu %ymm1,(%rsi)
  33:	c5 fe 7f 56 20       	vmovdqu %ymm2,0x20(%rsi)
  38:	48 8d 76 40          	lea    0x40(%rsi),%rsi
  3c:	83 ea 10             	sub    $0x10,%edx
  3f:	7f c8                	jg     9 <ARGBCopyYToAlphaRow_AVX2+0x9>
  41:	c5 f8 77             	vzeroupper 
  44:	c3                   	retq   

Disassembly of section .text.SetRow_X86:

0000000000000000 <SetRow_X86>:
   0:	c1 fa 02             	sar    $0x2,%edx
   3:	48 63 ca             	movslq %edx,%rcx
   6:	69 c6 01 01 01 01    	imul   $0x1010101,%esi,%eax
   c:	f3 ab                	rep stos %eax,%es:(%rdi)
   e:	c3                   	retq   

Disassembly of section .text.SetRow_ERMS:

0000000000000000 <SetRow_ERMS>:
   0:	48 63 ca             	movslq %edx,%rcx
   3:	89 f0                	mov    %esi,%eax
   5:	f3 aa                	rep stos %al,%es:(%rdi)
   7:	c3                   	retq   

Disassembly of section .text.ARGBSetRow_X86:

0000000000000000 <ARGBSetRow_X86>:
   0:	48 63 ca             	movslq %edx,%rcx
   3:	89 f0                	mov    %esi,%eax
   5:	f3 ab                	rep stos %eax,%es:(%rdi)
   7:	c3                   	retq   

Disassembly of section .text.YUY2ToYRow_SSE2:

0000000000000000 <YUY2ToYRow_SSE2>:
   0:	66 0f 74 ed          	pcmpeqb %xmm5,%xmm5
   4:	66 0f 71 d5 08       	psrlw  $0x8,%xmm5
   9:	f3 0f 6f 07          	movdqu (%rdi),%xmm0
   d:	f3 0f 6f 4f 10       	movdqu 0x10(%rdi),%xmm1
  12:	48 8d 7f 20          	lea    0x20(%rdi),%rdi
  16:	66 0f db c5          	pand   %xmm5,%xmm0
  1a:	66 0f db cd          	pand   %xmm5,%xmm1
  1e:	66 0f 67 c1          	packuswb %xmm1,%xmm0
  22:	f3 0f 7f 06          	movdqu %xmm0,(%rsi)
  26:	48 8d 76 10          	lea    0x10(%rsi),%rsi
  2a:	83 ea 10             	sub    $0x10,%edx
  2d:	7f da                	jg     9 <YUY2ToYRow_SSE2+0x9>
  2f:	c3                   	retq   

Disassembly of section .text.YUY2ToUVRow_SSE2:

0000000000000000 <YUY2ToUVRow_SSE2>:
   0:	48 63 c6             	movslq %esi,%rax
   3:	66 0f 74 ed          	pcmpeqb %xmm5,%xmm5
   7:	66 0f 71 d5 08       	psrlw  $0x8,%xmm5
   c:	48 29 d1             	sub    %rdx,%rcx
   f:	f3 0f 6f 07          	movdqu (%rdi),%xmm0
  13:	f3 0f 6f 4f 10       	movdqu 0x10(%rdi),%xmm1
  18:	f3 0f 6f 14 07       	movdqu (%rdi,%rax,1),%xmm2
  1d:	f3 0f 6f 5c 07 10    	movdqu 0x10(%rdi,%rax,1),%xmm3
  23:	48 8d 7f 20          	lea    0x20(%rdi),%rdi
  27:	66 0f e0 c2          	pavgb  %xmm2,%xmm0
  2b:	66 0f e0 cb          	pavgb  %xmm3,%xmm1
  2f:	66 0f 71 d0 08       	psrlw  $0x8,%xmm0
  34:	66 0f 71 d1 08       	psrlw  $0x8,%xmm1
  39:	66 0f 67 c1          	packuswb %xmm1,%xmm0
  3d:	66 0f 6f c8          	movdqa %xmm0,%xmm1
  41:	66 0f db c5          	pand   %xmm5,%xmm0
  45:	66 0f 67 c0          	packuswb %xmm0,%xmm0
  49:	66 0f 71 d1 08       	psrlw  $0x8,%xmm1
  4e:	66 0f 67 c9          	packuswb %xmm1,%xmm1
  52:	66 0f d6 02          	movq   %xmm0,(%rdx)
  56:	66 0f d6 0c 0a       	movq   %xmm1,(%rdx,%rcx,1)
  5b:	48 8d 52 08          	lea    0x8(%rdx),%rdx
  5f:	41 83 e8 10          	sub    $0x10,%r8d
  63:	7f aa                	jg     f <YUY2ToUVRow_SSE2+0xf>
  65:	c3                   	retq   

Disassembly of section .text.YUY2ToUV422Row_SSE2:

0000000000000000 <YUY2ToUV422Row_SSE2>:
   0:	66 0f 74 ed          	pcmpeqb %xmm5,%xmm5
   4:	66 0f 71 d5 08       	psrlw  $0x8,%xmm5
   9:	48 29 f2             	sub    %rsi,%rdx
   c:	f3 0f 6f 07          	movdqu (%rdi),%xmm0
  10:	f3 0f 6f 4f 10       	movdqu 0x10(%rdi),%xmm1
  15:	48 8d 7f 20          	lea    0x20(%rdi),%rdi
  19:	66 0f 71 d0 08       	psrlw  $0x8,%xmm0
  1e:	66 0f 71 d1 08       	psrlw  $0x8,%xmm1
  23:	66 0f 67 c1          	packuswb %xmm1,%xmm0
  27:	66 0f 6f c8          	movdqa %xmm0,%xmm1
  2b:	66 0f db c5          	pand   %xmm5,%xmm0
  2f:	66 0f 67 c0          	packuswb %xmm0,%xmm0
  33:	66 0f 71 d1 08       	psrlw  $0x8,%xmm1
  38:	66 0f 67 c9          	packuswb %xmm1,%xmm1
  3c:	66 0f d6 06          	movq   %xmm0,(%rsi)
  40:	66 0f d6 0c 16       	movq   %xmm1,(%rsi,%rdx,1)
  45:	48 8d 76 08          	lea    0x8(%rsi),%rsi
  49:	83 e9 10             	sub    $0x10,%ecx
  4c:	7f be                	jg     c <YUY2ToUV422Row_SSE2+0xc>
  4e:	c3                   	retq   

Disassembly of section .text.UYVYToYRow_SSE2:

0000000000000000 <UYVYToYRow_SSE2>:
   0:	f3 0f 6f 07          	movdqu (%rdi),%xmm0
   4:	f3 0f 6f 4f 10       	movdqu 0x10(%rdi),%xmm1
   9:	48 8d 7f 20          	lea    0x20(%rdi),%rdi
   d:	66 0f 71 d0 08       	psrlw  $0x8,%xmm0
  12:	66 0f 71 d1 08       	psrlw  $0x8,%xmm1
  17:	66 0f 67 c1          	packuswb %xmm1,%xmm0
  1b:	f3 0f 7f 06          	movdqu %xmm0,(%rsi)
  1f:	48 8d 76 10          	lea    0x10(%rsi),%rsi
  23:	83 ea 10             	sub    $0x10,%edx
  26:	7f d8                	jg     0 <UYVYToYRow_SSE2>
  28:	c3                   	retq   

Disassembly of section .text.UYVYToUVRow_SSE2:

0000000000000000 <UYVYToUVRow_SSE2>:
   0:	48 63 c6             	movslq %esi,%rax
   3:	66 0f 74 ed          	pcmpeqb %xmm5,%xmm5
   7:	66 0f 71 d5 08       	psrlw  $0x8,%xmm5
   c:	48 29 d1             	sub    %rdx,%rcx
   f:	f3 0f 6f 07          	movdqu (%rdi),%xmm0
  13:	f3 0f 6f 4f 10       	movdqu 0x10(%rdi),%xmm1
  18:	f3 0f 6f 14 07       	movdqu (%rdi,%rax,1),%xmm2
  1d:	f3 0f 6f 5c 07 10    	movdqu 0x10(%rdi,%rax,1),%xmm3
  23:	48 8d 7f 20          	lea    0x20(%rdi),%rdi
  27:	66 0f e0 c2          	pavgb  %xmm2,%xmm0
  2b:	66 0f e0 cb          	pavgb  %xmm3,%xmm1
  2f:	66 0f db c5          	pand   %xmm5,%xmm0
  33:	66 0f db cd          	pand   %xmm5,%xmm1
  37:	66 0f 67 c1          	packuswb %xmm1,%xmm0
  3b:	66 0f 6f c8          	movdqa %xmm0,%xmm1
  3f:	66 0f db c5          	pand   %xmm5,%xmm0
  43:	66 0f 67 c0          	packuswb %xmm0,%xmm0
  47:	66 0f 71 d1 08       	psrlw  $0x8,%xmm1
  4c:	66 0f 67 c9          	packuswb %xmm1,%xmm1
  50:	66 0f d6 02          	movq   %xmm0,(%rdx)
  54:	66 0f d6 0c 0a       	movq   %xmm1,(%rdx,%rcx,1)
  59:	48 8d 52 08          	lea    0x8(%rdx),%rdx
  5d:	41 83 e8 10          	sub    $0x10,%r8d
  61:	7f ac                	jg     f <UYVYToUVRow_SSE2+0xf>
  63:	c3                   	retq   

Disassembly of section .text.UYVYToUV422Row_SSE2:

0000000000000000 <UYVYToUV422Row_SSE2>:
   0:	66 0f 74 ed          	pcmpeqb %xmm5,%xmm5
   4:	66 0f 71 d5 08       	psrlw  $0x8,%xmm5
   9:	48 29 f2             	sub    %rsi,%rdx
   c:	f3 0f 6f 07          	movdqu (%rdi),%xmm0
  10:	f3 0f 6f 4f 10       	movdqu 0x10(%rdi),%xmm1
  15:	48 8d 7f 20          	lea    0x20(%rdi),%rdi
  19:	66 0f db c5          	pand   %xmm5,%xmm0
  1d:	66 0f db cd          	pand   %xmm5,%xmm1
  21:	66 0f 67 c1          	packuswb %xmm1,%xmm0
  25:	66 0f 6f c8          	movdqa %xmm0,%xmm1
  29:	66 0f db c5          	pand   %xmm5,%xmm0
  2d:	66 0f 67 c0          	packuswb %xmm0,%xmm0
  31:	66 0f 71 d1 08       	psrlw  $0x8,%xmm1
  36:	66 0f 67 c9          	packuswb %xmm1,%xmm1
  3a:	66 0f d6 06          	movq   %xmm0,(%rsi)
  3e:	66 0f d6 0c 16       	movq   %xmm1,(%rsi,%rdx,1)
  43:	48 8d 76 08          	lea    0x8(%rsi),%rsi
  47:	83 e9 10             	sub    $0x10,%ecx
  4a:	7f c0                	jg     c <UYVYToUV422Row_SSE2+0xc>
  4c:	c3                   	retq   

Disassembly of section .text.YUY2ToYRow_AVX2:

0000000000000000 <YUY2ToYRow_AVX2>:
   0:	c5 d5 74 ed          	vpcmpeqb %ymm5,%ymm5,%ymm5
   4:	c5 d5 71 d5 08       	vpsrlw $0x8,%ymm5,%ymm5
   9:	c5 fe 6f 07          	vmovdqu (%rdi),%ymm0
   d:	c5 fe 6f 4f 20       	vmovdqu 0x20(%rdi),%ymm1
  12:	48 8d 7f 40          	lea    0x40(%rdi),%rdi
  16:	c5 fd db c5          	vpand  %ymm5,%ymm0,%ymm0
  1a:	c5 f5 db cd          	vpand  %ymm5,%ymm1,%ymm1
  1e:	c5 fd 67 c1          	vpackuswb %ymm1,%ymm0,%ymm0
  22:	c4 e3 fd 00 c0 d8    	vpermq $0xd8,%ymm0,%ymm0
  28:	c5 fe 7f 06          	vmovdqu %ymm0,(%rsi)
  2c:	48 8d 76 20          	lea    0x20(%rsi),%rsi
  30:	83 ea 20             	sub    $0x20,%edx
  33:	7f d4                	jg     9 <YUY2ToYRow_AVX2+0x9>
  35:	c5 f8 77             	vzeroupper 
  38:	c3                   	retq   

Disassembly of section .text.YUY2ToUVRow_AVX2:

0000000000000000 <YUY2ToUVRow_AVX2>:
   0:	48 63 c6             	movslq %esi,%rax
   3:	c5 d5 74 ed          	vpcmpeqb %ymm5,%ymm5,%ymm5
   7:	c5 d5 71 d5 08       	vpsrlw $0x8,%ymm5,%ymm5
   c:	48 29 d1             	sub    %rdx,%rcx
   f:	c5 fe 6f 07          	vmovdqu (%rdi),%ymm0
  13:	c5 fe 6f 4f 20       	vmovdqu 0x20(%rdi),%ymm1
  18:	c5 fd e0 04 07       	vpavgb (%rdi,%rax,1),%ymm0,%ymm0
  1d:	c5 f5 e0 4c 07 20    	vpavgb 0x20(%rdi,%rax,1),%ymm1,%ymm1
  23:	48 8d 7f 40          	lea    0x40(%rdi),%rdi
  27:	c5 fd 71 d0 08       	vpsrlw $0x8,%ymm0,%ymm0
  2c:	c5 f5 71 d1 08       	vpsrlw $0x8,%ymm1,%ymm1
  31:	c5 fd 67 c1          	vpackuswb %ymm1,%ymm0,%ymm0
  35:	c4 e3 fd 00 c0 d8    	vpermq $0xd8,%ymm0,%ymm0
  3b:	c5 fd db cd          	vpand  %ymm5,%ymm0,%ymm1
  3f:	c5 fd 71 d0 08       	vpsrlw $0x8,%ymm0,%ymm0
  44:	c5 f5 67 c9          	vpackuswb %ymm1,%ymm1,%ymm1
  48:	c5 fd 67 c0          	vpackuswb %ymm0,%ymm0,%ymm0
  4c:	c4 e3 fd 00 c9 d8    	vpermq $0xd8,%ymm1,%ymm1
  52:	c4 e3 fd 00 c0 d8    	vpermq $0xd8,%ymm0,%ymm0
  58:	c4 e3 7d 19 0a 00    	vextractf128 $0x0,%ymm1,(%rdx)
  5e:	c4 e3 7d 19 04 0a 00 	vextractf128 $0x0,%ymm0,(%rdx,%rcx,1)
  65:	48 8d 52 10          	lea    0x10(%rdx),%rdx
  69:	41 83 e8 20          	sub    $0x20,%r8d
  6d:	7f a0                	jg     f <YUY2ToUVRow_AVX2+0xf>
  6f:	c5 f8 77             	vzeroupper 
  72:	c3                   	retq   

Disassembly of section .text.YUY2ToUV422Row_AVX2:

0000000000000000 <YUY2ToUV422Row_AVX2>:
   0:	c5 d5 74 ed          	vpcmpeqb %ymm5,%ymm5,%ymm5
   4:	c5 d5 71 d5 08       	vpsrlw $0x8,%ymm5,%ymm5
   9:	48 29 f2             	sub    %rsi,%rdx
   c:	c5 fe 6f 07          	vmovdqu (%rdi),%ymm0
  10:	c5 fe 6f 4f 20       	vmovdqu 0x20(%rdi),%ymm1
  15:	48 8d 7f 40          	lea    0x40(%rdi),%rdi
  19:	c5 fd 71 d0 08       	vpsrlw $0x8,%ymm0,%ymm0
  1e:	c5 f5 71 d1 08       	vpsrlw $0x8,%ymm1,%ymm1
  23:	c5 fd 67 c1          	vpackuswb %ymm1,%ymm0,%ymm0
  27:	c4 e3 fd 00 c0 d8    	vpermq $0xd8,%ymm0,%ymm0
  2d:	c5 fd db cd          	vpand  %ymm5,%ymm0,%ymm1
  31:	c5 fd 71 d0 08       	vpsrlw $0x8,%ymm0,%ymm0
  36:	c5 f5 67 c9          	vpackuswb %ymm1,%ymm1,%ymm1
  3a:	c5 fd 67 c0          	vpackuswb %ymm0,%ymm0,%ymm0
  3e:	c4 e3 fd 00 c9 d8    	vpermq $0xd8,%ymm1,%ymm1
  44:	c4 e3 fd 00 c0 d8    	vpermq $0xd8,%ymm0,%ymm0
  4a:	c4 e3 7d 19 0e 00    	vextractf128 $0x0,%ymm1,(%rsi)
  50:	c4 e3 7d 19 04 16 00 	vextractf128 $0x0,%ymm0,(%rsi,%rdx,1)
  57:	48 8d 76 10          	lea    0x10(%rsi),%rsi
  5b:	83 e9 20             	sub    $0x20,%ecx
  5e:	7f ac                	jg     c <YUY2ToUV422Row_AVX2+0xc>
  60:	c5 f8 77             	vzeroupper 
  63:	c3                   	retq   

Disassembly of section .text.UYVYToYRow_AVX2:

0000000000000000 <UYVYToYRow_AVX2>:
   0:	c5 fe 6f 07          	vmovdqu (%rdi),%ymm0
   4:	c5 fe 6f 4f 20       	vmovdqu 0x20(%rdi),%ymm1
   9:	48 8d 7f 40          	lea    0x40(%rdi),%rdi
   d:	c5 fd 71 d0 08       	vpsrlw $0x8,%ymm0,%ymm0
  12:	c5 f5 71 d1 08       	vpsrlw $0x8,%ymm1,%ymm1
  17:	c5 fd 67 c1          	vpackuswb %ymm1,%ymm0,%ymm0
  1b:	c4 e3 fd 00 c0 d8    	vpermq $0xd8,%ymm0,%ymm0
  21:	c5 fe 7f 06          	vmovdqu %ymm0,(%rsi)
  25:	48 8d 76 20          	lea    0x20(%rsi),%rsi
  29:	83 ea 20             	sub    $0x20,%edx
  2c:	7f d2                	jg     0 <UYVYToYRow_AVX2>
  2e:	c5 f8 77             	vzeroupper 
  31:	c3                   	retq   

Disassembly of section .text.UYVYToUVRow_AVX2:

0000000000000000 <UYVYToUVRow_AVX2>:
   0:	48 63 c6             	movslq %esi,%rax
   3:	c5 d5 74 ed          	vpcmpeqb %ymm5,%ymm5,%ymm5
   7:	c5 d5 71 d5 08       	vpsrlw $0x8,%ymm5,%ymm5
   c:	48 29 d1             	sub    %rdx,%rcx
   f:	c5 fe 6f 07          	vmovdqu (%rdi),%ymm0
  13:	c5 fe 6f 4f 20       	vmovdqu 0x20(%rdi),%ymm1
  18:	c5 fd e0 04 07       	vpavgb (%rdi,%rax,1),%ymm0,%ymm0
  1d:	c5 f5 e0 4c 07 20    	vpavgb 0x20(%rdi,%rax,1),%ymm1,%ymm1
  23:	48 8d 7f 40          	lea    0x40(%rdi),%rdi
  27:	c5 fd db c5          	vpand  %ymm5,%ymm0,%ymm0
  2b:	c5 f5 db cd          	vpand  %ymm5,%ymm1,%ymm1
  2f:	c5 fd 67 c1          	vpackuswb %ymm1,%ymm0,%ymm0
  33:	c4 e3 fd 00 c0 d8    	vpermq $0xd8,%ymm0,%ymm0
  39:	c5 fd db cd          	vpand  %ymm5,%ymm0,%ymm1
  3d:	c5 fd 71 d0 08       	vpsrlw $0x8,%ymm0,%ymm0
  42:	c5 f5 67 c9          	vpackuswb %ymm1,%ymm1,%ymm1
  46:	c5 fd 67 c0          	vpackuswb %ymm0,%ymm0,%ymm0
  4a:	c4 e3 fd 00 c9 d8    	vpermq $0xd8,%ymm1,%ymm1
  50:	c4 e3 fd 00 c0 d8    	vpermq $0xd8,%ymm0,%ymm0
  56:	c4 e3 7d 19 0a 00    	vextractf128 $0x0,%ymm1,(%rdx)
  5c:	c4 e3 7d 19 04 0a 00 	vextractf128 $0x0,%ymm0,(%rdx,%rcx,1)
  63:	48 8d 52 10          	lea    0x10(%rdx),%rdx
  67:	41 83 e8 20          	sub    $0x20,%r8d
  6b:	7f a2                	jg     f <UYVYToUVRow_AVX2+0xf>
  6d:	c5 f8 77             	vzeroupper 
  70:	c3                   	retq   

Disassembly of section .text.UYVYToUV422Row_AVX2:

0000000000000000 <UYVYToUV422Row_AVX2>:
   0:	c5 d5 74 ed          	vpcmpeqb %ymm5,%ymm5,%ymm5
   4:	c5 d5 71 d5 08       	vpsrlw $0x8,%ymm5,%ymm5
   9:	48 29 f2             	sub    %rsi,%rdx
   c:	c5 fe 6f 07          	vmovdqu (%rdi),%ymm0
  10:	c5 fe 6f 4f 20       	vmovdqu 0x20(%rdi),%ymm1
  15:	48 8d 7f 40          	lea    0x40(%rdi),%rdi
  19:	c5 fd db c5          	vpand  %ymm5,%ymm0,%ymm0
  1d:	c5 f5 db cd          	vpand  %ymm5,%ymm1,%ymm1
  21:	c5 fd 67 c1          	vpackuswb %ymm1,%ymm0,%ymm0
  25:	c4 e3 fd 00 c0 d8    	vpermq $0xd8,%ymm0,%ymm0
  2b:	c5 fd db cd          	vpand  %ymm5,%ymm0,%ymm1
  2f:	c5 fd 71 d0 08       	vpsrlw $0x8,%ymm0,%ymm0
  34:	c5 f5 67 c9          	vpackuswb %ymm1,%ymm1,%ymm1
  38:	c5 fd 67 c0          	vpackuswb %ymm0,%ymm0,%ymm0
  3c:	c4 e3 fd 00 c9 d8    	vpermq $0xd8,%ymm1,%ymm1
  42:	c4 e3 fd 00 c0 d8    	vpermq $0xd8,%ymm0,%ymm0
  48:	c4 e3 7d 19 0e 00    	vextractf128 $0x0,%ymm1,(%rsi)
  4e:	c4 e3 7d 19 04 16 00 	vextractf128 $0x0,%ymm0,(%rsi,%rdx,1)
  55:	48 8d 76 10          	lea    0x10(%rsi),%rsi
  59:	83 e9 20             	sub    $0x20,%ecx
  5c:	7f ae                	jg     c <UYVYToUV422Row_AVX2+0xc>
  5e:	c5 f8 77             	vzeroupper 
  61:	c3                   	retq   

Disassembly of section .text.ARGBBlendRow_SSSE3:

0000000000000000 <ARGBBlendRow_SSSE3>:
   0:	66 0f 74 ff          	pcmpeqb %xmm7,%xmm7
   4:	66 0f 71 d7 0f       	psrlw  $0xf,%xmm7
   9:	66 0f 74 f6          	pcmpeqb %xmm6,%xmm6
   d:	66 0f 71 d6 08       	psrlw  $0x8,%xmm6
  12:	66 0f 74 ed          	pcmpeqb %xmm5,%xmm5
  16:	66 0f 71 f5 08       	psllw  $0x8,%xmm5
  1b:	66 0f 74 e4          	pcmpeqb %xmm4,%xmm4
  1f:	66 0f 72 f4 18       	pslld  $0x18,%xmm4
  24:	83 e9 04             	sub    $0x4,%ecx
  27:	7c 5c                	jl     85 <ARGBBlendRow_SSSE3+0x85>
  29:	f3 0f 6f 1f          	movdqu (%rdi),%xmm3
  2d:	48 8d 7f 10          	lea    0x10(%rdi),%rdi
  31:	66 0f 6f c3          	movdqa %xmm3,%xmm0
  35:	66 0f ef dc          	pxor   %xmm4,%xmm3
  39:	f3 0f 6f 16          	movdqu (%rsi),%xmm2
  3d:	66 0f 38 00 1d 00 00 	pshufb 0x0(%rip),%xmm3        # 46 <ARGBBlendRow_SSSE3+0x46>
  44:	00 00 
  46:	66 0f db d6          	pand   %xmm6,%xmm2
  4a:	66 0f fd df          	paddw  %xmm7,%xmm3
  4e:	66 0f d5 d3          	pmullw %xmm3,%xmm2
  52:	f3 0f 6f 0e          	movdqu (%rsi),%xmm1
  56:	48 8d 76 10          	lea    0x10(%rsi),%rsi
  5a:	66 0f 71 d1 08       	psrlw  $0x8,%xmm1
  5f:	66 0f eb c4          	por    %xmm4,%xmm0
  63:	66 0f d5 cb          	pmullw %xmm3,%xmm1
  67:	66 0f 71 d2 08       	psrlw  $0x8,%xmm2
  6c:	66 0f dc c2          	paddusb %xmm2,%xmm0
  70:	66 0f db cd          	pand   %xmm5,%xmm1
  74:	66 0f dc c1          	paddusb %xmm1,%xmm0
  78:	f3 0f 7f 02          	movdqu %xmm0,(%rdx)
  7c:	48 8d 52 10          	lea    0x10(%rdx),%rdx
  80:	83 e9 04             	sub    $0x4,%ecx
  83:	7d a4                	jge    29 <ARGBBlendRow_SSSE3+0x29>
  85:	83 c1 03             	add    $0x3,%ecx
  88:	7c 5c                	jl     e6 <ARGBBlendRow_SSSE3+0xe6>
  8a:	66 0f 6e 1f          	movd   (%rdi),%xmm3
  8e:	48 8d 7f 04          	lea    0x4(%rdi),%rdi
  92:	66 0f 6f c3          	movdqa %xmm3,%xmm0
  96:	66 0f ef dc          	pxor   %xmm4,%xmm3
  9a:	66 0f 6e 16          	movd   (%rsi),%xmm2
  9e:	66 0f 38 00 1d 00 00 	pshufb 0x0(%rip),%xmm3        # a7 <ARGBBlendRow_SSSE3+0xa7>
  a5:	00 00 
  a7:	66 0f db d6          	pand   %xmm6,%xmm2
  ab:	66 0f fd df          	paddw  %xmm7,%xmm3
  af:	66 0f d5 d3          	pmullw %xmm3,%xmm2
  b3:	66 0f 6e 0e          	movd   (%rsi),%xmm1
  b7:	48 8d 76 04          	lea    0x4(%rsi),%rsi
  bb:	66 0f 71 d1 08       	psrlw  $0x8,%xmm1
  c0:	66 0f eb c4          	por    %xmm4,%xmm0
  c4:	66 0f d5 cb          	pmullw %xmm3,%xmm1
  c8:	66 0f 71 d2 08       	psrlw  $0x8,%xmm2
  cd:	66 0f dc c2          	paddusb %xmm2,%xmm0
  d1:	66 0f db cd          	pand   %xmm5,%xmm1
  d5:	66 0f dc c1          	paddusb %xmm1,%xmm0
  d9:	66 0f 7e 02          	movd   %xmm0,(%rdx)
  dd:	48 8d 52 04          	lea    0x4(%rdx),%rdx
  e1:	83 e9 01             	sub    $0x1,%ecx
  e4:	7d a4                	jge    8a <ARGBBlendRow_SSSE3+0x8a>
  e6:	c3                   	retq   

Disassembly of section .text.BlendPlaneRow_SSSE3:

0000000000000000 <BlendPlaneRow_SSSE3>:
   0:	44 89 44 24 fc       	mov    %r8d,-0x4(%rsp)
   5:	66 0f 74 ed          	pcmpeqb %xmm5,%xmm5
   9:	66 0f 71 f5 08       	psllw  $0x8,%xmm5
   e:	b8 80 80 80 80       	mov    $0x80808080,%eax
  13:	66 0f 6e f0          	movd   %eax,%xmm6
  17:	66 0f 70 f6 00       	pshufd $0x0,%xmm6,%xmm6
  1c:	b8 7f 80 7f 80       	mov    $0x807f807f,%eax
  21:	66 0f 6e f8          	movd   %eax,%xmm7
  25:	66 0f 70 ff 00       	pshufd $0x0,%xmm7,%xmm7
  2a:	48 29 d7             	sub    %rdx,%rdi
  2d:	48 29 d6             	sub    %rdx,%rsi
  30:	48 29 d1             	sub    %rdx,%rcx
  33:	f3 0f 7e 02          	movq   (%rdx),%xmm0
  37:	66 0f 60 c0          	punpcklbw %xmm0,%xmm0
  3b:	66 0f ef c5          	pxor   %xmm5,%xmm0
  3f:	f3 0f 7e 0c 17       	movq   (%rdi,%rdx,1),%xmm1
  44:	f3 0f 7e 14 16       	movq   (%rsi,%rdx,1),%xmm2
  49:	66 0f 60 ca          	punpcklbw %xmm2,%xmm1
  4d:	66 0f f8 ce          	psubb  %xmm6,%xmm1
  51:	66 0f 38 04 c1       	pmaddubsw %xmm1,%xmm0
  56:	66 0f fd c7          	paddw  %xmm7,%xmm0
  5a:	66 0f 71 d0 08       	psrlw  $0x8,%xmm0
  5f:	66 0f 67 c0          	packuswb %xmm0,%xmm0
  63:	66 0f d6 04 11       	movq   %xmm0,(%rcx,%rdx,1)
  68:	48 8d 52 08          	lea    0x8(%rdx),%rdx
  6c:	41 83 e8 08          	sub    $0x8,%r8d
  70:	7f c1                	jg     33 <BlendPlaneRow_SSSE3+0x33>
  72:	44 89 44 24 fc       	mov    %r8d,-0x4(%rsp)
  77:	c3                   	retq   

Disassembly of section .text.BlendPlaneRow_AVX2:

0000000000000000 <BlendPlaneRow_AVX2>:
   0:	44 89 44 24 fc       	mov    %r8d,-0x4(%rsp)
   5:	c5 d5 74 ed          	vpcmpeqb %ymm5,%ymm5,%ymm5
   9:	c5 d5 71 f5 08       	vpsllw $0x8,%ymm5,%ymm5
   e:	b8 80 80 80 80       	mov    $0x80808080,%eax
  13:	c5 f9 6e f0          	vmovd  %eax,%xmm6
  17:	c4 e2 7d 18 f6       	vbroadcastss %xmm6,%ymm6
  1c:	b8 7f 80 7f 80       	mov    $0x807f807f,%eax
  21:	c5 f9 6e f8          	vmovd  %eax,%xmm7
  25:	c4 e2 7d 18 ff       	vbroadcastss %xmm7,%ymm7
  2a:	48 29 d7             	sub    %rdx,%rdi
  2d:	48 29 d6             	sub    %rdx,%rsi
  30:	48 29 d1             	sub    %rdx,%rcx
  33:	c5 fe 6f 02          	vmovdqu (%rdx),%ymm0
  37:	c5 fd 68 d8          	vpunpckhbw %ymm0,%ymm0,%ymm3
  3b:	c5 fd 60 c0          	vpunpcklbw %ymm0,%ymm0,%ymm0
  3f:	c5 e5 ef dd          	vpxor  %ymm5,%ymm3,%ymm3
  43:	c5 fd ef c5          	vpxor  %ymm5,%ymm0,%ymm0
  47:	c5 fe 6f 0c 17       	vmovdqu (%rdi,%rdx,1),%ymm1
  4c:	c5 fe 6f 14 16       	vmovdqu (%rsi,%rdx,1),%ymm2
  51:	c5 f5 68 e2          	vpunpckhbw %ymm2,%ymm1,%ymm4
  55:	c5 f5 60 ca          	vpunpcklbw %ymm2,%ymm1,%ymm1
  59:	c5 dd f8 e6          	vpsubb %ymm6,%ymm4,%ymm4
  5d:	c5 f5 f8 ce          	vpsubb %ymm6,%ymm1,%ymm1
  61:	c4 e2 65 04 dc       	vpmaddubsw %ymm4,%ymm3,%ymm3
  66:	c4 e2 7d 04 c1       	vpmaddubsw %ymm1,%ymm0,%ymm0
  6b:	c5 e5 fd df          	vpaddw %ymm7,%ymm3,%ymm3
  6f:	c5 fd fd c7          	vpaddw %ymm7,%ymm0,%ymm0
  73:	c5 e5 71 d3 08       	vpsrlw $0x8,%ymm3,%ymm3
  78:	c5 fd 71 d0 08       	vpsrlw $0x8,%ymm0,%ymm0
  7d:	c5 fd 67 c3          	vpackuswb %ymm3,%ymm0,%ymm0
  81:	c5 fe 7f 04 11       	vmovdqu %ymm0,(%rcx,%rdx,1)
  86:	48 8d 52 20          	lea    0x20(%rdx),%rdx
  8a:	41 83 e8 20          	sub    $0x20,%r8d
  8e:	7f a3                	jg     33 <BlendPlaneRow_AVX2+0x33>
  90:	c5 f8 77             	vzeroupper 
  93:	44 89 44 24 fc       	mov    %r8d,-0x4(%rsp)
  98:	c3                   	retq   

Disassembly of section .text.ARGBAttenuateRow_SSSE3:

0000000000000000 <ARGBAttenuateRow_SSSE3>:
   0:	66 0f 74 db          	pcmpeqb %xmm3,%xmm3
   4:	66 0f 72 f3 18       	pslld  $0x18,%xmm3
   9:	66 0f 6f 25 00 00 00 	movdqa 0x0(%rip),%xmm4        # 11 <ARGBAttenuateRow_SSSE3+0x11>
  10:	00 
  11:	66 0f 6f 2d 00 00 00 	movdqa 0x0(%rip),%xmm5        # 19 <ARGBAttenuateRow_SSSE3+0x19>
  18:	00 
  19:	f3 0f 6f 07          	movdqu (%rdi),%xmm0
  1d:	66 0f 38 00 c4       	pshufb %xmm4,%xmm0
  22:	f3 0f 6f 0f          	movdqu (%rdi),%xmm1
  26:	66 0f 60 c9          	punpcklbw %xmm1,%xmm1
  2a:	66 0f e4 c1          	pmulhuw %xmm1,%xmm0
  2e:	f3 0f 6f 0f          	movdqu (%rdi),%xmm1
  32:	66 0f 38 00 cd       	pshufb %xmm5,%xmm1
  37:	f3 0f 6f 17          	movdqu (%rdi),%xmm2
  3b:	66 0f 68 d2          	punpckhbw %xmm2,%xmm2
  3f:	66 0f e4 ca          	pmulhuw %xmm2,%xmm1
  43:	f3 0f 6f 17          	movdqu (%rdi),%xmm2
  47:	48 8d 7f 10          	lea    0x10(%rdi),%rdi
  4b:	66 0f db d3          	pand   %xmm3,%xmm2
  4f:	66 0f 71 d0 08       	psrlw  $0x8,%xmm0
  54:	66 0f 71 d1 08       	psrlw  $0x8,%xmm1
  59:	66 0f 67 c1          	packuswb %xmm1,%xmm0
  5d:	66 0f eb c2          	por    %xmm2,%xmm0
  61:	f3 0f 7f 06          	movdqu %xmm0,(%rsi)
  65:	48 8d 76 10          	lea    0x10(%rsi),%rsi
  69:	83 ea 04             	sub    $0x4,%edx
  6c:	7f ab                	jg     19 <ARGBAttenuateRow_SSSE3+0x19>
  6e:	c3                   	retq   

Disassembly of section .text.ARGBAttenuateRow_AVX2:

0000000000000000 <ARGBAttenuateRow_AVX2>:
   0:	c4 e2 7d 1a 25 00 00 	vbroadcastf128 0x0(%rip),%ymm4        # 9 <ARGBAttenuateRow_AVX2+0x9>
   7:	00 00 
   9:	c5 d5 74 ed          	vpcmpeqb %ymm5,%ymm5,%ymm5
   d:	c5 d5 72 f5 18       	vpslld $0x18,%ymm5,%ymm5
  12:	48 29 fe             	sub    %rdi,%rsi
  15:	c5 fe 6f 37          	vmovdqu (%rdi),%ymm6
  19:	c5 cd 60 c6          	vpunpcklbw %ymm6,%ymm6,%ymm0
  1d:	c5 cd 68 ce          	vpunpckhbw %ymm6,%ymm6,%ymm1
  21:	c4 e2 7d 00 d4       	vpshufb %ymm4,%ymm0,%ymm2
  26:	c4 e2 75 00 dc       	vpshufb %ymm4,%ymm1,%ymm3
  2b:	c5 fd e4 c2          	vpmulhuw %ymm2,%ymm0,%ymm0
  2f:	c5 f5 e4 cb          	vpmulhuw %ymm3,%ymm1,%ymm1
  33:	c5 cd db f5          	vpand  %ymm5,%ymm6,%ymm6
  37:	c5 fd 71 d0 08       	vpsrlw $0x8,%ymm0,%ymm0
  3c:	c5 f5 71 d1 08       	vpsrlw $0x8,%ymm1,%ymm1
  41:	c5 fd 67 c1          	vpackuswb %ymm1,%ymm0,%ymm0
  45:	c5 fd eb c6          	vpor   %ymm6,%ymm0,%ymm0
  49:	c5 fe 7f 04 37       	vmovdqu %ymm0,(%rdi,%rsi,1)
  4e:	48 8d 7f 20          	lea    0x20(%rdi),%rdi
  52:	83 ea 08             	sub    $0x8,%edx
  55:	7f be                	jg     15 <ARGBAttenuateRow_AVX2+0x15>
  57:	c5 f8 77             	vzeroupper 
  5a:	c3                   	retq   

Disassembly of section .text.ARGBUnattenuateRow_SSE2:

0000000000000000 <ARGBUnattenuateRow_SSE2>:
   0:	48 8b 05 00 00 00 00 	mov    0x0(%rip),%rax        # 7 <ARGBUnattenuateRow_SSE2+0x7>
   7:	f3 0f 6f 07          	movdqu (%rdi),%xmm0
   b:	48 0f b6 4f 03       	movzbq 0x3(%rdi),%rcx
  10:	66 0f 60 c0          	punpcklbw %xmm0,%xmm0
  14:	66 0f 6e 14 88       	movd   (%rax,%rcx,4),%xmm2
  19:	48 0f b6 4f 07       	movzbq 0x7(%rdi),%rcx
  1e:	66 0f 6e 1c 88       	movd   (%rax,%rcx,4),%xmm3
  23:	f2 0f 70 d2 40       	pshuflw $0x40,%xmm2,%xmm2
  28:	f2 0f 70 db 40       	pshuflw $0x40,%xmm3,%xmm3
  2d:	0f 16 d3             	movlhps %xmm3,%xmm2
  30:	66 0f e4 c2          	pmulhuw %xmm2,%xmm0
  34:	f3 0f 6f 0f          	movdqu (%rdi),%xmm1
  38:	48 0f b6 4f 0b       	movzbq 0xb(%rdi),%rcx
  3d:	66 0f 68 c9          	punpckhbw %xmm1,%xmm1
  41:	66 0f 6e 14 88       	movd   (%rax,%rcx,4),%xmm2
  46:	48 0f b6 4f 0f       	movzbq 0xf(%rdi),%rcx
  4b:	66 0f 6e 1c 88       	movd   (%rax,%rcx,4),%xmm3
  50:	f2 0f 70 d2 40       	pshuflw $0x40,%xmm2,%xmm2
  55:	f2 0f 70 db 40       	pshuflw $0x40,%xmm3,%xmm3
  5a:	0f 16 d3             	movlhps %xmm3,%xmm2
  5d:	66 0f e4 ca          	pmulhuw %xmm2,%xmm1
  61:	48 8d 7f 10          	lea    0x10(%rdi),%rdi
  65:	66 0f 67 c1          	packuswb %xmm1,%xmm0
  69:	f3 0f 7f 06          	movdqu %xmm0,(%rsi)
  6d:	48 8d 76 10          	lea    0x10(%rsi),%rsi
  71:	83 ea 04             	sub    $0x4,%edx
  74:	7f 91                	jg     7 <ARGBUnattenuateRow_SSE2+0x7>
  76:	c3                   	retq   

Disassembly of section .text.ARGBUnattenuateRow_AVX2:

0000000000000000 <ARGBUnattenuateRow_AVX2>:
   0:	48 8b 05 00 00 00 00 	mov    0x0(%rip),%rax        # 7 <ARGBUnattenuateRow_AVX2+0x7>
   7:	48 29 fe             	sub    %rdi,%rsi
   a:	c4 e2 7d 1a 2d 00 00 	vbroadcastf128 0x0(%rip),%ymm5        # 13 <ARGBUnattenuateRow_AVX2+0x13>
  11:	00 00 
  13:	48 0f b6 4f 03       	movzbq 0x3(%rdi),%rcx
  18:	c5 f9 6e 04 88       	vmovd  (%rax,%rcx,4),%xmm0
  1d:	48 0f b6 4f 07       	movzbq 0x7(%rdi),%rcx
  22:	c5 f9 6e 0c 88       	vmovd  (%rax,%rcx,4),%xmm1
  27:	48 0f b6 4f 0b       	movzbq 0xb(%rdi),%rcx
  2c:	c5 f9 62 f1          	vpunpckldq %xmm1,%xmm0,%xmm6
  30:	c5 f9 6e 14 88       	vmovd  (%rax,%rcx,4),%xmm2
  35:	48 0f b6 4f 0f       	movzbq 0xf(%rdi),%rcx
  3a:	c5 f9 6e 1c 88       	vmovd  (%rax,%rcx,4),%xmm3
  3f:	48 0f b6 4f 13       	movzbq 0x13(%rdi),%rcx
  44:	c5 e9 62 fb          	vpunpckldq %xmm3,%xmm2,%xmm7
  48:	c5 f9 6e 04 88       	vmovd  (%rax,%rcx,4),%xmm0
  4d:	48 0f b6 4f 17       	movzbq 0x17(%rdi),%rcx
  52:	c5 f9 6e 0c 88       	vmovd  (%rax,%rcx,4),%xmm1
  57:	48 0f b6 4f 1b       	movzbq 0x1b(%rdi),%rcx
  5c:	c5 f9 62 c1          	vpunpckldq %xmm1,%xmm0,%xmm0
  60:	c5 f9 6e 14 88       	vmovd  (%rax,%rcx,4),%xmm2
  65:	48 0f b6 4f 1f       	movzbq 0x1f(%rdi),%rcx
  6a:	c5 f9 6e 1c 88       	vmovd  (%rax,%rcx,4),%xmm3
  6f:	c5 e9 62 d3          	vpunpckldq %xmm3,%xmm2,%xmm2
  73:	c5 c9 6c df          	vpunpcklqdq %xmm7,%xmm6,%xmm3
  77:	c5 f9 6c c2          	vpunpcklqdq %xmm2,%xmm0,%xmm0
  7b:	c4 e3 65 38 d8 01    	vinserti128 $0x1,%xmm0,%ymm3,%ymm3
  81:	c5 fe 6f 37          	vmovdqu (%rdi),%ymm6
  85:	c5 cd 60 c6          	vpunpcklbw %ymm6,%ymm6,%ymm0
  89:	c5 cd 68 ce          	vpunpckhbw %ymm6,%ymm6,%ymm1
  8d:	c5 e5 61 d3          	vpunpcklwd %ymm3,%ymm3,%ymm2
  91:	c5 e5 69 db          	vpunpckhwd %ymm3,%ymm3,%ymm3
  95:	c4 e2 6d 00 d5       	vpshufb %ymm5,%ymm2,%ymm2
  9a:	c4 e2 65 00 dd       	vpshufb %ymm5,%ymm3,%ymm3
  9f:	c5 fd e4 c2          	vpmulhuw %ymm2,%ymm0,%ymm0
  a3:	c5 f5 e4 cb          	vpmulhuw %ymm3,%ymm1,%ymm1
  a7:	c5 fd 67 c1          	vpackuswb %ymm1,%ymm0,%ymm0
  ab:	c5 fe 7f 04 37       	vmovdqu %ymm0,(%rdi,%rsi,1)
  b0:	48 8d 7f 20          	lea    0x20(%rdi),%rdi
  b4:	83 ea 08             	sub    $0x8,%edx
  b7:	0f 8f 56 ff ff ff    	jg     13 <ARGBUnattenuateRow_AVX2+0x13>
  bd:	c5 f8 77             	vzeroupper 
  c0:	c3                   	retq   

Disassembly of section .text.ARGBGrayRow_SSSE3:

0000000000000000 <ARGBGrayRow_SSSE3>:
   0:	66 0f 6f 25 00 00 00 	movdqa 0x0(%rip),%xmm4        # 8 <ARGBGrayRow_SSSE3+0x8>
   7:	00 
   8:	66 0f 6f 2d 00 00 00 	movdqa 0x0(%rip),%xmm5        # 10 <ARGBGrayRow_SSSE3+0x10>
   f:	00 
  10:	f3 0f 6f 07          	movdqu (%rdi),%xmm0
  14:	f3 0f 6f 4f 10       	movdqu 0x10(%rdi),%xmm1
  19:	66 0f 38 04 c4       	pmaddubsw %xmm4,%xmm0
  1e:	66 0f 38 04 cc       	pmaddubsw %xmm4,%xmm1
  23:	66 0f 38 01 c1       	phaddw %xmm1,%xmm0
  28:	66 0f fd c5          	paddw  %xmm5,%xmm0
  2c:	66 0f 71 d0 07       	psrlw  $0x7,%xmm0
  31:	66 0f 67 c0          	packuswb %xmm0,%xmm0
  35:	f3 0f 6f 17          	movdqu (%rdi),%xmm2
  39:	f3 0f 6f 5f 10       	movdqu 0x10(%rdi),%xmm3
  3e:	48 8d 7f 20          	lea    0x20(%rdi),%rdi
  42:	66 0f 72 d2 18       	psrld  $0x18,%xmm2
  47:	66 0f 72 d3 18       	psrld  $0x18,%xmm3
  4c:	66 0f 67 d3          	packuswb %xmm3,%xmm2
  50:	66 0f 67 d2          	packuswb %xmm2,%xmm2
  54:	66 0f 6f d8          	movdqa %xmm0,%xmm3
  58:	66 0f 60 c0          	punpcklbw %xmm0,%xmm0
  5c:	66 0f 60 da          	punpcklbw %xmm2,%xmm3
  60:	66 0f 6f c8          	movdqa %xmm0,%xmm1
  64:	66 0f 61 c3          	punpcklwd %xmm3,%xmm0
  68:	66 0f 69 cb          	punpckhwd %xmm3,%xmm1
  6c:	f3 0f 7f 06          	movdqu %xmm0,(%rsi)
  70:	f3 0f 7f 4e 10       	movdqu %xmm1,0x10(%rsi)
  75:	48 8d 76 20          	lea    0x20(%rsi),%rsi
  79:	83 ea 08             	sub    $0x8,%edx
  7c:	7f 92                	jg     10 <ARGBGrayRow_SSSE3+0x10>
  7e:	c3                   	retq   

Disassembly of section .text.ARGBSepiaRow_SSSE3:

0000000000000000 <ARGBSepiaRow_SSSE3>:
   0:	66 0f 6f 15 00 00 00 	movdqa 0x0(%rip),%xmm2        # 8 <ARGBSepiaRow_SSSE3+0x8>
   7:	00 
   8:	66 0f 6f 1d 00 00 00 	movdqa 0x0(%rip),%xmm3        # 10 <ARGBSepiaRow_SSSE3+0x10>
   f:	00 
  10:	66 0f 6f 25 00 00 00 	movdqa 0x0(%rip),%xmm4        # 18 <ARGBSepiaRow_SSSE3+0x18>
  17:	00 
  18:	f3 0f 6f 07          	movdqu (%rdi),%xmm0
  1c:	f3 0f 6f 77 10       	movdqu 0x10(%rdi),%xmm6
  21:	66 0f 38 04 c2       	pmaddubsw %xmm2,%xmm0
  26:	66 0f 38 04 f2       	pmaddubsw %xmm2,%xmm6
  2b:	66 0f 38 01 c6       	phaddw %xmm6,%xmm0
  30:	66 0f 71 d0 07       	psrlw  $0x7,%xmm0
  35:	66 0f 67 c0          	packuswb %xmm0,%xmm0
  39:	f3 0f 6f 2f          	movdqu (%rdi),%xmm5
  3d:	f3 0f 6f 4f 10       	movdqu 0x10(%rdi),%xmm1
  42:	66 0f 38 04 eb       	pmaddubsw %xmm3,%xmm5
  47:	66 0f 38 04 cb       	pmaddubsw %xmm3,%xmm1
  4c:	66 0f 38 01 e9       	phaddw %xmm1,%xmm5
  51:	66 0f 71 d5 07       	psrlw  $0x7,%xmm5
  56:	66 0f 67 ed          	packuswb %xmm5,%xmm5
  5a:	66 0f 60 c5          	punpcklbw %xmm5,%xmm0
  5e:	f3 0f 6f 2f          	movdqu (%rdi),%xmm5
  62:	f3 0f 6f 4f 10       	movdqu 0x10(%rdi),%xmm1
  67:	66 0f 38 04 ec       	pmaddubsw %xmm4,%xmm5
  6c:	66 0f 38 04 cc       	pmaddubsw %xmm4,%xmm1
  71:	66 0f 38 01 e9       	phaddw %xmm1,%xmm5
  76:	66 0f 71 d5 07       	psrlw  $0x7,%xmm5
  7b:	66 0f 67 ed          	packuswb %xmm5,%xmm5
  7f:	f3 0f 6f 37          	movdqu (%rdi),%xmm6
  83:	f3 0f 6f 4f 10       	movdqu 0x10(%rdi),%xmm1
  88:	66 0f 72 d6 18       	psrld  $0x18,%xmm6
  8d:	66 0f 72 d1 18       	psrld  $0x18,%xmm1
  92:	66 0f 67 f1          	packuswb %xmm1,%xmm6
  96:	66 0f 67 f6          	packuswb %xmm6,%xmm6
  9a:	66 0f 60 ee          	punpcklbw %xmm6,%xmm5
  9e:	66 0f 6f c8          	movdqa %xmm0,%xmm1
  a2:	66 0f 61 c5          	punpcklwd %xmm5,%xmm0
  a6:	66 0f 69 cd          	punpckhwd %xmm5,%xmm1
  aa:	f3 0f 7f 07          	movdqu %xmm0,(%rdi)
  ae:	f3 0f 7f 4f 10       	movdqu %xmm1,0x10(%rdi)
  b3:	48 8d 7f 20          	lea    0x20(%rdi),%rdi
  b7:	83 ee 08             	sub    $0x8,%esi
  ba:	0f 8f 58 ff ff ff    	jg     18 <ARGBSepiaRow_SSSE3+0x18>
  c0:	c3                   	retq   

Disassembly of section .text.ARGBColorMatrixRow_SSSE3:

0000000000000000 <ARGBColorMatrixRow_SSSE3>:
   0:	f3 0f 6f 2a          	movdqu (%rdx),%xmm5
   4:	66 0f 70 d5 00       	pshufd $0x0,%xmm5,%xmm2
   9:	66 0f 70 dd 55       	pshufd $0x55,%xmm5,%xmm3
   e:	66 0f 70 e5 aa       	pshufd $0xaa,%xmm5,%xmm4
  13:	66 0f 70 ed ff       	pshufd $0xff,%xmm5,%xmm5
  18:	f3 0f 6f 07          	movdqu (%rdi),%xmm0
  1c:	f3 0f 6f 7f 10       	movdqu 0x10(%rdi),%xmm7
  21:	66 0f 38 04 c2       	pmaddubsw %xmm2,%xmm0
  26:	66 0f 38 04 fa       	pmaddubsw %xmm2,%xmm7
  2b:	f3 0f 6f 37          	movdqu (%rdi),%xmm6
  2f:	f3 0f 6f 4f 10       	movdqu 0x10(%rdi),%xmm1
  34:	66 0f 38 04 f3       	pmaddubsw %xmm3,%xmm6
  39:	66 0f 38 04 cb       	pmaddubsw %xmm3,%xmm1
  3e:	66 0f 38 03 c7       	phaddsw %xmm7,%xmm0
  43:	66 0f 38 03 f1       	phaddsw %xmm1,%xmm6
  48:	66 0f 71 e0 06       	psraw  $0x6,%xmm0
  4d:	66 0f 71 e6 06       	psraw  $0x6,%xmm6
  52:	66 0f 67 c0          	packuswb %xmm0,%xmm0
  56:	66 0f 67 f6          	packuswb %xmm6,%xmm6
  5a:	66 0f 60 c6          	punpcklbw %xmm6,%xmm0
  5e:	f3 0f 6f 0f          	movdqu (%rdi),%xmm1
  62:	f3 0f 6f 7f 10       	movdqu 0x10(%rdi),%xmm7
  67:	66 0f 38 04 cc       	pmaddubsw %xmm4,%xmm1
  6c:	66 0f 38 04 fc       	pmaddubsw %xmm4,%xmm7
  71:	66 0f 38 03 cf       	phaddsw %xmm7,%xmm1
  76:	f3 0f 6f 37          	movdqu (%rdi),%xmm6
  7a:	f3 0f 6f 7f 10       	movdqu 0x10(%rdi),%xmm7
  7f:	66 0f 38 04 f5       	pmaddubsw %xmm5,%xmm6
  84:	66 0f 38 04 fd       	pmaddubsw %xmm5,%xmm7
  89:	66 0f 38 03 f7       	phaddsw %xmm7,%xmm6
  8e:	66 0f 71 e1 06       	psraw  $0x6,%xmm1
  93:	66 0f 71 e6 06       	psraw  $0x6,%xmm6
  98:	66 0f 67 c9          	packuswb %xmm1,%xmm1
  9c:	66 0f 67 f6          	packuswb %xmm6,%xmm6
  a0:	66 0f 60 ce          	punpcklbw %xmm6,%xmm1
  a4:	66 0f 6f f0          	movdqa %xmm0,%xmm6
  a8:	66 0f 61 c1          	punpcklwd %xmm1,%xmm0
  ac:	66 0f 69 f1          	punpckhwd %xmm1,%xmm6
  b0:	f3 0f 7f 06          	movdqu %xmm0,(%rsi)
  b4:	f3 0f 7f 76 10       	movdqu %xmm6,0x10(%rsi)
  b9:	48 8d 7f 20          	lea    0x20(%rdi),%rdi
  bd:	48 8d 76 20          	lea    0x20(%rsi),%rsi
  c1:	83 e9 08             	sub    $0x8,%ecx
  c4:	0f 8f 4e ff ff ff    	jg     18 <ARGBColorMatrixRow_SSSE3+0x18>
  ca:	c3                   	retq   

Disassembly of section .text.ARGBQuantizeRow_SSE2:

0000000000000000 <ARGBQuantizeRow_SSE2>:
   0:	66 0f 6e d6          	movd   %esi,%xmm2
   4:	66 0f 6e da          	movd   %edx,%xmm3
   8:	66 0f 6e e1          	movd   %ecx,%xmm4
   c:	f2 0f 70 d2 40       	pshuflw $0x40,%xmm2,%xmm2
  11:	66 0f 70 d2 44       	pshufd $0x44,%xmm2,%xmm2
  16:	f2 0f 70 db 40       	pshuflw $0x40,%xmm3,%xmm3
  1b:	66 0f 70 db 44       	pshufd $0x44,%xmm3,%xmm3
  20:	f2 0f 70 e4 40       	pshuflw $0x40,%xmm4,%xmm4
  25:	66 0f 70 e4 44       	pshufd $0x44,%xmm4,%xmm4
  2a:	66 0f ef ed          	pxor   %xmm5,%xmm5
  2e:	66 0f 74 f6          	pcmpeqb %xmm6,%xmm6
  32:	66 0f 72 f6 18       	pslld  $0x18,%xmm6
  37:	f3 0f 6f 07          	movdqu (%rdi),%xmm0
  3b:	66 0f 60 c5          	punpcklbw %xmm5,%xmm0
  3f:	66 0f e4 c2          	pmulhuw %xmm2,%xmm0
  43:	f3 0f 6f 0f          	movdqu (%rdi),%xmm1
  47:	66 0f 68 cd          	punpckhbw %xmm5,%xmm1
  4b:	66 0f e4 ca          	pmulhuw %xmm2,%xmm1
  4f:	66 0f d5 c3          	pmullw %xmm3,%xmm0
  53:	f3 0f 6f 3f          	movdqu (%rdi),%xmm7
  57:	66 0f d5 cb          	pmullw %xmm3,%xmm1
  5b:	66 0f db fe          	pand   %xmm6,%xmm7
  5f:	66 0f fd c4          	paddw  %xmm4,%xmm0
  63:	66 0f fd cc          	paddw  %xmm4,%xmm1
  67:	66 0f 67 c1          	packuswb %xmm1,%xmm0
  6b:	66 0f eb c7          	por    %xmm7,%xmm0
  6f:	f3 0f 7f 07          	movdqu %xmm0,(%rdi)
  73:	48 8d 7f 10          	lea    0x10(%rdi),%rdi
  77:	41 83 e8 04          	sub    $0x4,%r8d
  7b:	7f ba                	jg     37 <ARGBQuantizeRow_SSE2+0x37>
  7d:	c3                   	retq   

Disassembly of section .text.ARGBShadeRow_SSE2:

0000000000000000 <ARGBShadeRow_SSE2>:
   0:	66 0f 6e d1          	movd   %ecx,%xmm2
   4:	66 0f 60 d2          	punpcklbw %xmm2,%xmm2
   8:	66 0f 6c d2          	punpcklqdq %xmm2,%xmm2
   c:	f3 0f 6f 07          	movdqu (%rdi),%xmm0
  10:	48 8d 7f 10          	lea    0x10(%rdi),%rdi
  14:	66 0f 6f c8          	movdqa %xmm0,%xmm1
  18:	66 0f 60 c0          	punpcklbw %xmm0,%xmm0
  1c:	66 0f 68 c9          	punpckhbw %xmm1,%xmm1
  20:	66 0f e4 c2          	pmulhuw %xmm2,%xmm0
  24:	66 0f e4 ca          	pmulhuw %xmm2,%xmm1
  28:	66 0f 71 d0 08       	psrlw  $0x8,%xmm0
  2d:	66 0f 71 d1 08       	psrlw  $0x8,%xmm1
  32:	66 0f 67 c1          	packuswb %xmm1,%xmm0
  36:	f3 0f 7f 06          	movdqu %xmm0,(%rsi)
  3a:	48 8d 76 10          	lea    0x10(%rsi),%rsi
  3e:	83 ea 04             	sub    $0x4,%edx
  41:	7f c9                	jg     c <ARGBShadeRow_SSE2+0xc>
  43:	c3                   	retq   

Disassembly of section .text.ARGBMultiplyRow_SSE2:

0000000000000000 <ARGBMultiplyRow_SSE2>:
   0:	66 0f ef ed          	pxor   %xmm5,%xmm5
   4:	f3 0f 6f 07          	movdqu (%rdi),%xmm0
   8:	48 8d 7f 10          	lea    0x10(%rdi),%rdi
   c:	f3 0f 6f 16          	movdqu (%rsi),%xmm2
  10:	48 8d 76 10          	lea    0x10(%rsi),%rsi
  14:	f3 0f 6f c8          	movdqu %xmm0,%xmm1
  18:	f3 0f 6f da          	movdqu %xmm2,%xmm3
  1c:	66 0f 60 c0          	punpcklbw %xmm0,%xmm0
  20:	66 0f 68 c9          	punpckhbw %xmm1,%xmm1
  24:	66 0f 60 d5          	punpcklbw %xmm5,%xmm2
  28:	66 0f 68 dd          	punpckhbw %xmm5,%xmm3
  2c:	66 0f e4 c2          	pmulhuw %xmm2,%xmm0
  30:	66 0f e4 cb          	pmulhuw %xmm3,%xmm1
  34:	66 0f 67 c1          	packuswb %xmm1,%xmm0
  38:	f3 0f 7f 02          	movdqu %xmm0,(%rdx)
  3c:	48 8d 52 10          	lea    0x10(%rdx),%rdx
  40:	83 e9 04             	sub    $0x4,%ecx
  43:	7f bf                	jg     4 <ARGBMultiplyRow_SSE2+0x4>
  45:	c3                   	retq   

Disassembly of section .text.ARGBMultiplyRow_AVX2:

0000000000000000 <ARGBMultiplyRow_AVX2>:
   0:	c5 d5 ef ed          	vpxor  %ymm5,%ymm5,%ymm5
   4:	c5 fe 6f 0f          	vmovdqu (%rdi),%ymm1
   8:	48 8d 7f 20          	lea    0x20(%rdi),%rdi
   c:	c5 fe 6f 1e          	vmovdqu (%rsi),%ymm3
  10:	48 8d 76 20          	lea    0x20(%rsi),%rsi
  14:	c5 f5 60 c1          	vpunpcklbw %ymm1,%ymm1,%ymm0
  18:	c5 f5 68 c9          	vpunpckhbw %ymm1,%ymm1,%ymm1
  1c:	c5 e5 60 d5          	vpunpcklbw %ymm5,%ymm3,%ymm2
  20:	c5 e5 68 dd          	vpunpckhbw %ymm5,%ymm3,%ymm3
  24:	c5 fd e4 c2          	vpmulhuw %ymm2,%ymm0,%ymm0
  28:	c5 f5 e4 cb          	vpmulhuw %ymm3,%ymm1,%ymm1
  2c:	c5 fd 67 c1          	vpackuswb %ymm1,%ymm0,%ymm0
  30:	c5 fe 7f 02          	vmovdqu %ymm0,(%rdx)
  34:	48 8d 52 20          	lea    0x20(%rdx),%rdx
  38:	83 e9 08             	sub    $0x8,%ecx
  3b:	7f c7                	jg     4 <ARGBMultiplyRow_AVX2+0x4>
  3d:	c5 f8 77             	vzeroupper 
  40:	c3                   	retq   

Disassembly of section .text.ARGBAddRow_SSE2:

0000000000000000 <ARGBAddRow_SSE2>:
   0:	f3 0f 6f 07          	movdqu (%rdi),%xmm0
   4:	48 8d 7f 10          	lea    0x10(%rdi),%rdi
   8:	f3 0f 6f 0e          	movdqu (%rsi),%xmm1
   c:	48 8d 76 10          	lea    0x10(%rsi),%rsi
  10:	66 0f dc c1          	paddusb %xmm1,%xmm0
  14:	f3 0f 7f 02          	movdqu %xmm0,(%rdx)
  18:	48 8d 52 10          	lea    0x10(%rdx),%rdx
  1c:	83 e9 04             	sub    $0x4,%ecx
  1f:	7f df                	jg     0 <ARGBAddRow_SSE2>
  21:	c3                   	retq   

Disassembly of section .text.ARGBAddRow_AVX2:

0000000000000000 <ARGBAddRow_AVX2>:
   0:	c5 fe 6f 07          	vmovdqu (%rdi),%ymm0
   4:	48 8d 7f 20          	lea    0x20(%rdi),%rdi
   8:	c5 fd dc 06          	vpaddusb (%rsi),%ymm0,%ymm0
   c:	48 8d 76 20          	lea    0x20(%rsi),%rsi
  10:	c5 fe 7f 02          	vmovdqu %ymm0,(%rdx)
  14:	48 8d 52 20          	lea    0x20(%rdx),%rdx
  18:	83 e9 08             	sub    $0x8,%ecx
  1b:	7f e3                	jg     0 <ARGBAddRow_AVX2>
  1d:	c5 f8 77             	vzeroupper 
  20:	c3                   	retq   

Disassembly of section .text.ARGBSubtractRow_SSE2:

0000000000000000 <ARGBSubtractRow_SSE2>:
   0:	f3 0f 6f 07          	movdqu (%rdi),%xmm0
   4:	48 8d 7f 10          	lea    0x10(%rdi),%rdi
   8:	f3 0f 6f 0e          	movdqu (%rsi),%xmm1
   c:	48 8d 76 10          	lea    0x10(%rsi),%rsi
  10:	66 0f d8 c1          	psubusb %xmm1,%xmm0
  14:	f3 0f 7f 02          	movdqu %xmm0,(%rdx)
  18:	48 8d 52 10          	lea    0x10(%rdx),%rdx
  1c:	83 e9 04             	sub    $0x4,%ecx
  1f:	7f df                	jg     0 <ARGBSubtractRow_SSE2>
  21:	c3                   	retq   

Disassembly of section .text.ARGBSubtractRow_AVX2:

0000000000000000 <ARGBSubtractRow_AVX2>:
   0:	c5 fe 6f 07          	vmovdqu (%rdi),%ymm0
   4:	48 8d 7f 20          	lea    0x20(%rdi),%rdi
   8:	c5 fd d8 06          	vpsubusb (%rsi),%ymm0,%ymm0
   c:	48 8d 76 20          	lea    0x20(%rsi),%rsi
  10:	c5 fe 7f 02          	vmovdqu %ymm0,(%rdx)
  14:	48 8d 52 20          	lea    0x20(%rdx),%rdx
  18:	83 e9 08             	sub    $0x8,%ecx
  1b:	7f e3                	jg     0 <ARGBSubtractRow_AVX2>
  1d:	c5 f8 77             	vzeroupper 
  20:	c3                   	retq   

Disassembly of section .text.SobelXRow_SSE2:

0000000000000000 <SobelXRow_SSE2>:
   0:	48 29 fe             	sub    %rdi,%rsi
   3:	48 29 fa             	sub    %rdi,%rdx
   6:	48 29 f9             	sub    %rdi,%rcx
   9:	66 0f ef ed          	pxor   %xmm5,%xmm5
   d:	f3 0f 7e 07          	movq   (%rdi),%xmm0
  11:	f3 0f 7e 4f 02       	movq   0x2(%rdi),%xmm1
  16:	66 0f 60 c5          	punpcklbw %xmm5,%xmm0
  1a:	66 0f 60 cd          	punpcklbw %xmm5,%xmm1
  1e:	66 0f f9 c1          	psubw  %xmm1,%xmm0
  22:	f3 0f 7e 0c 37       	movq   (%rdi,%rsi,1),%xmm1
  27:	f3 0f 7e 54 37 02    	movq   0x2(%rdi,%rsi,1),%xmm2
  2d:	66 0f 60 cd          	punpcklbw %xmm5,%xmm1
  31:	66 0f 60 d5          	punpcklbw %xmm5,%xmm2
  35:	66 0f f9 ca          	psubw  %xmm2,%xmm1
  39:	f3 0f 7e 14 17       	movq   (%rdi,%rdx,1),%xmm2
  3e:	f3 0f 7e 5c 17 02    	movq   0x2(%rdi,%rdx,1),%xmm3
  44:	66 0f 60 d5          	punpcklbw %xmm5,%xmm2
  48:	66 0f 60 dd          	punpcklbw %xmm5,%xmm3
  4c:	66 0f f9 d3          	psubw  %xmm3,%xmm2
  50:	66 0f fd c2          	paddw  %xmm2,%xmm0
  54:	66 0f fd c1          	paddw  %xmm1,%xmm0
  58:	66 0f fd c1          	paddw  %xmm1,%xmm0
  5c:	66 0f ef c9          	pxor   %xmm1,%xmm1
  60:	66 0f f9 c8          	psubw  %xmm0,%xmm1
  64:	66 0f ee c1          	pmaxsw %xmm1,%xmm0
  68:	66 0f 67 c0          	packuswb %xmm0,%xmm0
  6c:	66 0f d6 04 0f       	movq   %xmm0,(%rdi,%rcx,1)
  71:	48 8d 7f 08          	lea    0x8(%rdi),%rdi
  75:	41 83 e8 08          	sub    $0x8,%r8d
  79:	7f 92                	jg     d <SobelXRow_SSE2+0xd>
  7b:	c3                   	retq   

Disassembly of section .text.SobelYRow_SSE2:

0000000000000000 <SobelYRow_SSE2>:
   0:	48 29 fe             	sub    %rdi,%rsi
   3:	48 29 fa             	sub    %rdi,%rdx
   6:	66 0f ef ed          	pxor   %xmm5,%xmm5
   a:	f3 0f 7e 07          	movq   (%rdi),%xmm0
   e:	f3 0f 7e 0c 37       	movq   (%rdi,%rsi,1),%xmm1
  13:	66 0f 60 c5          	punpcklbw %xmm5,%xmm0
  17:	66 0f 60 cd          	punpcklbw %xmm5,%xmm1
  1b:	66 0f f9 c1          	psubw  %xmm1,%xmm0
  1f:	f3 0f 7e 4f 01       	movq   0x1(%rdi),%xmm1
  24:	f3 0f 7e 54 37 01    	movq   0x1(%rdi,%rsi,1),%xmm2
  2a:	66 0f 60 cd          	punpcklbw %xmm5,%xmm1
  2e:	66 0f 60 d5          	punpcklbw %xmm5,%xmm2
  32:	66 0f f9 ca          	psubw  %xmm2,%xmm1
  36:	f3 0f 7e 57 02       	movq   0x2(%rdi),%xmm2
  3b:	f3 0f 7e 5c 37 02    	movq   0x2(%rdi,%rsi,1),%xmm3
  41:	66 0f 60 d5          	punpcklbw %xmm5,%xmm2
  45:	66 0f 60 dd          	punpcklbw %xmm5,%xmm3
  49:	66 0f f9 d3          	psubw  %xmm3,%xmm2
  4d:	66 0f fd c2          	paddw  %xmm2,%xmm0
  51:	66 0f fd c1          	paddw  %xmm1,%xmm0
  55:	66 0f fd c1          	paddw  %xmm1,%xmm0
  59:	66 0f ef c9          	pxor   %xmm1,%xmm1
  5d:	66 0f f9 c8          	psubw  %xmm0,%xmm1
  61:	66 0f ee c1          	pmaxsw %xmm1,%xmm0
  65:	66 0f 67 c0          	packuswb %xmm0,%xmm0
  69:	66 0f d6 04 17       	movq   %xmm0,(%rdi,%rdx,1)
  6e:	48 8d 7f 08          	lea    0x8(%rdi),%rdi
  72:	83 e9 08             	sub    $0x8,%ecx
  75:	7f 93                	jg     a <SobelYRow_SSE2+0xa>
  77:	c3                   	retq   

Disassembly of section .text.SobelRow_SSE2:

0000000000000000 <SobelRow_SSE2>:
   0:	48 29 fe             	sub    %rdi,%rsi
   3:	66 0f 74 ed          	pcmpeqb %xmm5,%xmm5
   7:	66 0f 72 f5 18       	pslld  $0x18,%xmm5
   c:	f3 0f 6f 07          	movdqu (%rdi),%xmm0
  10:	f3 0f 6f 0c 37       	movdqu (%rdi,%rsi,1),%xmm1
  15:	48 8d 7f 10          	lea    0x10(%rdi),%rdi
  19:	66 0f dc c1          	paddusb %xmm1,%xmm0
  1d:	66 0f 6f d0          	movdqa %xmm0,%xmm2
  21:	66 0f 60 d0          	punpcklbw %xmm0,%xmm2
  25:	66 0f 68 c0          	punpckhbw %xmm0,%xmm0
  29:	66 0f 6f ca          	movdqa %xmm2,%xmm1
  2d:	66 0f 61 ca          	punpcklwd %xmm2,%xmm1
  31:	66 0f 69 d2          	punpckhwd %xmm2,%xmm2
  35:	66 0f eb cd          	por    %xmm5,%xmm1
  39:	66 0f eb d5          	por    %xmm5,%xmm2
  3d:	66 0f 6f d8          	movdqa %xmm0,%xmm3
  41:	66 0f 61 d8          	punpcklwd %xmm0,%xmm3
  45:	66 0f 69 c0          	punpckhwd %xmm0,%xmm0
  49:	66 0f eb dd          	por    %xmm5,%xmm3
  4d:	66 0f eb c5          	por    %xmm5,%xmm0
  51:	f3 0f 7f 0a          	movdqu %xmm1,(%rdx)
  55:	f3 0f 7f 52 10       	movdqu %xmm2,0x10(%rdx)
  5a:	f3 0f 7f 5a 20       	movdqu %xmm3,0x20(%rdx)
  5f:	f3 0f 7f 42 30       	movdqu %xmm0,0x30(%rdx)
  64:	48 8d 52 40          	lea    0x40(%rdx),%rdx
  68:	83 e9 10             	sub    $0x10,%ecx
  6b:	7f 9f                	jg     c <SobelRow_SSE2+0xc>
  6d:	c3                   	retq   

Disassembly of section .text.SobelToPlaneRow_SSE2:

0000000000000000 <SobelToPlaneRow_SSE2>:
   0:	48 29 fe             	sub    %rdi,%rsi
   3:	66 0f 74 ed          	pcmpeqb %xmm5,%xmm5
   7:	66 0f 72 f5 18       	pslld  $0x18,%xmm5
   c:	f3 0f 6f 07          	movdqu (%rdi),%xmm0
  10:	f3 0f 6f 0c 37       	movdqu (%rdi,%rsi,1),%xmm1
  15:	48 8d 7f 10          	lea    0x10(%rdi),%rdi
  19:	66 0f dc c1          	paddusb %xmm1,%xmm0
  1d:	f3 0f 7f 02          	movdqu %xmm0,(%rdx)
  21:	48 8d 52 10          	lea    0x10(%rdx),%rdx
  25:	83 e9 10             	sub    $0x10,%ecx
  28:	7f e2                	jg     c <SobelToPlaneRow_SSE2+0xc>
  2a:	c3                   	retq   

Disassembly of section .text.SobelXYRow_SSE2:

0000000000000000 <SobelXYRow_SSE2>:
   0:	48 29 fe             	sub    %rdi,%rsi
   3:	66 0f 74 ed          	pcmpeqb %xmm5,%xmm5
   7:	f3 0f 6f 07          	movdqu (%rdi),%xmm0
   b:	f3 0f 6f 0c 37       	movdqu (%rdi,%rsi,1),%xmm1
  10:	48 8d 7f 10          	lea    0x10(%rdi),%rdi
  14:	66 0f 6f d0          	movdqa %xmm0,%xmm2
  18:	66 0f dc d1          	paddusb %xmm1,%xmm2
  1c:	66 0f 6f d8          	movdqa %xmm0,%xmm3
  20:	66 0f 60 dd          	punpcklbw %xmm5,%xmm3
  24:	66 0f 68 c5          	punpckhbw %xmm5,%xmm0
  28:	66 0f 6f e1          	movdqa %xmm1,%xmm4
  2c:	66 0f 60 e2          	punpcklbw %xmm2,%xmm4
  30:	66 0f 68 ca          	punpckhbw %xmm2,%xmm1
  34:	66 0f 6f f4          	movdqa %xmm4,%xmm6
  38:	66 0f 61 f3          	punpcklwd %xmm3,%xmm6
  3c:	66 0f 69 e3          	punpckhwd %xmm3,%xmm4
  40:	66 0f 6f f9          	movdqa %xmm1,%xmm7
  44:	66 0f 61 f8          	punpcklwd %xmm0,%xmm7
  48:	66 0f 69 c8          	punpckhwd %xmm0,%xmm1
  4c:	f3 0f 7f 32          	movdqu %xmm6,(%rdx)
  50:	f3 0f 7f 62 10       	movdqu %xmm4,0x10(%rdx)
  55:	f3 0f 7f 7a 20       	movdqu %xmm7,0x20(%rdx)
  5a:	f3 0f 7f 4a 30       	movdqu %xmm1,0x30(%rdx)
  5f:	48 8d 52 40          	lea    0x40(%rdx),%rdx
  63:	83 e9 10             	sub    $0x10,%ecx
  66:	7f 9f                	jg     7 <SobelXYRow_SSE2+0x7>
  68:	c3                   	retq   

Disassembly of section .text.ComputeCumulativeSumRow_SSE2:

0000000000000000 <ComputeCumulativeSumRow_SSE2>:
   0:	66 0f ef c0          	pxor   %xmm0,%xmm0
   4:	66 0f ef c9          	pxor   %xmm1,%xmm1
   8:	83 e9 04             	sub    $0x4,%ecx
   b:	0f 8c 88 00 00 00    	jl     99 <ComputeCumulativeSumRow_SSE2+0x99>
  11:	48 f7 c6 0f 00 00 00 	test   $0xf,%rsi
  18:	75 7f                	jne    99 <ComputeCumulativeSumRow_SSE2+0x99>
  1a:	f3 0f 6f 17          	movdqu (%rdi),%xmm2
  1e:	48 8d 7f 10          	lea    0x10(%rdi),%rdi
  22:	66 0f 6f e2          	movdqa %xmm2,%xmm4
  26:	66 0f 60 d1          	punpcklbw %xmm1,%xmm2
  2a:	66 0f 6f da          	movdqa %xmm2,%xmm3
  2e:	66 0f 61 d1          	punpcklwd %xmm1,%xmm2
  32:	66 0f 69 d9          	punpckhwd %xmm1,%xmm3
  36:	66 0f 68 e1          	punpckhbw %xmm1,%xmm4
  3a:	66 0f 6f ec          	movdqa %xmm4,%xmm5
  3e:	66 0f 61 e1          	punpcklwd %xmm1,%xmm4
  42:	66 0f 69 e9          	punpckhwd %xmm1,%xmm5
  46:	66 0f fe c2          	paddd  %xmm2,%xmm0
  4a:	f3 0f 6f 12          	movdqu (%rdx),%xmm2
  4e:	66 0f fe d0          	paddd  %xmm0,%xmm2
  52:	66 0f fe c3          	paddd  %xmm3,%xmm0
  56:	f3 0f 6f 5a 10       	movdqu 0x10(%rdx),%xmm3
  5b:	66 0f fe d8          	paddd  %xmm0,%xmm3
  5f:	66 0f fe c4          	paddd  %xmm4,%xmm0
  63:	f3 0f 6f 62 20       	movdqu 0x20(%rdx),%xmm4
  68:	66 0f fe e0          	paddd  %xmm0,%xmm4
  6c:	66 0f fe c5          	paddd  %xmm5,%xmm0
  70:	f3 0f 6f 6a 30       	movdqu 0x30(%rdx),%xmm5
  75:	48 8d 52 40          	lea    0x40(%rdx),%rdx
  79:	66 0f fe e8          	paddd  %xmm0,%xmm5
  7d:	f3 0f 7f 16          	movdqu %xmm2,(%rsi)
  81:	f3 0f 7f 5e 10       	movdqu %xmm3,0x10(%rsi)
  86:	f3 0f 7f 66 20       	movdqu %xmm4,0x20(%rsi)
  8b:	f3 0f 7f 6e 30       	movdqu %xmm5,0x30(%rsi)
  90:	48 8d 76 40          	lea    0x40(%rsi),%rsi
  94:	83 e9 04             	sub    $0x4,%ecx
  97:	7d 81                	jge    1a <ComputeCumulativeSumRow_SSE2+0x1a>
  99:	83 c1 03             	add    $0x3,%ecx
  9c:	7c 2d                	jl     cb <ComputeCumulativeSumRow_SSE2+0xcb>
  9e:	66 0f 6e 17          	movd   (%rdi),%xmm2
  a2:	48 8d 7f 04          	lea    0x4(%rdi),%rdi
  a6:	66 0f 60 d1          	punpcklbw %xmm1,%xmm2
  aa:	66 0f 61 d1          	punpcklwd %xmm1,%xmm2
  ae:	66 0f fe c2          	paddd  %xmm2,%xmm0
  b2:	f3 0f 6f 12          	movdqu (%rdx),%xmm2
  b6:	48 8d 52 10          	lea    0x10(%rdx),%rdx
  ba:	66 0f fe d0          	paddd  %xmm0,%xmm2
  be:	f3 0f 7f 16          	movdqu %xmm2,(%rsi)
  c2:	48 8d 76 10          	lea    0x10(%rsi),%rsi
  c6:	83 e9 01             	sub    $0x1,%ecx
  c9:	7d d3                	jge    9e <ComputeCumulativeSumRow_SSE2+0x9e>
  cb:	c3                   	retq   

Disassembly of section .text.CumulativeSumToAverageRow_SSE2:

0000000000000000 <CumulativeSumToAverageRow_SSE2>:
   0:	44 89 4c 24 fc       	mov    %r9d,-0x4(%rsp)
   5:	48 63 c2             	movslq %edx,%rax
   8:	89 4c 24 f8          	mov    %ecx,-0x8(%rsp)
   c:	66 0f 6e 6c 24 f8    	movd   -0x8(%rsp),%xmm5
  12:	0f 5b ed             	cvtdq2ps %xmm5,%xmm5
  15:	f3 0f 53 e5          	rcpss  %xmm5,%xmm4
  19:	66 0f 70 e4 00       	pshufd $0x0,%xmm4,%xmm4
  1e:	41 83 e9 04          	sub    $0x4,%r9d
  22:	0f 8c 54 01 00 00    	jl     17c <CumulativeSumToAverageRow_SSE2+0x17c>
  28:	81 7c 24 f8 80 00 00 	cmpl   $0x80,-0x8(%rsp)
  2f:	00 
  30:	0f 87 a3 00 00 00    	ja     d9 <CumulativeSumToAverageRow_SSE2+0xd9>
  36:	66 0f 70 ed 00       	pshufd $0x0,%xmm5,%xmm5
  3b:	66 0f 74 f6          	pcmpeqb %xmm6,%xmm6
  3f:	66 0f 72 d6 10       	psrld  $0x10,%xmm6
  44:	0f 5b f6             	cvtdq2ps %xmm6,%xmm6
  47:	0f 58 ee             	addps  %xmm6,%xmm5
  4a:	0f 59 ec             	mulps  %xmm4,%xmm5
  4d:	66 0f 5b ed          	cvtps2dq %xmm5,%xmm5
  51:	66 0f 6b ed          	packssdw %xmm5,%xmm5
  55:	f3 0f 6f 07          	movdqu (%rdi),%xmm0
  59:	f3 0f 6f 4f 10       	movdqu 0x10(%rdi),%xmm1
  5e:	f3 0f 6f 57 20       	movdqu 0x20(%rdi),%xmm2
  63:	f3 0f 6f 5f 30       	movdqu 0x30(%rdi),%xmm3
  68:	66 0f fa 04 87       	psubd  (%rdi,%rax,4),%xmm0
  6d:	66 0f fa 4c 87 10    	psubd  0x10(%rdi,%rax,4),%xmm1
  73:	66 0f fa 54 87 20    	psubd  0x20(%rdi,%rax,4),%xmm2
  79:	66 0f fa 5c 87 30    	psubd  0x30(%rdi,%rax,4),%xmm3
  7f:	48 8d 7f 40          	lea    0x40(%rdi),%rdi
  83:	66 0f fa 06          	psubd  (%rsi),%xmm0
  87:	66 0f fa 4e 10       	psubd  0x10(%rsi),%xmm1
  8c:	66 0f fa 56 20       	psubd  0x20(%rsi),%xmm2
  91:	66 0f fa 5e 30       	psubd  0x30(%rsi),%xmm3
  96:	66 0f fe 04 86       	paddd  (%rsi,%rax,4),%xmm0
  9b:	66 0f fe 4c 86 10    	paddd  0x10(%rsi,%rax,4),%xmm1
  a1:	66 0f fe 54 86 20    	paddd  0x20(%rsi,%rax,4),%xmm2
  a7:	66 0f fe 5c 86 30    	paddd  0x30(%rsi,%rax,4),%xmm3
  ad:	48 8d 76 40          	lea    0x40(%rsi),%rsi
  b1:	66 0f 6b c1          	packssdw %xmm1,%xmm0
  b5:	66 0f 6b d3          	packssdw %xmm3,%xmm2
  b9:	66 0f e4 c5          	pmulhuw %xmm5,%xmm0
  bd:	66 0f e4 d5          	pmulhuw %xmm5,%xmm2
  c1:	66 0f 67 c2          	packuswb %xmm2,%xmm0
  c5:	f3 41 0f 7f 00       	movdqu %xmm0,(%r8)
  ca:	4d 8d 40 10          	lea    0x10(%r8),%r8
  ce:	41 83 e9 04          	sub    $0x4,%r9d
  d2:	7d 81                	jge    55 <CumulativeSumToAverageRow_SSE2+0x55>
  d4:	e9 a3 00 00 00       	jmpq   17c <CumulativeSumToAverageRow_SSE2+0x17c>
  d9:	f3 0f 6f 07          	movdqu (%rdi),%xmm0
  dd:	f3 0f 6f 4f 10       	movdqu 0x10(%rdi),%xmm1
  e2:	f3 0f 6f 57 20       	movdqu 0x20(%rdi),%xmm2
  e7:	f3 0f 6f 5f 30       	movdqu 0x30(%rdi),%xmm3
  ec:	66 0f fa 04 87       	psubd  (%rdi,%rax,4),%xmm0
  f1:	66 0f fa 4c 87 10    	psubd  0x10(%rdi,%rax,4),%xmm1
  f7:	66 0f fa 54 87 20    	psubd  0x20(%rdi,%rax,4),%xmm2
  fd:	66 0f fa 5c 87 30    	psubd  0x30(%rdi,%rax,4),%xmm3
 103:	48 8d 7f 40          	lea    0x40(%rdi),%rdi
 107:	66 0f fa 06          	psubd  (%rsi),%xmm0
 10b:	66 0f fa 4e 10       	psubd  0x10(%rsi),%xmm1
 110:	66 0f fa 56 20       	psubd  0x20(%rsi),%xmm2
 115:	66 0f fa 5e 30       	psubd  0x30(%rsi),%xmm3
 11a:	66 0f fe 04 86       	paddd  (%rsi,%rax,4),%xmm0
 11f:	66 0f fe 4c 86 10    	paddd  0x10(%rsi,%rax,4),%xmm1
 125:	66 0f fe 54 86 20    	paddd  0x20(%rsi,%rax,4),%xmm2
 12b:	66 0f fe 5c 86 30    	paddd  0x30(%rsi,%rax,4),%xmm3
 131:	48 8d 76 40          	lea    0x40(%rsi),%rsi
 135:	0f 5b c0             	cvtdq2ps %xmm0,%xmm0
 138:	0f 5b c9             	cvtdq2ps %xmm1,%xmm1
 13b:	0f 59 c4             	mulps  %xmm4,%xmm0
 13e:	0f 59 cc             	mulps  %xmm4,%xmm1
 141:	0f 5b d2             	cvtdq2ps %xmm2,%xmm2
 144:	0f 5b db             	cvtdq2ps %xmm3,%xmm3
 147:	0f 59 d4             	mulps  %xmm4,%xmm2
 14a:	0f 59 dc             	mulps  %xmm4,%xmm3
 14d:	66 0f 5b c0          	cvtps2dq %xmm0,%xmm0
 151:	66 0f 5b c9          	cvtps2dq %xmm1,%xmm1
 155:	66 0f 5b d2          	cvtps2dq %xmm2,%xmm2
 159:	66 0f 5b db          	cvtps2dq %xmm3,%xmm3
 15d:	66 0f 6b c1          	packssdw %xmm1,%xmm0
 161:	66 0f 6b d3          	packssdw %xmm3,%xmm2
 165:	66 0f 67 c2          	packuswb %xmm2,%xmm0
 169:	f3 41 0f 7f 00       	movdqu %xmm0,(%r8)
 16e:	4d 8d 40 10          	lea    0x10(%r8),%r8
 172:	41 83 e9 04          	sub    $0x4,%r9d
 176:	0f 8d 5d ff ff ff    	jge    d9 <CumulativeSumToAverageRow_SSE2+0xd9>
 17c:	41 83 c1 03          	add    $0x3,%r9d
 180:	7c 3b                	jl     1bd <CumulativeSumToAverageRow_SSE2+0x1bd>
 182:	f3 0f 6f 07          	movdqu (%rdi),%xmm0
 186:	66 0f fa 04 87       	psubd  (%rdi,%rax,4),%xmm0
 18b:	48 8d 7f 10          	lea    0x10(%rdi),%rdi
 18f:	66 0f fa 06          	psubd  (%rsi),%xmm0
 193:	66 0f fe 04 86       	paddd  (%rsi,%rax,4),%xmm0
 198:	48 8d 76 10          	lea    0x10(%rsi),%rsi
 19c:	0f 5b c0             	cvtdq2ps %xmm0,%xmm0
 19f:	0f 59 c4             	mulps  %xmm4,%xmm0
 1a2:	66 0f 5b c0          	cvtps2dq %xmm0,%xmm0
 1a6:	66 0f 6b c0          	packssdw %xmm0,%xmm0
 1aa:	66 0f 67 c0          	packuswb %xmm0,%xmm0
 1ae:	66 41 0f 7e 00       	movd   %xmm0,(%r8)
 1b3:	4d 8d 40 04          	lea    0x4(%r8),%r8
 1b7:	41 83 e9 01          	sub    $0x1,%r9d
 1bb:	7d c5                	jge    182 <CumulativeSumToAverageRow_SSE2+0x182>
 1bd:	44 89 4c 24 fc       	mov    %r9d,-0x4(%rsp)
 1c2:	c3                   	retq   

Disassembly of section .text.ARGBAffineRow_SSE2:

0000000000000000 <ARGBAffineRow_SSE2>:
   0:	44 89 44 24 fc       	mov    %r8d,-0x4(%rsp)
   5:	48 63 c6             	movslq %esi,%rax
   8:	f3 0f 7e 11          	movq   (%rcx),%xmm2
   c:	f3 0f 7e 79 08       	movq   0x8(%rcx),%xmm7
  11:	48 c1 e0 10          	shl    $0x10,%rax
  15:	48 83 c0 04          	add    $0x4,%rax
  19:	66 48 0f 6e e8       	movq   %rax,%xmm5
  1e:	41 83 e8 04          	sub    $0x4,%r8d
  22:	0f 8c 89 00 00 00    	jl     b1 <ARGBAffineRow_SSE2+0xb1>
  28:	66 0f 70 ff 44       	pshufd $0x44,%xmm7,%xmm7
  2d:	66 0f 70 ed 00       	pshufd $0x0,%xmm5,%xmm5
  32:	66 0f 6f c2          	movdqa %xmm2,%xmm0
  36:	0f 58 c7             	addps  %xmm7,%xmm0
  39:	0f 16 d0             	movlhps %xmm0,%xmm2
  3c:	66 0f 6f e7          	movdqa %xmm7,%xmm4
  40:	0f 58 e4             	addps  %xmm4,%xmm4
  43:	66 0f 6f da          	movdqa %xmm2,%xmm3
  47:	0f 58 dc             	addps  %xmm4,%xmm3
  4a:	0f 58 e4             	addps  %xmm4,%xmm4
  4d:	f3 0f 5b c2          	cvttps2dq %xmm2,%xmm0
  51:	f3 0f 5b cb          	cvttps2dq %xmm3,%xmm1
  55:	66 0f 6b c1          	packssdw %xmm1,%xmm0
  59:	66 0f f5 c5          	pmaddwd %xmm5,%xmm0
  5d:	66 0f 7e c0          	movd   %xmm0,%eax
  61:	66 0f 70 c0 39       	pshufd $0x39,%xmm0,%xmm0
  66:	66 0f 7e c6          	movd   %xmm0,%esi
  6a:	66 0f 70 c0 39       	pshufd $0x39,%xmm0,%xmm0
  6f:	66 0f 6e 0c 07       	movd   (%rdi,%rax,1),%xmm1
  74:	66 0f 6e 34 37       	movd   (%rdi,%rsi,1),%xmm6
  79:	66 0f 62 ce          	punpckldq %xmm6,%xmm1
  7d:	0f 58 d4             	addps  %xmm4,%xmm2
  80:	66 0f d6 0a          	movq   %xmm1,(%rdx)
  84:	66 0f 7e c0          	movd   %xmm0,%eax
  88:	66 0f 70 c0 39       	pshufd $0x39,%xmm0,%xmm0
  8d:	66 0f 7e c6          	movd   %xmm0,%esi
  91:	66 0f 6e 04 07       	movd   (%rdi,%rax,1),%xmm0
  96:	66 0f 6e 34 37       	movd   (%rdi,%rsi,1),%xmm6
  9b:	66 0f 62 c6          	punpckldq %xmm6,%xmm0
  9f:	0f 58 dc             	addps  %xmm4,%xmm3
  a2:	66 0f d6 42 08       	movq   %xmm0,0x8(%rdx)
  a7:	48 8d 52 10          	lea    0x10(%rdx),%rdx
  ab:	41 83 e8 04          	sub    $0x4,%r8d
  af:	7d 9c                	jge    4d <ARGBAffineRow_SSE2+0x4d>
  b1:	41 83 c0 03          	add    $0x3,%r8d
  b5:	7c 26                	jl     dd <ARGBAffineRow_SSE2+0xdd>
  b7:	f3 0f 5b c2          	cvttps2dq %xmm2,%xmm0
  bb:	66 0f 6b c0          	packssdw %xmm0,%xmm0
  bf:	66 0f f5 c5          	pmaddwd %xmm5,%xmm0
  c3:	0f 58 d7             	addps  %xmm7,%xmm2
  c6:	66 0f 7e c0          	movd   %xmm0,%eax
  ca:	66 0f 6e 04 07       	movd   (%rdi,%rax,1),%xmm0
  cf:	66 0f 7e 02          	movd   %xmm0,(%rdx)
  d3:	48 8d 52 04          	lea    0x4(%rdx),%rdx
  d7:	41 83 e8 01          	sub    $0x1,%r8d
  db:	7d da                	jge    b7 <ARGBAffineRow_SSE2+0xb7>
  dd:	44 89 44 24 fc       	mov    %r8d,-0x4(%rsp)
  e2:	c3                   	retq   

Disassembly of section .text.InterpolateRow_SSSE3:

0000000000000000 <InterpolateRow_SSSE3>:
   0:	89 4c 24 fc          	mov    %ecx,-0x4(%rsp)
   4:	48 29 f7             	sub    %rsi,%rdi
   7:	41 83 f8 00          	cmp    $0x0,%r8d
   b:	0f 84 ae 00 00 00    	je     bf <InterpolateRow_SSSE3+0xbf>
  11:	41 81 f8 80 00 00 00 	cmp    $0x80,%r8d
  18:	0f 84 84 00 00 00    	je     a2 <InterpolateRow_SSSE3+0xa2>
  1e:	66 41 0f 6e c0       	movd   %r8d,%xmm0
  23:	41 f7 d8             	neg    %r8d
  26:	41 81 c0 00 01 00 00 	add    $0x100,%r8d
  2d:	66 41 0f 6e e8       	movd   %r8d,%xmm5
  32:	66 0f 60 e8          	punpcklbw %xmm0,%xmm5
  36:	66 0f 61 ed          	punpcklwd %xmm5,%xmm5
  3a:	66 0f 70 ed 00       	pshufd $0x0,%xmm5,%xmm5
  3f:	b8 80 80 80 80       	mov    $0x80808080,%eax
  44:	66 0f 6e e0          	movd   %eax,%xmm4
  48:	66 0f 70 e4 00       	pshufd $0x0,%xmm4,%xmm4
  4d:	f3 0f 6f 06          	movdqu (%rsi),%xmm0
  51:	f3 0f 6f 14 16       	movdqu (%rsi,%rdx,1),%xmm2
  56:	66 0f 6f c8          	movdqa %xmm0,%xmm1
  5a:	66 0f 60 c2          	punpcklbw %xmm2,%xmm0
  5e:	66 0f 68 ca          	punpckhbw %xmm2,%xmm1
  62:	66 0f f8 c4          	psubb  %xmm4,%xmm0
  66:	66 0f f8 cc          	psubb  %xmm4,%xmm1
  6a:	66 0f 6f d5          	movdqa %xmm5,%xmm2
  6e:	66 0f 6f dd          	movdqa %xmm5,%xmm3
  72:	66 0f 38 04 d0       	pmaddubsw %xmm0,%xmm2
  77:	66 0f 38 04 d9       	pmaddubsw %xmm1,%xmm3
  7c:	66 0f fd d4          	paddw  %xmm4,%xmm2
  80:	66 0f fd dc          	paddw  %xmm4,%xmm3
  84:	66 0f 71 d2 08       	psrlw  $0x8,%xmm2
  89:	66 0f 71 d3 08       	psrlw  $0x8,%xmm3
  8e:	66 0f 67 d3          	packuswb %xmm3,%xmm2
  92:	f3 0f 7f 14 3e       	movdqu %xmm2,(%rsi,%rdi,1)
  97:	48 8d 76 10          	lea    0x10(%rsi),%rsi
  9b:	83 e9 10             	sub    $0x10,%ecx
  9e:	7f ad                	jg     4d <InterpolateRow_SSSE3+0x4d>
  a0:	eb 2f                	jmp    d1 <InterpolateRow_SSSE3+0xd1>
  a2:	f3 0f 6f 06          	movdqu (%rsi),%xmm0
  a6:	f3 0f 6f 0c 16       	movdqu (%rsi,%rdx,1),%xmm1
  ab:	66 0f e0 c1          	pavgb  %xmm1,%xmm0
  af:	f3 0f 7f 04 3e       	movdqu %xmm0,(%rsi,%rdi,1)
  b4:	48 8d 76 10          	lea    0x10(%rsi),%rsi
  b8:	83 e9 10             	sub    $0x10,%ecx
  bb:	7f e5                	jg     a2 <InterpolateRow_SSSE3+0xa2>
  bd:	eb 12                	jmp    d1 <InterpolateRow_SSSE3+0xd1>
  bf:	f3 0f 6f 06          	movdqu (%rsi),%xmm0
  c3:	f3 0f 7f 04 3e       	movdqu %xmm0,(%rsi,%rdi,1)
  c8:	48 8d 76 10          	lea    0x10(%rsi),%rsi
  cc:	83 e9 10             	sub    $0x10,%ecx
  cf:	7f ee                	jg     bf <InterpolateRow_SSSE3+0xbf>
  d1:	89 4c 24 fc          	mov    %ecx,-0x4(%rsp)
  d5:	c3                   	retq   

Disassembly of section .text.InterpolateRow_AVX2:

0000000000000000 <InterpolateRow_AVX2>:
   0:	89 4c 24 fc          	mov    %ecx,-0x4(%rsp)
   4:	41 83 f8 00          	cmp    $0x0,%r8d
   8:	0f 84 9d 00 00 00    	je     ab <InterpolateRow_AVX2+0xab>
   e:	48 29 f7             	sub    %rsi,%rdi
  11:	41 81 f8 80 00 00 00 	cmp    $0x80,%r8d
  18:	74 78                	je     92 <InterpolateRow_AVX2+0x92>
  1a:	c4 c1 79 6e c0       	vmovd  %r8d,%xmm0
  1f:	41 f7 d8             	neg    %r8d
  22:	41 81 c0 00 01 00 00 	add    $0x100,%r8d
  29:	c4 c1 79 6e e8       	vmovd  %r8d,%xmm5
  2e:	c5 d1 60 e8          	vpunpcklbw %xmm0,%xmm5,%xmm5
  32:	c5 d1 61 ed          	vpunpcklwd %xmm5,%xmm5,%xmm5
  36:	c4 e2 7d 18 ed       	vbroadcastss %xmm5,%ymm5
  3b:	b8 80 80 80 80       	mov    $0x80808080,%eax
  40:	c5 f9 6e e0          	vmovd  %eax,%xmm4
  44:	c4 e2 7d 18 e4       	vbroadcastss %xmm4,%ymm4
  49:	c5 fe 6f 06          	vmovdqu (%rsi),%ymm0
  4d:	c5 fe 6f 14 16       	vmovdqu (%rsi,%rdx,1),%ymm2
  52:	c5 fd 68 ca          	vpunpckhbw %ymm2,%ymm0,%ymm1
  56:	c5 fd 60 c2          	vpunpcklbw %ymm2,%ymm0,%ymm0
  5a:	c5 f5 f8 cc          	vpsubb %ymm4,%ymm1,%ymm1
  5e:	c5 fd f8 c4          	vpsubb %ymm4,%ymm0,%ymm0
  62:	c4 e2 55 04 c9       	vpmaddubsw %ymm1,%ymm5,%ymm1
  67:	c4 e2 55 04 c0       	vpmaddubsw %ymm0,%ymm5,%ymm0
  6c:	c5 f5 fd cc          	vpaddw %ymm4,%ymm1,%ymm1
  70:	c5 fd fd c4          	vpaddw %ymm4,%ymm0,%ymm0
  74:	c5 f5 71 d1 08       	vpsrlw $0x8,%ymm1,%ymm1
  79:	c5 fd 71 d0 08       	vpsrlw $0x8,%ymm0,%ymm0
  7e:	c5 fd 67 c1          	vpackuswb %ymm1,%ymm0,%ymm0
  82:	c5 fe 7f 04 3e       	vmovdqu %ymm0,(%rsi,%rdi,1)
  87:	48 8d 76 20          	lea    0x20(%rsi),%rsi
  8b:	83 e9 20             	sub    $0x20,%ecx
  8e:	7f b9                	jg     49 <InterpolateRow_AVX2+0x49>
  90:	eb 1d                	jmp    af <InterpolateRow_AVX2+0xaf>
  92:	c5 fe 6f 06          	vmovdqu (%rsi),%ymm0
  96:	c5 fd e0 04 16       	vpavgb (%rsi,%rdx,1),%ymm0,%ymm0
  9b:	c5 fe 7f 04 3e       	vmovdqu %ymm0,(%rsi,%rdi,1)
  a0:	48 8d 76 20          	lea    0x20(%rsi),%rsi
  a4:	83 e9 20             	sub    $0x20,%ecx
  a7:	7f e9                	jg     92 <InterpolateRow_AVX2+0x92>
  a9:	eb 04                	jmp    af <InterpolateRow_AVX2+0xaf>
  ab:	f3 a4                	rep movsb %ds:(%rsi),%es:(%rdi)
  ad:	eb 03                	jmp    b2 <InterpolateRow_AVX2+0xb2>
  af:	c5 f8 77             	vzeroupper 
  b2:	89 4c 24 fc          	mov    %ecx,-0x4(%rsp)
  b6:	c3                   	retq   

Disassembly of section .text.ARGBShuffleRow_SSSE3:

0000000000000000 <ARGBShuffleRow_SSSE3>:
   0:	f3 0f 6f 2a          	movdqu (%rdx),%xmm5
   4:	f3 0f 6f 07          	movdqu (%rdi),%xmm0
   8:	f3 0f 6f 4f 10       	movdqu 0x10(%rdi),%xmm1
   d:	48 8d 7f 20          	lea    0x20(%rdi),%rdi
  11:	66 0f 38 00 c5       	pshufb %xmm5,%xmm0
  16:	66 0f 38 00 cd       	pshufb %xmm5,%xmm1
  1b:	f3 0f 7f 06          	movdqu %xmm0,(%rsi)
  1f:	f3 0f 7f 4e 10       	movdqu %xmm1,0x10(%rsi)
  24:	48 8d 76 20          	lea    0x20(%rsi),%rsi
  28:	83 e9 08             	sub    $0x8,%ecx
  2b:	7f d7                	jg     4 <ARGBShuffleRow_SSSE3+0x4>
  2d:	c3                   	retq   

Disassembly of section .text.ARGBShuffleRow_AVX2:

0000000000000000 <ARGBShuffleRow_AVX2>:
   0:	c4 e2 7d 1a 2a       	vbroadcastf128 (%rdx),%ymm5
   5:	c5 fe 6f 07          	vmovdqu (%rdi),%ymm0
   9:	c5 fe 6f 4f 20       	vmovdqu 0x20(%rdi),%ymm1
   e:	48 8d 7f 40          	lea    0x40(%rdi),%rdi
  12:	c4 e2 7d 00 c5       	vpshufb %ymm5,%ymm0,%ymm0
  17:	c4 e2 75 00 cd       	vpshufb %ymm5,%ymm1,%ymm1
  1c:	c5 fe 7f 06          	vmovdqu %ymm0,(%rsi)
  20:	c5 fe 7f 4e 20       	vmovdqu %ymm1,0x20(%rsi)
  25:	48 8d 76 40          	lea    0x40(%rsi),%rsi
  29:	83 e9 10             	sub    $0x10,%ecx
  2c:	7f d7                	jg     5 <ARGBShuffleRow_AVX2+0x5>
  2e:	c5 f8 77             	vzeroupper 
  31:	c3                   	retq   

Disassembly of section .text.I422ToYUY2Row_SSE2:

0000000000000000 <I422ToYUY2Row_SSE2>:
   0:	44 89 44 24 fc       	mov    %r8d,-0x4(%rsp)
   5:	48 29 f2             	sub    %rsi,%rdx
   8:	f3 0f 7e 16          	movq   (%rsi),%xmm2
   c:	f3 0f 7e 0c 16       	movq   (%rsi,%rdx,1),%xmm1
  11:	48 83 c6 08          	add    $0x8,%rsi
  15:	66 0f 60 d1          	punpcklbw %xmm1,%xmm2
  19:	f3 0f 6f 07          	movdqu (%rdi),%xmm0
  1d:	48 83 c7 10          	add    $0x10,%rdi
  21:	66 0f 6f c8          	movdqa %xmm0,%xmm1
  25:	66 0f 60 c2          	punpcklbw %xmm2,%xmm0
  29:	66 0f 68 ca          	punpckhbw %xmm2,%xmm1
  2d:	f3 0f 7f 01          	movdqu %xmm0,(%rcx)
  31:	f3 0f 7f 49 10       	movdqu %xmm1,0x10(%rcx)
  36:	48 8d 49 20          	lea    0x20(%rcx),%rcx
  3a:	41 83 e8 10          	sub    $0x10,%r8d
  3e:	7f c8                	jg     8 <I422ToYUY2Row_SSE2+0x8>
  40:	44 89 44 24 fc       	mov    %r8d,-0x4(%rsp)
  45:	c3                   	retq   

Disassembly of section .text.I422ToUYVYRow_SSE2:

0000000000000000 <I422ToUYVYRow_SSE2>:
   0:	44 89 44 24 fc       	mov    %r8d,-0x4(%rsp)
   5:	48 29 f2             	sub    %rsi,%rdx
   8:	f3 0f 7e 16          	movq   (%rsi),%xmm2
   c:	f3 0f 7e 0c 16       	movq   (%rsi,%rdx,1),%xmm1
  11:	48 83 c6 08          	add    $0x8,%rsi
  15:	66 0f 60 d1          	punpcklbw %xmm1,%xmm2
  19:	f3 0f 6f 07          	movdqu (%rdi),%xmm0
  1d:	66 0f 6f ca          	movdqa %xmm2,%xmm1
  21:	48 83 c7 10          	add    $0x10,%rdi
  25:	66 0f 60 c8          	punpcklbw %xmm0,%xmm1
  29:	66 0f 68 d0          	punpckhbw %xmm0,%xmm2
  2d:	f3 0f 7f 09          	movdqu %xmm1,(%rcx)
  31:	f3 0f 7f 51 10       	movdqu %xmm2,0x10(%rcx)
  36:	48 8d 49 20          	lea    0x20(%rcx),%rcx
  3a:	41 83 e8 10          	sub    $0x10,%r8d
  3e:	7f c8                	jg     8 <I422ToUYVYRow_SSE2+0x8>
  40:	44 89 44 24 fc       	mov    %r8d,-0x4(%rsp)
  45:	c3                   	retq   

Disassembly of section .text.I422ToYUY2Row_AVX2:

0000000000000000 <I422ToYUY2Row_AVX2>:
   0:	44 89 44 24 fc       	mov    %r8d,-0x4(%rsp)
   5:	48 29 f2             	sub    %rsi,%rdx
   8:	c4 e2 7d 30 0e       	vpmovzxbw (%rsi),%ymm1
   d:	c4 e2 7d 30 14 16    	vpmovzxbw (%rsi,%rdx,1),%ymm2
  13:	48 83 c6 10          	add    $0x10,%rsi
  17:	c5 ed 71 f2 08       	vpsllw $0x8,%ymm2,%ymm2
  1c:	c5 ed eb d1          	vpor   %ymm1,%ymm2,%ymm2
  20:	c5 fe 6f 07          	vmovdqu (%rdi),%ymm0
  24:	48 83 c7 20          	add    $0x20,%rdi
  28:	c5 fd 60 ca          	vpunpcklbw %ymm2,%ymm0,%ymm1
  2c:	c5 fd 68 d2          	vpunpckhbw %ymm2,%ymm0,%ymm2
  30:	c4 e3 7d 19 09 00    	vextractf128 $0x0,%ymm1,(%rcx)
  36:	c4 e3 7d 19 51 10 00 	vextractf128 $0x0,%ymm2,0x10(%rcx)
  3d:	c4 e3 7d 19 49 20 01 	vextractf128 $0x1,%ymm1,0x20(%rcx)
  44:	c4 e3 7d 19 51 30 01 	vextractf128 $0x1,%ymm2,0x30(%rcx)
  4b:	48 8d 49 40          	lea    0x40(%rcx),%rcx
  4f:	41 83 e8 20          	sub    $0x20,%r8d
  53:	7f b3                	jg     8 <I422ToYUY2Row_AVX2+0x8>
  55:	c5 f8 77             	vzeroupper 
  58:	44 89 44 24 fc       	mov    %r8d,-0x4(%rsp)
  5d:	c3                   	retq   

Disassembly of section .text.I422ToUYVYRow_AVX2:

0000000000000000 <I422ToUYVYRow_AVX2>:
   0:	44 89 44 24 fc       	mov    %r8d,-0x4(%rsp)
   5:	48 29 f2             	sub    %rsi,%rdx
   8:	c4 e2 7d 30 0e       	vpmovzxbw (%rsi),%ymm1
   d:	c4 e2 7d 30 14 16    	vpmovzxbw (%rsi,%rdx,1),%ymm2
  13:	48 83 c6 10          	add    $0x10,%rsi
  17:	c5 ed 71 f2 08       	vpsllw $0x8,%ymm2,%ymm2
  1c:	c5 ed eb d1          	vpor   %ymm1,%ymm2,%ymm2
  20:	c5 fe 6f 07          	vmovdqu (%rdi),%ymm0
  24:	48 83 c7 20          	add    $0x20,%rdi
  28:	c5 ed 60 c8          	vpunpcklbw %ymm0,%ymm2,%ymm1
  2c:	c5 ed 68 d0          	vpunpckhbw %ymm0,%ymm2,%ymm2
  30:	c4 e3 7d 19 09 00    	vextractf128 $0x0,%ymm1,(%rcx)
  36:	c4 e3 7d 19 51 10 00 	vextractf128 $0x0,%ymm2,0x10(%rcx)
  3d:	c4 e3 7d 19 49 20 01 	vextractf128 $0x1,%ymm1,0x20(%rcx)
  44:	c4 e3 7d 19 51 30 01 	vextractf128 $0x1,%ymm2,0x30(%rcx)
  4b:	48 8d 49 40          	lea    0x40(%rcx),%rcx
  4f:	41 83 e8 20          	sub    $0x20,%r8d
  53:	7f b3                	jg     8 <I422ToUYVYRow_AVX2+0x8>
  55:	c5 f8 77             	vzeroupper 
  58:	44 89 44 24 fc       	mov    %r8d,-0x4(%rsp)
  5d:	c3                   	retq   

Disassembly of section .text.ARGBPolynomialRow_SSE2:

0000000000000000 <ARGBPolynomialRow_SSE2>:
   0:	66 0f ef db          	pxor   %xmm3,%xmm3
   4:	f3 0f 7e 07          	movq   (%rdi),%xmm0
   8:	48 8d 7f 08          	lea    0x8(%rdi),%rdi
   c:	66 0f 60 c3          	punpcklbw %xmm3,%xmm0
  10:	66 0f 6f e0          	movdqa %xmm0,%xmm4
  14:	66 0f 61 c3          	punpcklwd %xmm3,%xmm0
  18:	66 0f 69 e3          	punpckhwd %xmm3,%xmm4
  1c:	0f 5b c0             	cvtdq2ps %xmm0,%xmm0
  1f:	0f 5b e4             	cvtdq2ps %xmm4,%xmm4
  22:	66 0f 6f c8          	movdqa %xmm0,%xmm1
  26:	66 0f 6f ec          	movdqa %xmm4,%xmm5
  2a:	0f 59 42 10          	mulps  0x10(%rdx),%xmm0
  2e:	0f 59 62 10          	mulps  0x10(%rdx),%xmm4
  32:	0f 58 02             	addps  (%rdx),%xmm0
  35:	0f 58 22             	addps  (%rdx),%xmm4
  38:	66 0f 6f d1          	movdqa %xmm1,%xmm2
  3c:	66 0f 6f f5          	movdqa %xmm5,%xmm6
  40:	0f 59 d1             	mulps  %xmm1,%xmm2
  43:	0f 59 f5             	mulps  %xmm5,%xmm6
  46:	0f 59 ca             	mulps  %xmm2,%xmm1
  49:	0f 59 ee             	mulps  %xmm6,%xmm5
  4c:	0f 59 52 20          	mulps  0x20(%rdx),%xmm2
  50:	0f 59 72 20          	mulps  0x20(%rdx),%xmm6
  54:	0f 59 4a 30          	mulps  0x30(%rdx),%xmm1
  58:	0f 59 6a 30          	mulps  0x30(%rdx),%xmm5
  5c:	0f 58 c2             	addps  %xmm2,%xmm0
  5f:	0f 58 e6             	addps  %xmm6,%xmm4
  62:	0f 58 c1             	addps  %xmm1,%xmm0
  65:	0f 58 e5             	addps  %xmm5,%xmm4
  68:	f3 0f 5b c0          	cvttps2dq %xmm0,%xmm0
  6c:	f3 0f 5b e4          	cvttps2dq %xmm4,%xmm4
  70:	66 0f 67 c4          	packuswb %xmm4,%xmm0
  74:	66 0f 67 c0          	packuswb %xmm0,%xmm0
  78:	66 0f d6 06          	movq   %xmm0,(%rsi)
  7c:	48 8d 76 08          	lea    0x8(%rsi),%rsi
  80:	83 e9 02             	sub    $0x2,%ecx
  83:	0f 8f 7b ff ff ff    	jg     4 <ARGBPolynomialRow_SSE2+0x4>
  89:	c3                   	retq   

Disassembly of section .text.ARGBPolynomialRow_AVX2:

0000000000000000 <ARGBPolynomialRow_AVX2>:
   0:	c4 e2 7d 1a 22       	vbroadcastf128 (%rdx),%ymm4
   5:	c4 e2 7d 1a 6a 10    	vbroadcastf128 0x10(%rdx),%ymm5
   b:	c4 e2 7d 1a 72 20    	vbroadcastf128 0x20(%rdx),%ymm6
  11:	c4 e2 7d 1a 7a 30    	vbroadcastf128 0x30(%rdx),%ymm7
  17:	c4 e2 7d 31 07       	vpmovzxbd (%rdi),%ymm0
  1c:	48 8d 7f 08          	lea    0x8(%rdi),%rdi
  20:	c5 fc 5b c0          	vcvtdq2ps %ymm0,%ymm0
  24:	c5 fc 59 d0          	vmulps %ymm0,%ymm0,%ymm2
  28:	c5 fc 59 df          	vmulps %ymm7,%ymm0,%ymm3
  2c:	c4 e2 5d 98 c5       	vfmadd132ps %ymm5,%ymm4,%ymm0
  31:	c4 e2 6d b8 c6       	vfmadd231ps %ymm6,%ymm2,%ymm0
  36:	c4 e2 6d b8 c3       	vfmadd231ps %ymm3,%ymm2,%ymm0
  3b:	c5 fe 5b c0          	vcvttps2dq %ymm0,%ymm0
  3f:	c4 e2 7d 2b c0       	vpackusdw %ymm0,%ymm0,%ymm0
  44:	c4 e3 fd 00 c0 d8    	vpermq $0xd8,%ymm0,%ymm0
  4a:	c5 f9 67 c0          	vpackuswb %xmm0,%xmm0,%xmm0
  4e:	c5 f9 d6 06          	vmovq  %xmm0,(%rsi)
  52:	48 8d 76 08          	lea    0x8(%rsi),%rsi
  56:	83 e9 02             	sub    $0x2,%ecx
  59:	7f bc                	jg     17 <ARGBPolynomialRow_AVX2+0x17>
  5b:	c5 f8 77             	vzeroupper 
  5e:	c3                   	retq   

Disassembly of section .text.HalfFloatRow_SSE2:

0000000000000000 <HalfFloatRow_SSE2>:
   0:	f3 0f 59 05 00 00 00 	mulss  0x0(%rip),%xmm0        # 8 <HalfFloatRow_SSE2+0x8>
   7:	00 
   8:	f3 0f 11 44 24 fc    	movss  %xmm0,-0x4(%rsp)
   e:	66 0f 6e 64 24 fc    	movd   -0x4(%rsp),%xmm4
  14:	66 0f 70 e4 00       	pshufd $0x0,%xmm4,%xmm4
  19:	66 0f ef ed          	pxor   %xmm5,%xmm5
  1d:	48 29 fe             	sub    %rdi,%rsi
  20:	f3 0f 6f 17          	movdqu (%rdi),%xmm2
  24:	48 83 c7 10          	add    $0x10,%rdi
  28:	66 0f 6f da          	movdqa %xmm2,%xmm3
  2c:	66 0f 61 d5          	punpcklwd %xmm5,%xmm2
  30:	0f 5b d2             	cvtdq2ps %xmm2,%xmm2
  33:	66 0f 69 dd          	punpckhwd %xmm5,%xmm3
  37:	0f 5b db             	cvtdq2ps %xmm3,%xmm3
  3a:	0f 59 d4             	mulps  %xmm4,%xmm2
  3d:	0f 59 dc             	mulps  %xmm4,%xmm3
  40:	66 0f 72 d2 0d       	psrld  $0xd,%xmm2
  45:	66 0f 72 d3 0d       	psrld  $0xd,%xmm3
  4a:	66 0f 6b d3          	packssdw %xmm3,%xmm2
  4e:	f3 0f 7f 54 37 f0    	movdqu %xmm2,-0x10(%rdi,%rsi,1)
  54:	83 ea 08             	sub    $0x8,%edx
  57:	7f c7                	jg     20 <HalfFloatRow_SSE2+0x20>
  59:	c3                   	retq   

Disassembly of section .text.HalfFloatRow_AVX2:

0000000000000000 <HalfFloatRow_AVX2>:
   0:	f3 0f 59 05 00 00 00 	mulss  0x0(%rip),%xmm0        # 8 <HalfFloatRow_AVX2+0x8>
   7:	00 
   8:	c4 e2 7d 18 e0       	vbroadcastss %xmm0,%ymm4
   d:	c5 d5 ef ed          	vpxor  %ymm5,%ymm5,%ymm5
  11:	48 29 fe             	sub    %rdi,%rsi
  14:	c5 fe 6f 17          	vmovdqu (%rdi),%ymm2
  18:	48 83 c7 20          	add    $0x20,%rdi
  1c:	c5 ed 69 dd          	vpunpckhwd %ymm5,%ymm2,%ymm3
  20:	c5 ed 61 d5          	vpunpcklwd %ymm5,%ymm2,%ymm2
  24:	c5 fc 5b db          	vcvtdq2ps %ymm3,%ymm3
  28:	c5 fc 5b d2          	vcvtdq2ps %ymm2,%ymm2
  2c:	c5 dc 59 db          	vmulps %ymm3,%ymm4,%ymm3
  30:	c5 dc 59 d2          	vmulps %ymm2,%ymm4,%ymm2
  34:	c5 e5 72 d3 0d       	vpsrld $0xd,%ymm3,%ymm3
  39:	c5 ed 72 d2 0d       	vpsrld $0xd,%ymm2,%ymm2
  3e:	c5 ed 6b d3          	vpackssdw %ymm3,%ymm2,%ymm2
  42:	c5 fe 7f 54 37 e0    	vmovdqu %ymm2,-0x20(%rdi,%rsi,1)
  48:	83 ea 10             	sub    $0x10,%edx
  4b:	7f c7                	jg     14 <HalfFloatRow_AVX2+0x14>
  4d:	c5 f8 77             	vzeroupper 
  50:	c3                   	retq   

Disassembly of section .text.ARGBColorTableRow_X86:

0000000000000000 <ARGBColorTableRow_X86>:
   0:	89 d0                	mov    %edx,%eax
   2:	48 0f b6 17          	movzbq (%rdi),%rdx
   6:	48 8d 7f 04          	lea    0x4(%rdi),%rdi
   a:	48 0f b6 14 96       	movzbq (%rsi,%rdx,4),%rdx
   f:	88 57 fc             	mov    %dl,-0x4(%rdi)
  12:	48 0f b6 57 fd       	movzbq -0x3(%rdi),%rdx
  17:	48 0f b6 54 96 01    	movzbq 0x1(%rsi,%rdx,4),%rdx
  1d:	88 57 fd             	mov    %dl,-0x3(%rdi)
  20:	48 0f b6 57 fe       	movzbq -0x2(%rdi),%rdx
  25:	48 0f b6 54 96 02    	movzbq 0x2(%rsi,%rdx,4),%rdx
  2b:	88 57 fe             	mov    %dl,-0x2(%rdi)
  2e:	48 0f b6 57 ff       	movzbq -0x1(%rdi),%rdx
  33:	48 0f b6 54 96 03    	movzbq 0x3(%rsi,%rdx,4),%rdx
  39:	88 57 ff             	mov    %dl,-0x1(%rdi)
  3c:	ff c8                	dec    %eax
  3e:	7f c2                	jg     2 <ARGBColorTableRow_X86+0x2>
  40:	c3                   	retq   

Disassembly of section .text.RGBColorTableRow_X86:

0000000000000000 <RGBColorTableRow_X86>:
   0:	89 d0                	mov    %edx,%eax
   2:	48 0f b6 17          	movzbq (%rdi),%rdx
   6:	48 8d 7f 04          	lea    0x4(%rdi),%rdi
   a:	48 0f b6 14 96       	movzbq (%rsi,%rdx,4),%rdx
   f:	88 57 fc             	mov    %dl,-0x4(%rdi)
  12:	48 0f b6 57 fd       	movzbq -0x3(%rdi),%rdx
  17:	48 0f b6 54 96 01    	movzbq 0x1(%rsi,%rdx,4),%rdx
  1d:	88 57 fd             	mov    %dl,-0x3(%rdi)
  20:	48 0f b6 57 fe       	movzbq -0x2(%rdi),%rdx
  25:	48 0f b6 54 96 02    	movzbq 0x2(%rsi,%rdx,4),%rdx
  2b:	88 57 fe             	mov    %dl,-0x2(%rdi)
  2e:	ff c8                	dec    %eax
  30:	7f d0                	jg     2 <RGBColorTableRow_X86+0x2>
  32:	c3                   	retq   

Disassembly of section .text.ARGBLumaColorTableRow_SSSE3:

0000000000000000 <ARGBLumaColorTableRow_SSSE3>:
   0:	41 89 d1             	mov    %edx,%r9d
   3:	89 54 24 fc          	mov    %edx,-0x4(%rsp)
   7:	44 89 44 24 f8       	mov    %r8d,-0x8(%rsp)
   c:	66 0f 6e 5c 24 f8    	movd   -0x8(%rsp),%xmm3
  12:	66 0f 70 db 00       	pshufd $0x0,%xmm3,%xmm3
  17:	66 0f 74 e4          	pcmpeqb %xmm4,%xmm4
  1b:	66 0f 71 f4 08       	psllw  $0x8,%xmm4
  20:	66 0f ef ed          	pxor   %xmm5,%xmm5
  24:	f3 0f 6f 07          	movdqu (%rdi),%xmm0
  28:	66 0f 38 04 c3       	pmaddubsw %xmm3,%xmm0
  2d:	66 0f 38 01 c0       	phaddw %xmm0,%xmm0
  32:	66 0f db c4          	pand   %xmm4,%xmm0
  36:	66 0f 61 c5          	punpcklwd %xmm5,%xmm0
  3a:	66 0f 7e c0          	movd   %xmm0,%eax
  3e:	48 01 c8             	add    %rcx,%rax
  41:	66 0f 70 c0 39       	pshufd $0x39,%xmm0,%xmm0
  46:	48 0f b6 17          	movzbq (%rdi),%rdx
  4a:	48 0f b6 14 10       	movzbq (%rax,%rdx,1),%rdx
  4f:	88 16                	mov    %dl,(%rsi)
  51:	48 0f b6 57 01       	movzbq 0x1(%rdi),%rdx
  56:	48 0f b6 14 10       	movzbq (%rax,%rdx,1),%rdx
  5b:	88 56 01             	mov    %dl,0x1(%rsi)
  5e:	48 0f b6 57 02       	movzbq 0x2(%rdi),%rdx
  63:	48 0f b6 14 10       	movzbq (%rax,%rdx,1),%rdx
  68:	88 56 02             	mov    %dl,0x2(%rsi)
  6b:	48 0f b6 57 03       	movzbq 0x3(%rdi),%rdx
  70:	88 56 03             	mov    %dl,0x3(%rsi)
  73:	66 0f 7e c0          	movd   %xmm0,%eax
  77:	48 01 c8             	add    %rcx,%rax
  7a:	66 0f 70 c0 39       	pshufd $0x39,%xmm0,%xmm0
  7f:	48 0f b6 57 04       	movzbq 0x4(%rdi),%rdx
  84:	48 0f b6 14 10       	movzbq (%rax,%rdx,1),%rdx
  89:	88 56 04             	mov    %dl,0x4(%rsi)
  8c:	48 0f b6 57 05       	movzbq 0x5(%rdi),%rdx
  91:	48 0f b6 14 10       	movzbq (%rax,%rdx,1),%rdx
  96:	88 56 05             	mov    %dl,0x5(%rsi)
  99:	48 0f b6 57 06       	movzbq 0x6(%rdi),%rdx
  9e:	48 0f b6 14 10       	movzbq (%rax,%rdx,1),%rdx
  a3:	88 56 06             	mov    %dl,0x6(%rsi)
  a6:	48 0f b6 57 07       	movzbq 0x7(%rdi),%rdx
  ab:	88 56 07             	mov    %dl,0x7(%rsi)
  ae:	66 0f 7e c0          	movd   %xmm0,%eax
  b2:	48 01 c8             	add    %rcx,%rax
  b5:	66 0f 70 c0 39       	pshufd $0x39,%xmm0,%xmm0
  ba:	48 0f b6 57 08       	movzbq 0x8(%rdi),%rdx
  bf:	48 0f b6 14 10       	movzbq (%rax,%rdx,1),%rdx
  c4:	88 56 08             	mov    %dl,0x8(%rsi)
  c7:	48 0f b6 57 09       	movzbq 0x9(%rdi),%rdx
  cc:	48 0f b6 14 10       	movzbq (%rax,%rdx,1),%rdx
  d1:	88 56 09             	mov    %dl,0x9(%rsi)
  d4:	48 0f b6 57 0a       	movzbq 0xa(%rdi),%rdx
  d9:	48 0f b6 14 10       	movzbq (%rax,%rdx,1),%rdx
  de:	88 56 0a             	mov    %dl,0xa(%rsi)
  e1:	48 0f b6 57 0b       	movzbq 0xb(%rdi),%rdx
  e6:	88 56 0b             	mov    %dl,0xb(%rsi)
  e9:	66 0f 7e c0          	movd   %xmm0,%eax
  ed:	48 01 c8             	add    %rcx,%rax
  f0:	48 0f b6 57 0c       	movzbq 0xc(%rdi),%rdx
  f5:	48 0f b6 14 10       	movzbq (%rax,%rdx,1),%rdx
  fa:	88 56 0c             	mov    %dl,0xc(%rsi)
  fd:	48 0f b6 57 0d       	movzbq 0xd(%rdi),%rdx
 102:	48 0f b6 14 10       	movzbq (%rax,%rdx,1),%rdx
 107:	88 56 0d             	mov    %dl,0xd(%rsi)
 10a:	48 0f b6 57 0e       	movzbq 0xe(%rdi),%rdx
 10f:	48 0f b6 14 10       	movzbq (%rax,%rdx,1),%rdx
 114:	88 56 0e             	mov    %dl,0xe(%rsi)
 117:	48 0f b6 57 0f       	movzbq 0xf(%rdi),%rdx
 11c:	88 56 0f             	mov    %dl,0xf(%rsi)
 11f:	48 8d 7f 10          	lea    0x10(%rdi),%rdi
 123:	48 8d 76 10          	lea    0x10(%rsi),%rsi
 127:	41 83 e9 04          	sub    $0x4,%r9d
 12b:	0f 8f f3 fe ff ff    	jg     24 <ARGBLumaColorTableRow_SSSE3+0x24>
 131:	44 89 4c 24 fc       	mov    %r9d,-0x4(%rsp)
 136:	c3                   	retq   
