
out/Release/obj/libyuv_internal/scale_common.o:     file format elf64-x86-64


Disassembly of section .text.ScaleRowDown2_C:

0000000000000000 <ScaleRowDown2_C>:
   0:	55                   	push   %rbp
   1:	48 89 e5             	mov    %rsp,%rbp
   4:	83 f9 02             	cmp    $0x2,%ecx
   7:	0f 8c 8e 00 00 00    	jl     9b <ScaleRowDown2_C+0x9b>
   d:	44 8d 41 fe          	lea    -0x2(%rcx),%r8d
  11:	44 89 c6             	mov    %r8d,%esi
  14:	d1 ee                	shr    %esi
  16:	83 c6 01             	add    $0x1,%esi
  19:	41 89 f1             	mov    %esi,%r9d
  1c:	41 83 e1 03          	and    $0x3,%r9d
  20:	41 83 f8 06          	cmp    $0x6,%r8d
  24:	72 4e                	jb     74 <ScaleRowDown2_C+0x74>
  26:	44 29 ce             	sub    %r9d,%esi
  29:	0f 1f 80 00 00 00 00 	nopl   0x0(%rax)
  30:	0f b6 47 01          	movzbl 0x1(%rdi),%eax
  34:	88 02                	mov    %al,(%rdx)
  36:	0f b6 47 03          	movzbl 0x3(%rdi),%eax
  3a:	88 42 01             	mov    %al,0x1(%rdx)
  3d:	0f b6 47 05          	movzbl 0x5(%rdi),%eax
  41:	88 42 02             	mov    %al,0x2(%rdx)
  44:	0f b6 47 07          	movzbl 0x7(%rdi),%eax
  48:	88 42 03             	mov    %al,0x3(%rdx)
  4b:	0f b6 47 09          	movzbl 0x9(%rdi),%eax
  4f:	88 42 04             	mov    %al,0x4(%rdx)
  52:	0f b6 47 0b          	movzbl 0xb(%rdi),%eax
  56:	88 42 05             	mov    %al,0x5(%rdx)
  59:	0f b6 47 0d          	movzbl 0xd(%rdi),%eax
  5d:	88 42 06             	mov    %al,0x6(%rdx)
  60:	0f b6 47 0f          	movzbl 0xf(%rdi),%eax
  64:	88 42 07             	mov    %al,0x7(%rdx)
  67:	48 83 c2 08          	add    $0x8,%rdx
  6b:	48 83 c7 10          	add    $0x10,%rdi
  6f:	83 c6 fc             	add    $0xfffffffc,%esi
  72:	75 bc                	jne    30 <ScaleRowDown2_C+0x30>
  74:	45 85 c9             	test   %r9d,%r9d
  77:	74 22                	je     9b <ScaleRowDown2_C+0x9b>
  79:	0f 1f 80 00 00 00 00 	nopl   0x0(%rax)
  80:	0f b6 47 01          	movzbl 0x1(%rdi),%eax
  84:	88 02                	mov    %al,(%rdx)
  86:	0f b6 47 03          	movzbl 0x3(%rdi),%eax
  8a:	88 42 01             	mov    %al,0x1(%rdx)
  8d:	48 83 c2 02          	add    $0x2,%rdx
  91:	48 83 c7 04          	add    $0x4,%rdi
  95:	41 83 c1 ff          	add    $0xffffffff,%r9d
  99:	75 e5                	jne    80 <ScaleRowDown2_C+0x80>
  9b:	f6 c1 01             	test   $0x1,%cl
  9e:	74 05                	je     a5 <ScaleRowDown2_C+0xa5>
  a0:	8a 47 01             	mov    0x1(%rdi),%al
  a3:	88 02                	mov    %al,(%rdx)
  a5:	5d                   	pop    %rbp
  a6:	c3                   	retq   

Disassembly of section .text.ScaleRowDown2_16_C:

0000000000000000 <ScaleRowDown2_16_C>:
   0:	55                   	push   %rbp
   1:	48 89 e5             	mov    %rsp,%rbp
   4:	83 f9 02             	cmp    $0x2,%ecx
   7:	0f 8c a0 00 00 00    	jl     ad <ScaleRowDown2_16_C+0xad>
   d:	44 8d 41 fe          	lea    -0x2(%rcx),%r8d
  11:	44 89 c6             	mov    %r8d,%esi
  14:	d1 ee                	shr    %esi
  16:	83 c6 01             	add    $0x1,%esi
  19:	41 89 f1             	mov    %esi,%r9d
  1c:	41 83 e1 03          	and    $0x3,%r9d
  20:	41 83 f8 06          	cmp    $0x6,%r8d
  24:	72 56                	jb     7c <ScaleRowDown2_16_C+0x7c>
  26:	44 29 ce             	sub    %r9d,%esi
  29:	0f 1f 80 00 00 00 00 	nopl   0x0(%rax)
  30:	0f b7 47 02          	movzwl 0x2(%rdi),%eax
  34:	66 89 02             	mov    %ax,(%rdx)
  37:	0f b7 47 06          	movzwl 0x6(%rdi),%eax
  3b:	66 89 42 02          	mov    %ax,0x2(%rdx)
  3f:	0f b7 47 0a          	movzwl 0xa(%rdi),%eax
  43:	66 89 42 04          	mov    %ax,0x4(%rdx)
  47:	0f b7 47 0e          	movzwl 0xe(%rdi),%eax
  4b:	66 89 42 06          	mov    %ax,0x6(%rdx)
  4f:	0f b7 47 12          	movzwl 0x12(%rdi),%eax
  53:	66 89 42 08          	mov    %ax,0x8(%rdx)
  57:	0f b7 47 16          	movzwl 0x16(%rdi),%eax
  5b:	66 89 42 0a          	mov    %ax,0xa(%rdx)
  5f:	0f b7 47 1a          	movzwl 0x1a(%rdi),%eax
  63:	66 89 42 0c          	mov    %ax,0xc(%rdx)
  67:	0f b7 47 1e          	movzwl 0x1e(%rdi),%eax
  6b:	66 89 42 0e          	mov    %ax,0xe(%rdx)
  6f:	48 83 c2 10          	add    $0x10,%rdx
  73:	48 83 c7 20          	add    $0x20,%rdi
  77:	83 c6 fc             	add    $0xfffffffc,%esi
  7a:	75 b4                	jne    30 <ScaleRowDown2_16_C+0x30>
  7c:	45 85 c9             	test   %r9d,%r9d
  7f:	74 2c                	je     ad <ScaleRowDown2_16_C+0xad>
  81:	66 2e 0f 1f 84 00 00 	nopw   %cs:0x0(%rax,%rax,1)
  88:	00 00 00 
  8b:	0f 1f 44 00 00       	nopl   0x0(%rax,%rax,1)
  90:	0f b7 47 02          	movzwl 0x2(%rdi),%eax
  94:	66 89 02             	mov    %ax,(%rdx)
  97:	0f b7 47 06          	movzwl 0x6(%rdi),%eax
  9b:	66 89 42 02          	mov    %ax,0x2(%rdx)
  9f:	48 83 c2 04          	add    $0x4,%rdx
  a3:	48 83 c7 08          	add    $0x8,%rdi
  a7:	41 83 c1 ff          	add    $0xffffffff,%r9d
  ab:	75 e3                	jne    90 <ScaleRowDown2_16_C+0x90>
  ad:	f6 c1 01             	test   $0x1,%cl
  b0:	74 07                	je     b9 <ScaleRowDown2_16_C+0xb9>
  b2:	0f b7 47 02          	movzwl 0x2(%rdi),%eax
  b6:	66 89 02             	mov    %ax,(%rdx)
  b9:	5d                   	pop    %rbp
  ba:	c3                   	retq   

Disassembly of section .text.ScaleRowDown2Linear_C:

0000000000000000 <ScaleRowDown2Linear_C>:
   0:	55                   	push   %rbp
   1:	48 89 e5             	mov    %rsp,%rbp
   4:	83 f9 02             	cmp    $0x2,%ecx
   7:	0f 8c b3 00 00 00    	jl     c0 <ScaleRowDown2Linear_C+0xc0>
   d:	8d 41 fe             	lea    -0x2(%rcx),%eax
  10:	d1 e8                	shr    %eax
  12:	8d 70 01             	lea    0x1(%rax),%esi
  15:	41 89 f0             	mov    %esi,%r8d
  18:	41 83 e0 01          	and    $0x1,%r8d
  1c:	85 c0                	test   %eax,%eax
  1e:	74 6f                	je     8f <ScaleRowDown2Linear_C+0x8f>
  20:	44 29 c6             	sub    %r8d,%esi
  23:	66 2e 0f 1f 84 00 00 	nopw   %cs:0x0(%rax,%rax,1)
  2a:	00 00 00 
  2d:	0f 1f 00             	nopl   (%rax)
  30:	44 0f b6 0f          	movzbl (%rdi),%r9d
  34:	0f b6 47 01          	movzbl 0x1(%rdi),%eax
  38:	41 8d 04 01          	lea    (%r9,%rax,1),%eax
  3c:	83 c0 01             	add    $0x1,%eax
  3f:	d1 e8                	shr    %eax
  41:	88 02                	mov    %al,(%rdx)
  43:	44 0f b6 4f 02       	movzbl 0x2(%rdi),%r9d
  48:	0f b6 47 03          	movzbl 0x3(%rdi),%eax
  4c:	41 8d 04 01          	lea    (%r9,%rax,1),%eax
  50:	83 c0 01             	add    $0x1,%eax
  53:	d1 e8                	shr    %eax
  55:	88 42 01             	mov    %al,0x1(%rdx)
  58:	44 0f b6 4f 04       	movzbl 0x4(%rdi),%r9d
  5d:	0f b6 47 05          	movzbl 0x5(%rdi),%eax
  61:	41 8d 04 01          	lea    (%r9,%rax,1),%eax
  65:	83 c0 01             	add    $0x1,%eax
  68:	d1 e8                	shr    %eax
  6a:	88 42 02             	mov    %al,0x2(%rdx)
  6d:	44 0f b6 4f 06       	movzbl 0x6(%rdi),%r9d
  72:	0f b6 47 07          	movzbl 0x7(%rdi),%eax
  76:	41 8d 04 01          	lea    (%r9,%rax,1),%eax
  7a:	83 c0 01             	add    $0x1,%eax
  7d:	d1 e8                	shr    %eax
  7f:	88 42 03             	mov    %al,0x3(%rdx)
  82:	48 83 c2 04          	add    $0x4,%rdx
  86:	48 83 c7 08          	add    $0x8,%rdi
  8a:	83 c6 fe             	add    $0xfffffffe,%esi
  8d:	75 a1                	jne    30 <ScaleRowDown2Linear_C+0x30>
  8f:	45 85 c0             	test   %r8d,%r8d
  92:	74 2c                	je     c0 <ScaleRowDown2Linear_C+0xc0>
  94:	0f b6 07             	movzbl (%rdi),%eax
  97:	0f b6 77 01          	movzbl 0x1(%rdi),%esi
  9b:	8d 04 30             	lea    (%rax,%rsi,1),%eax
  9e:	83 c0 01             	add    $0x1,%eax
  a1:	d1 e8                	shr    %eax
  a3:	88 02                	mov    %al,(%rdx)
  a5:	0f b6 47 02          	movzbl 0x2(%rdi),%eax
  a9:	0f b6 77 03          	movzbl 0x3(%rdi),%esi
  ad:	8d 04 30             	lea    (%rax,%rsi,1),%eax
  b0:	83 c0 01             	add    $0x1,%eax
  b3:	d1 e8                	shr    %eax
  b5:	88 42 01             	mov    %al,0x1(%rdx)
  b8:	48 83 c7 04          	add    $0x4,%rdi
  bc:	48 83 c2 02          	add    $0x2,%rdx
  c0:	f6 c1 01             	test   $0x1,%cl
  c3:	74 11                	je     d6 <ScaleRowDown2Linear_C+0xd6>
  c5:	0f b6 07             	movzbl (%rdi),%eax
  c8:	0f b6 4f 01          	movzbl 0x1(%rdi),%ecx
  cc:	8d 04 08             	lea    (%rax,%rcx,1),%eax
  cf:	83 c0 01             	add    $0x1,%eax
  d2:	d1 e8                	shr    %eax
  d4:	88 02                	mov    %al,(%rdx)
  d6:	5d                   	pop    %rbp
  d7:	c3                   	retq   

Disassembly of section .text.ScaleRowDown2Linear_16_C:

0000000000000000 <ScaleRowDown2Linear_16_C>:
   0:	55                   	push   %rbp
   1:	48 89 e5             	mov    %rsp,%rbp
   4:	83 f9 02             	cmp    $0x2,%ecx
   7:	0f 8c b9 00 00 00    	jl     c6 <ScaleRowDown2Linear_16_C+0xc6>
   d:	8d 41 fe             	lea    -0x2(%rcx),%eax
  10:	d1 e8                	shr    %eax
  12:	8d 70 01             	lea    0x1(%rax),%esi
  15:	41 89 f0             	mov    %esi,%r8d
  18:	41 83 e0 01          	and    $0x1,%r8d
  1c:	85 c0                	test   %eax,%eax
  1e:	74 73                	je     93 <ScaleRowDown2Linear_16_C+0x93>
  20:	44 29 c6             	sub    %r8d,%esi
  23:	66 2e 0f 1f 84 00 00 	nopw   %cs:0x0(%rax,%rax,1)
  2a:	00 00 00 
  2d:	0f 1f 00             	nopl   (%rax)
  30:	44 0f b7 0f          	movzwl (%rdi),%r9d
  34:	0f b7 47 02          	movzwl 0x2(%rdi),%eax
  38:	41 8d 04 01          	lea    (%r9,%rax,1),%eax
  3c:	83 c0 01             	add    $0x1,%eax
  3f:	d1 e8                	shr    %eax
  41:	66 89 02             	mov    %ax,(%rdx)
  44:	44 0f b7 4f 04       	movzwl 0x4(%rdi),%r9d
  49:	0f b7 47 06          	movzwl 0x6(%rdi),%eax
  4d:	41 8d 04 01          	lea    (%r9,%rax,1),%eax
  51:	83 c0 01             	add    $0x1,%eax
  54:	d1 e8                	shr    %eax
  56:	66 89 42 02          	mov    %ax,0x2(%rdx)
  5a:	44 0f b7 4f 08       	movzwl 0x8(%rdi),%r9d
  5f:	0f b7 47 0a          	movzwl 0xa(%rdi),%eax
  63:	41 8d 04 01          	lea    (%r9,%rax,1),%eax
  67:	83 c0 01             	add    $0x1,%eax
  6a:	d1 e8                	shr    %eax
  6c:	66 89 42 04          	mov    %ax,0x4(%rdx)
  70:	44 0f b7 4f 0c       	movzwl 0xc(%rdi),%r9d
  75:	0f b7 47 0e          	movzwl 0xe(%rdi),%eax
  79:	41 8d 04 01          	lea    (%r9,%rax,1),%eax
  7d:	83 c0 01             	add    $0x1,%eax
  80:	d1 e8                	shr    %eax
  82:	66 89 42 06          	mov    %ax,0x6(%rdx)
  86:	48 83 c2 08          	add    $0x8,%rdx
  8a:	48 83 c7 10          	add    $0x10,%rdi
  8e:	83 c6 fe             	add    $0xfffffffe,%esi
  91:	75 9d                	jne    30 <ScaleRowDown2Linear_16_C+0x30>
  93:	45 85 c0             	test   %r8d,%r8d
  96:	74 2e                	je     c6 <ScaleRowDown2Linear_16_C+0xc6>
  98:	0f b7 07             	movzwl (%rdi),%eax
  9b:	0f b7 77 02          	movzwl 0x2(%rdi),%esi
  9f:	8d 04 30             	lea    (%rax,%rsi,1),%eax
  a2:	83 c0 01             	add    $0x1,%eax
  a5:	d1 e8                	shr    %eax
  a7:	66 89 02             	mov    %ax,(%rdx)
  aa:	0f b7 47 04          	movzwl 0x4(%rdi),%eax
  ae:	0f b7 77 06          	movzwl 0x6(%rdi),%esi
  b2:	8d 04 30             	lea    (%rax,%rsi,1),%eax
  b5:	83 c0 01             	add    $0x1,%eax
  b8:	d1 e8                	shr    %eax
  ba:	66 89 42 02          	mov    %ax,0x2(%rdx)
  be:	48 83 c7 08          	add    $0x8,%rdi
  c2:	48 83 c2 04          	add    $0x4,%rdx
  c6:	f6 c1 01             	test   $0x1,%cl
  c9:	74 12                	je     dd <ScaleRowDown2Linear_16_C+0xdd>
  cb:	0f b7 07             	movzwl (%rdi),%eax
  ce:	0f b7 4f 02          	movzwl 0x2(%rdi),%ecx
  d2:	8d 04 08             	lea    (%rax,%rcx,1),%eax
  d5:	83 c0 01             	add    $0x1,%eax
  d8:	d1 e8                	shr    %eax
  da:	66 89 02             	mov    %ax,(%rdx)
  dd:	5d                   	pop    %rbp
  de:	c3                   	retq   

Disassembly of section .text.ScaleRowDown2Box_C:

0000000000000000 <ScaleRowDown2Box_C>:
   0:	55                   	push   %rbp
   1:	48 89 e5             	mov    %rsp,%rbp
   4:	41 89 c8             	mov    %ecx,%r8d
   7:	41 83 c0 ff          	add    $0xffffffff,%r8d
   b:	7e 5f                	jle    6c <ScaleRowDown2Box_C+0x6c>
   d:	45 31 d2             	xor    %r10d,%r10d
  10:	44 0f b6 0f          	movzbl (%rdi),%r9d
  14:	0f b6 47 01          	movzbl 0x1(%rdi),%eax
  18:	44 01 c8             	add    %r9d,%eax
  1b:	44 0f b6 0c 37       	movzbl (%rdi,%rsi,1),%r9d
  20:	41 01 c1             	add    %eax,%r9d
  23:	0f b6 44 37 01       	movzbl 0x1(%rdi,%rsi,1),%eax
  28:	42 8d 04 08          	lea    (%rax,%r9,1),%eax
  2c:	83 c0 02             	add    $0x2,%eax
  2f:	c1 e8 02             	shr    $0x2,%eax
  32:	88 02                	mov    %al,(%rdx)
  34:	44 0f b6 4f 02       	movzbl 0x2(%rdi),%r9d
  39:	0f b6 47 03          	movzbl 0x3(%rdi),%eax
  3d:	44 01 c8             	add    %r9d,%eax
  40:	44 0f b6 4c 37 02    	movzbl 0x2(%rdi,%rsi,1),%r9d
  46:	41 01 c1             	add    %eax,%r9d
  49:	0f b6 44 37 03       	movzbl 0x3(%rdi,%rsi,1),%eax
  4e:	42 8d 04 08          	lea    (%rax,%r9,1),%eax
  52:	83 c0 02             	add    $0x2,%eax
  55:	c1 e8 02             	shr    $0x2,%eax
  58:	88 42 01             	mov    %al,0x1(%rdx)
  5b:	48 83 c2 02          	add    $0x2,%rdx
  5f:	48 83 c7 04          	add    $0x4,%rdi
  63:	41 83 c2 02          	add    $0x2,%r10d
  67:	45 39 c2             	cmp    %r8d,%r10d
  6a:	7c a4                	jl     10 <ScaleRowDown2Box_C+0x10>
  6c:	48 01 fe             	add    %rdi,%rsi
  6f:	f6 c1 01             	test   $0x1,%cl
  72:	74 1d                	je     91 <ScaleRowDown2Box_C+0x91>
  74:	0f b6 07             	movzbl (%rdi),%eax
  77:	0f b6 4f 01          	movzbl 0x1(%rdi),%ecx
  7b:	01 c1                	add    %eax,%ecx
  7d:	0f b6 06             	movzbl (%rsi),%eax
  80:	01 c8                	add    %ecx,%eax
  82:	0f b6 4e 01          	movzbl 0x1(%rsi),%ecx
  86:	8d 04 01             	lea    (%rcx,%rax,1),%eax
  89:	83 c0 02             	add    $0x2,%eax
  8c:	c1 e8 02             	shr    $0x2,%eax
  8f:	88 02                	mov    %al,(%rdx)
  91:	5d                   	pop    %rbp
  92:	c3                   	retq   

Disassembly of section .text.ScaleRowDown2Box_Odd_C:

0000000000000000 <ScaleRowDown2Box_Odd_C>:
   0:	55                   	push   %rbp
   1:	48 89 e5             	mov    %rsp,%rbp
   4:	41 89 c8             	mov    %ecx,%r8d
   7:	41 83 c0 fe          	add    $0xfffffffe,%r8d
   b:	7e 5f                	jle    6c <ScaleRowDown2Box_Odd_C+0x6c>
   d:	45 31 d2             	xor    %r10d,%r10d
  10:	44 0f b6 0f          	movzbl (%rdi),%r9d
  14:	0f b6 47 01          	movzbl 0x1(%rdi),%eax
  18:	44 01 c8             	add    %r9d,%eax
  1b:	44 0f b6 0c 37       	movzbl (%rdi,%rsi,1),%r9d
  20:	41 01 c1             	add    %eax,%r9d
  23:	0f b6 44 37 01       	movzbl 0x1(%rdi,%rsi,1),%eax
  28:	42 8d 04 08          	lea    (%rax,%r9,1),%eax
  2c:	83 c0 02             	add    $0x2,%eax
  2f:	c1 e8 02             	shr    $0x2,%eax
  32:	88 02                	mov    %al,(%rdx)
  34:	44 0f b6 4f 02       	movzbl 0x2(%rdi),%r9d
  39:	0f b6 47 03          	movzbl 0x3(%rdi),%eax
  3d:	44 01 c8             	add    %r9d,%eax
  40:	44 0f b6 4c 37 02    	movzbl 0x2(%rdi,%rsi,1),%r9d
  46:	41 01 c1             	add    %eax,%r9d
  49:	0f b6 44 37 03       	movzbl 0x3(%rdi,%rsi,1),%eax
  4e:	42 8d 04 08          	lea    (%rax,%r9,1),%eax
  52:	83 c0 02             	add    $0x2,%eax
  55:	c1 e8 02             	shr    $0x2,%eax
  58:	88 42 01             	mov    %al,0x1(%rdx)
  5b:	48 83 c2 02          	add    $0x2,%rdx
  5f:	48 83 c7 04          	add    $0x4,%rdi
  63:	41 83 c2 02          	add    $0x2,%r10d
  67:	45 39 c2             	cmp    %r8d,%r10d
  6a:	7c a4                	jl     10 <ScaleRowDown2Box_Odd_C+0x10>
  6c:	48 01 fe             	add    %rdi,%rsi
  6f:	f6 c1 01             	test   $0x1,%cl
  72:	75 29                	jne    9d <ScaleRowDown2Box_Odd_C+0x9d>
  74:	0f b6 07             	movzbl (%rdi),%eax
  77:	0f b6 4f 01          	movzbl 0x1(%rdi),%ecx
  7b:	01 c1                	add    %eax,%ecx
  7d:	0f b6 06             	movzbl (%rsi),%eax
  80:	01 c8                	add    %ecx,%eax
  82:	0f b6 4e 01          	movzbl 0x1(%rsi),%ecx
  86:	8d 04 01             	lea    (%rcx,%rax,1),%eax
  89:	83 c0 02             	add    $0x2,%eax
  8c:	c1 e8 02             	shr    $0x2,%eax
  8f:	88 02                	mov    %al,(%rdx)
  91:	48 83 c2 01          	add    $0x1,%rdx
  95:	48 83 c7 02          	add    $0x2,%rdi
  99:	48 83 c6 02          	add    $0x2,%rsi
  9d:	0f b6 07             	movzbl (%rdi),%eax
  a0:	0f b6 0e             	movzbl (%rsi),%ecx
  a3:	8d 04 08             	lea    (%rax,%rcx,1),%eax
  a6:	83 c0 01             	add    $0x1,%eax
  a9:	d1 e8                	shr    %eax
  ab:	88 02                	mov    %al,(%rdx)
  ad:	5d                   	pop    %rbp
  ae:	c3                   	retq   

Disassembly of section .text.ScaleRowDown2Box_16_C:

0000000000000000 <ScaleRowDown2Box_16_C>:
   0:	55                   	push   %rbp
   1:	48 89 e5             	mov    %rsp,%rbp
   4:	41 89 c8             	mov    %ecx,%r8d
   7:	41 83 c0 ff          	add    $0xffffffff,%r8d
   b:	7e 61                	jle    6e <ScaleRowDown2Box_16_C+0x6e>
   d:	45 31 d2             	xor    %r10d,%r10d
  10:	44 0f b7 0f          	movzwl (%rdi),%r9d
  14:	0f b7 47 02          	movzwl 0x2(%rdi),%eax
  18:	44 01 c8             	add    %r9d,%eax
  1b:	44 0f b7 0c 77       	movzwl (%rdi,%rsi,2),%r9d
  20:	41 01 c1             	add    %eax,%r9d
  23:	0f b7 44 77 02       	movzwl 0x2(%rdi,%rsi,2),%eax
  28:	42 8d 04 08          	lea    (%rax,%r9,1),%eax
  2c:	83 c0 02             	add    $0x2,%eax
  2f:	c1 e8 02             	shr    $0x2,%eax
  32:	66 89 02             	mov    %ax,(%rdx)
  35:	44 0f b7 4f 04       	movzwl 0x4(%rdi),%r9d
  3a:	0f b7 47 06          	movzwl 0x6(%rdi),%eax
  3e:	44 01 c8             	add    %r9d,%eax
  41:	44 0f b7 4c 77 04    	movzwl 0x4(%rdi,%rsi,2),%r9d
  47:	41 01 c1             	add    %eax,%r9d
  4a:	0f b7 44 77 06       	movzwl 0x6(%rdi,%rsi,2),%eax
  4f:	42 8d 04 08          	lea    (%rax,%r9,1),%eax
  53:	83 c0 02             	add    $0x2,%eax
  56:	c1 e8 02             	shr    $0x2,%eax
  59:	66 89 42 02          	mov    %ax,0x2(%rdx)
  5d:	48 83 c2 04          	add    $0x4,%rdx
  61:	48 83 c7 08          	add    $0x8,%rdi
  65:	41 83 c2 02          	add    $0x2,%r10d
  69:	45 39 c2             	cmp    %r8d,%r10d
  6c:	7c a2                	jl     10 <ScaleRowDown2Box_16_C+0x10>
  6e:	48 8d 04 77          	lea    (%rdi,%rsi,2),%rax
  72:	f6 c1 01             	test   $0x1,%cl
  75:	74 1e                	je     95 <ScaleRowDown2Box_16_C+0x95>
  77:	0f b7 0f             	movzwl (%rdi),%ecx
  7a:	0f b7 77 02          	movzwl 0x2(%rdi),%esi
  7e:	01 ce                	add    %ecx,%esi
  80:	0f b7 08             	movzwl (%rax),%ecx
  83:	01 f1                	add    %esi,%ecx
  85:	0f b7 40 02          	movzwl 0x2(%rax),%eax
  89:	8d 04 08             	lea    (%rax,%rcx,1),%eax
  8c:	83 c0 02             	add    $0x2,%eax
  8f:	c1 e8 02             	shr    $0x2,%eax
  92:	66 89 02             	mov    %ax,(%rdx)
  95:	5d                   	pop    %rbp
  96:	c3                   	retq   

Disassembly of section .text.ScaleRowDown4_C:

0000000000000000 <ScaleRowDown4_C>:
   0:	55                   	push   %rbp
   1:	48 89 e5             	mov    %rsp,%rbp
   4:	83 f9 02             	cmp    $0x2,%ecx
   7:	0f 8c 8e 00 00 00    	jl     9b <ScaleRowDown4_C+0x9b>
   d:	44 8d 41 fe          	lea    -0x2(%rcx),%r8d
  11:	44 89 c6             	mov    %r8d,%esi
  14:	d1 ee                	shr    %esi
  16:	83 c6 01             	add    $0x1,%esi
  19:	41 89 f1             	mov    %esi,%r9d
  1c:	41 83 e1 03          	and    $0x3,%r9d
  20:	41 83 f8 06          	cmp    $0x6,%r8d
  24:	72 4e                	jb     74 <ScaleRowDown4_C+0x74>
  26:	44 29 ce             	sub    %r9d,%esi
  29:	0f 1f 80 00 00 00 00 	nopl   0x0(%rax)
  30:	0f b6 47 02          	movzbl 0x2(%rdi),%eax
  34:	88 02                	mov    %al,(%rdx)
  36:	0f b6 47 06          	movzbl 0x6(%rdi),%eax
  3a:	88 42 01             	mov    %al,0x1(%rdx)
  3d:	0f b6 47 0a          	movzbl 0xa(%rdi),%eax
  41:	88 42 02             	mov    %al,0x2(%rdx)
  44:	0f b6 47 0e          	movzbl 0xe(%rdi),%eax
  48:	88 42 03             	mov    %al,0x3(%rdx)
  4b:	0f b6 47 12          	movzbl 0x12(%rdi),%eax
  4f:	88 42 04             	mov    %al,0x4(%rdx)
  52:	0f b6 47 16          	movzbl 0x16(%rdi),%eax
  56:	88 42 05             	mov    %al,0x5(%rdx)
  59:	0f b6 47 1a          	movzbl 0x1a(%rdi),%eax
  5d:	88 42 06             	mov    %al,0x6(%rdx)
  60:	0f b6 47 1e          	movzbl 0x1e(%rdi),%eax
  64:	88 42 07             	mov    %al,0x7(%rdx)
  67:	48 83 c2 08          	add    $0x8,%rdx
  6b:	48 83 c7 20          	add    $0x20,%rdi
  6f:	83 c6 fc             	add    $0xfffffffc,%esi
  72:	75 bc                	jne    30 <ScaleRowDown4_C+0x30>
  74:	45 85 c9             	test   %r9d,%r9d
  77:	74 22                	je     9b <ScaleRowDown4_C+0x9b>
  79:	0f 1f 80 00 00 00 00 	nopl   0x0(%rax)
  80:	0f b6 47 02          	movzbl 0x2(%rdi),%eax
  84:	88 02                	mov    %al,(%rdx)
  86:	0f b6 47 06          	movzbl 0x6(%rdi),%eax
  8a:	88 42 01             	mov    %al,0x1(%rdx)
  8d:	48 83 c2 02          	add    $0x2,%rdx
  91:	48 83 c7 08          	add    $0x8,%rdi
  95:	41 83 c1 ff          	add    $0xffffffff,%r9d
  99:	75 e5                	jne    80 <ScaleRowDown4_C+0x80>
  9b:	f6 c1 01             	test   $0x1,%cl
  9e:	74 05                	je     a5 <ScaleRowDown4_C+0xa5>
  a0:	8a 47 02             	mov    0x2(%rdi),%al
  a3:	88 02                	mov    %al,(%rdx)
  a5:	5d                   	pop    %rbp
  a6:	c3                   	retq   

Disassembly of section .text.ScaleRowDown4_16_C:

0000000000000000 <ScaleRowDown4_16_C>:
   0:	55                   	push   %rbp
   1:	48 89 e5             	mov    %rsp,%rbp
   4:	83 f9 02             	cmp    $0x2,%ecx
   7:	0f 8c a0 00 00 00    	jl     ad <ScaleRowDown4_16_C+0xad>
   d:	44 8d 41 fe          	lea    -0x2(%rcx),%r8d
  11:	44 89 c6             	mov    %r8d,%esi
  14:	d1 ee                	shr    %esi
  16:	83 c6 01             	add    $0x1,%esi
  19:	41 89 f1             	mov    %esi,%r9d
  1c:	41 83 e1 03          	and    $0x3,%r9d
  20:	41 83 f8 06          	cmp    $0x6,%r8d
  24:	72 56                	jb     7c <ScaleRowDown4_16_C+0x7c>
  26:	44 29 ce             	sub    %r9d,%esi
  29:	0f 1f 80 00 00 00 00 	nopl   0x0(%rax)
  30:	0f b7 47 04          	movzwl 0x4(%rdi),%eax
  34:	66 89 02             	mov    %ax,(%rdx)
  37:	0f b7 47 0c          	movzwl 0xc(%rdi),%eax
  3b:	66 89 42 02          	mov    %ax,0x2(%rdx)
  3f:	0f b7 47 14          	movzwl 0x14(%rdi),%eax
  43:	66 89 42 04          	mov    %ax,0x4(%rdx)
  47:	0f b7 47 1c          	movzwl 0x1c(%rdi),%eax
  4b:	66 89 42 06          	mov    %ax,0x6(%rdx)
  4f:	0f b7 47 24          	movzwl 0x24(%rdi),%eax
  53:	66 89 42 08          	mov    %ax,0x8(%rdx)
  57:	0f b7 47 2c          	movzwl 0x2c(%rdi),%eax
  5b:	66 89 42 0a          	mov    %ax,0xa(%rdx)
  5f:	0f b7 47 34          	movzwl 0x34(%rdi),%eax
  63:	66 89 42 0c          	mov    %ax,0xc(%rdx)
  67:	0f b7 47 3c          	movzwl 0x3c(%rdi),%eax
  6b:	66 89 42 0e          	mov    %ax,0xe(%rdx)
  6f:	48 83 c2 10          	add    $0x10,%rdx
  73:	48 83 c7 40          	add    $0x40,%rdi
  77:	83 c6 fc             	add    $0xfffffffc,%esi
  7a:	75 b4                	jne    30 <ScaleRowDown4_16_C+0x30>
  7c:	45 85 c9             	test   %r9d,%r9d
  7f:	74 2c                	je     ad <ScaleRowDown4_16_C+0xad>
  81:	66 2e 0f 1f 84 00 00 	nopw   %cs:0x0(%rax,%rax,1)
  88:	00 00 00 
  8b:	0f 1f 44 00 00       	nopl   0x0(%rax,%rax,1)
  90:	0f b7 47 04          	movzwl 0x4(%rdi),%eax
  94:	66 89 02             	mov    %ax,(%rdx)
  97:	0f b7 47 0c          	movzwl 0xc(%rdi),%eax
  9b:	66 89 42 02          	mov    %ax,0x2(%rdx)
  9f:	48 83 c2 04          	add    $0x4,%rdx
  a3:	48 83 c7 10          	add    $0x10,%rdi
  a7:	41 83 c1 ff          	add    $0xffffffff,%r9d
  ab:	75 e3                	jne    90 <ScaleRowDown4_16_C+0x90>
  ad:	f6 c1 01             	test   $0x1,%cl
  b0:	74 07                	je     b9 <ScaleRowDown4_16_C+0xb9>
  b2:	0f b7 47 04          	movzwl 0x4(%rdi),%eax
  b6:	66 89 02             	mov    %ax,(%rdx)
  b9:	5d                   	pop    %rbp
  ba:	c3                   	retq   

Disassembly of section .text.ScaleRowDown4Box_C:

0000000000000000 <ScaleRowDown4Box_C>:
   0:	55                   	push   %rbp
   1:	48 89 e5             	mov    %rsp,%rbp
   4:	53                   	push   %rbx
   5:	41 89 c8             	mov    %ecx,%r8d
   8:	41 83 c0 ff          	add    $0xffffffff,%r8d
   c:	0f 8e 26 01 00 00    	jle    138 <ScaleRowDown4Box_C+0x138>
  12:	4c 8d 0c 36          	lea    (%rsi,%rsi,1),%r9
  16:	49 83 c1 01          	add    $0x1,%r9
  1a:	49 83 c1 ff          	add    $0xffffffffffffffff,%r9
  1e:	4c 8d 1c 76          	lea    (%rsi,%rsi,2),%r11
  22:	45 31 d2             	xor    %r10d,%r10d
  25:	66 2e 0f 1f 84 00 00 	nopw   %cs:0x0(%rax,%rax,1)
  2c:	00 00 00 
  2f:	90                   	nop
  30:	0f b6 07             	movzbl (%rdi),%eax
  33:	0f b6 5f 01          	movzbl 0x1(%rdi),%ebx
  37:	01 c3                	add    %eax,%ebx
  39:	0f b6 47 02          	movzbl 0x2(%rdi),%eax
  3d:	01 d8                	add    %ebx,%eax
  3f:	0f b6 5f 03          	movzbl 0x3(%rdi),%ebx
  43:	01 c3                	add    %eax,%ebx
  45:	0f b6 04 37          	movzbl (%rdi,%rsi,1),%eax
  49:	01 d8                	add    %ebx,%eax
  4b:	0f b6 5c 37 01       	movzbl 0x1(%rdi,%rsi,1),%ebx
  50:	01 c3                	add    %eax,%ebx
  52:	0f b6 44 37 02       	movzbl 0x2(%rdi,%rsi,1),%eax
  57:	01 d8                	add    %ebx,%eax
  59:	0f b6 5c 37 03       	movzbl 0x3(%rdi,%rsi,1),%ebx
  5e:	01 c3                	add    %eax,%ebx
  60:	42 0f b6 04 0f       	movzbl (%rdi,%r9,1),%eax
  65:	01 d8                	add    %ebx,%eax
  67:	42 0f b6 5c 0f 01    	movzbl 0x1(%rdi,%r9,1),%ebx
  6d:	01 c3                	add    %eax,%ebx
  6f:	42 0f b6 44 0f 02    	movzbl 0x2(%rdi,%r9,1),%eax
  75:	01 d8                	add    %ebx,%eax
  77:	42 0f b6 5c 0f 03    	movzbl 0x3(%rdi,%r9,1),%ebx
  7d:	01 c3                	add    %eax,%ebx
  7f:	42 0f b6 04 1f       	movzbl (%rdi,%r11,1),%eax
  84:	01 d8                	add    %ebx,%eax
  86:	42 0f b6 5c 1f 01    	movzbl 0x1(%rdi,%r11,1),%ebx
  8c:	01 c3                	add    %eax,%ebx
  8e:	42 0f b6 44 1f 02    	movzbl 0x2(%rdi,%r11,1),%eax
  94:	01 d8                	add    %ebx,%eax
  96:	42 0f b6 5c 1f 03    	movzbl 0x3(%rdi,%r11,1),%ebx
  9c:	8d 04 03             	lea    (%rbx,%rax,1),%eax
  9f:	83 c0 08             	add    $0x8,%eax
  a2:	c1 e8 04             	shr    $0x4,%eax
  a5:	88 02                	mov    %al,(%rdx)
  a7:	0f b6 47 04          	movzbl 0x4(%rdi),%eax
  ab:	0f b6 5f 05          	movzbl 0x5(%rdi),%ebx
  af:	01 c3                	add    %eax,%ebx
  b1:	0f b6 47 06          	movzbl 0x6(%rdi),%eax
  b5:	01 d8                	add    %ebx,%eax
  b7:	0f b6 5f 07          	movzbl 0x7(%rdi),%ebx
  bb:	01 c3                	add    %eax,%ebx
  bd:	0f b6 44 37 04       	movzbl 0x4(%rdi,%rsi,1),%eax
  c2:	01 d8                	add    %ebx,%eax
  c4:	0f b6 5c 37 05       	movzbl 0x5(%rdi,%rsi,1),%ebx
  c9:	01 c3                	add    %eax,%ebx
  cb:	0f b6 44 37 06       	movzbl 0x6(%rdi,%rsi,1),%eax
  d0:	01 d8                	add    %ebx,%eax
  d2:	0f b6 5c 37 07       	movzbl 0x7(%rdi,%rsi,1),%ebx
  d7:	01 c3                	add    %eax,%ebx
  d9:	42 0f b6 44 0f 04    	movzbl 0x4(%rdi,%r9,1),%eax
  df:	01 d8                	add    %ebx,%eax
  e1:	42 0f b6 5c 0f 05    	movzbl 0x5(%rdi,%r9,1),%ebx
  e7:	01 c3                	add    %eax,%ebx
  e9:	42 0f b6 44 0f 06    	movzbl 0x6(%rdi,%r9,1),%eax
  ef:	01 d8                	add    %ebx,%eax
  f1:	42 0f b6 5c 0f 07    	movzbl 0x7(%rdi,%r9,1),%ebx
  f7:	01 c3                	add    %eax,%ebx
  f9:	42 0f b6 44 1f 04    	movzbl 0x4(%rdi,%r11,1),%eax
  ff:	01 d8                	add    %ebx,%eax
 101:	42 0f b6 5c 1f 05    	movzbl 0x5(%rdi,%r11,1),%ebx
 107:	01 c3                	add    %eax,%ebx
 109:	42 0f b6 44 1f 06    	movzbl 0x6(%rdi,%r11,1),%eax
 10f:	01 d8                	add    %ebx,%eax
 111:	42 0f b6 5c 1f 07    	movzbl 0x7(%rdi,%r11,1),%ebx
 117:	8d 04 03             	lea    (%rbx,%rax,1),%eax
 11a:	83 c0 08             	add    $0x8,%eax
 11d:	c1 e8 04             	shr    $0x4,%eax
 120:	88 42 01             	mov    %al,0x1(%rdx)
 123:	48 83 c2 02          	add    $0x2,%rdx
 127:	48 83 c7 08          	add    $0x8,%rdi
 12b:	41 83 c2 02          	add    $0x2,%r10d
 12f:	45 39 c2             	cmp    %r8d,%r10d
 132:	0f 8c f8 fe ff ff    	jl     30 <ScaleRowDown4Box_C+0x30>
 138:	f6 c1 01             	test   $0x1,%cl
 13b:	74 73                	je     1b0 <ScaleRowDown4Box_C+0x1b0>
 13d:	0f b6 07             	movzbl (%rdi),%eax
 140:	0f b6 4f 01          	movzbl 0x1(%rdi),%ecx
 144:	01 c1                	add    %eax,%ecx
 146:	0f b6 47 02          	movzbl 0x2(%rdi),%eax
 14a:	01 c8                	add    %ecx,%eax
 14c:	0f b6 4f 03          	movzbl 0x3(%rdi),%ecx
 150:	01 c1                	add    %eax,%ecx
 152:	0f b6 04 37          	movzbl (%rdi,%rsi,1),%eax
 156:	01 c8                	add    %ecx,%eax
 158:	0f b6 4c 37 01       	movzbl 0x1(%rdi,%rsi,1),%ecx
 15d:	01 c1                	add    %eax,%ecx
 15f:	0f b6 44 37 02       	movzbl 0x2(%rdi,%rsi,1),%eax
 164:	01 c8                	add    %ecx,%eax
 166:	0f b6 4c 37 03       	movzbl 0x3(%rdi,%rsi,1),%ecx
 16b:	01 c1                	add    %eax,%ecx
 16d:	0f b6 04 77          	movzbl (%rdi,%rsi,2),%eax
 171:	01 c8                	add    %ecx,%eax
 173:	0f b6 4c 77 01       	movzbl 0x1(%rdi,%rsi,2),%ecx
 178:	01 c1                	add    %eax,%ecx
 17a:	0f b6 44 77 02       	movzbl 0x2(%rdi,%rsi,2),%eax
 17f:	01 c8                	add    %ecx,%eax
 181:	0f b6 4c 77 03       	movzbl 0x3(%rdi,%rsi,2),%ecx
 186:	01 c1                	add    %eax,%ecx
 188:	48 8d 04 76          	lea    (%rsi,%rsi,2),%rax
 18c:	0f b6 34 07          	movzbl (%rdi,%rax,1),%esi
 190:	01 ce                	add    %ecx,%esi
 192:	0f b6 4c 07 01       	movzbl 0x1(%rdi,%rax,1),%ecx
 197:	01 f1                	add    %esi,%ecx
 199:	0f b6 74 07 02       	movzbl 0x2(%rdi,%rax,1),%esi
 19e:	01 ce                	add    %ecx,%esi
 1a0:	0f b6 44 07 03       	movzbl 0x3(%rdi,%rax,1),%eax
 1a5:	8d 04 30             	lea    (%rax,%rsi,1),%eax
 1a8:	83 c0 08             	add    $0x8,%eax
 1ab:	c1 e8 04             	shr    $0x4,%eax
 1ae:	88 02                	mov    %al,(%rdx)
 1b0:	5b                   	pop    %rbx
 1b1:	5d                   	pop    %rbp
 1b2:	c3                   	retq   

Disassembly of section .text.ScaleRowDown4Box_16_C:

0000000000000000 <ScaleRowDown4Box_16_C>:
   0:	55                   	push   %rbp
   1:	48 89 e5             	mov    %rsp,%rbp
   4:	41 57                	push   %r15
   6:	41 56                	push   %r14
   8:	41 54                	push   %r12
   a:	53                   	push   %rbx
   b:	41 89 c8             	mov    %ecx,%r8d
   e:	41 83 c0 ff          	add    $0xffffffff,%r8d
  12:	0f 8e 6c 01 00 00    	jle    184 <ScaleRowDown4Box_16_C+0x184>
  18:	4c 8d 0c 77          	lea    (%rdi,%rsi,2),%r9
  1c:	49 83 c1 0e          	add    $0xe,%r9
  20:	4c 8d 1c b7          	lea    (%rdi,%rsi,4),%r11
  24:	49 83 c3 0e          	add    $0xe,%r11
  28:	48 8d 04 76          	lea    (%rsi,%rsi,2),%rax
  2c:	4c 8d 3c 47          	lea    (%rdi,%rax,2),%r15
  30:	49 83 c7 0e          	add    $0xe,%r15
  34:	45 31 d2             	xor    %r10d,%r10d
  37:	31 c0                	xor    %eax,%eax
  39:	45 31 f6             	xor    %r14d,%r14d
  3c:	0f 1f 40 00          	nopl   0x0(%rax)
  40:	44 0f b7 24 87       	movzwl (%rdi,%rax,4),%r12d
  45:	0f b7 5c 87 02       	movzwl 0x2(%rdi,%rax,4),%ebx
  4a:	44 01 e3             	add    %r12d,%ebx
  4d:	44 0f b7 64 87 04    	movzwl 0x4(%rdi,%rax,4),%r12d
  53:	41 01 dc             	add    %ebx,%r12d
  56:	0f b7 5c 87 06       	movzwl 0x6(%rdi,%rax,4),%ebx
  5b:	44 01 e3             	add    %r12d,%ebx
  5e:	45 0f b7 64 81 f2    	movzwl -0xe(%r9,%rax,4),%r12d
  64:	41 01 dc             	add    %ebx,%r12d
  67:	41 0f b7 5c 81 f4    	movzwl -0xc(%r9,%rax,4),%ebx
  6d:	44 01 e3             	add    %r12d,%ebx
  70:	45 0f b7 64 81 f6    	movzwl -0xa(%r9,%rax,4),%r12d
  76:	41 01 dc             	add    %ebx,%r12d
  79:	41 0f b7 5c 81 f8    	movzwl -0x8(%r9,%rax,4),%ebx
  7f:	44 01 e3             	add    %r12d,%ebx
  82:	45 0f b7 64 83 f2    	movzwl -0xe(%r11,%rax,4),%r12d
  88:	41 01 dc             	add    %ebx,%r12d
  8b:	41 0f b7 5c 83 f4    	movzwl -0xc(%r11,%rax,4),%ebx
  91:	44 01 e3             	add    %r12d,%ebx
  94:	45 0f b7 64 83 f6    	movzwl -0xa(%r11,%rax,4),%r12d
  9a:	41 01 dc             	add    %ebx,%r12d
  9d:	41 0f b7 5c 83 f8    	movzwl -0x8(%r11,%rax,4),%ebx
  a3:	44 01 e3             	add    %r12d,%ebx
  a6:	45 0f b7 64 87 f2    	movzwl -0xe(%r15,%rax,4),%r12d
  ac:	41 01 dc             	add    %ebx,%r12d
  af:	41 0f b7 5c 87 f4    	movzwl -0xc(%r15,%rax,4),%ebx
  b5:	44 01 e3             	add    %r12d,%ebx
  b8:	45 0f b7 64 87 f6    	movzwl -0xa(%r15,%rax,4),%r12d
  be:	41 01 dc             	add    %ebx,%r12d
  c1:	41 0f b7 5c 87 f8    	movzwl -0x8(%r15,%rax,4),%ebx
  c7:	42 8d 1c 23          	lea    (%rbx,%r12,1),%ebx
  cb:	83 c3 08             	add    $0x8,%ebx
  ce:	c1 eb 04             	shr    $0x4,%ebx
  d1:	66 89 1c 02          	mov    %bx,(%rdx,%rax,1)
  d5:	44 0f b7 64 87 08    	movzwl 0x8(%rdi,%rax,4),%r12d
  db:	0f b7 5c 87 0a       	movzwl 0xa(%rdi,%rax,4),%ebx
  e0:	44 01 e3             	add    %r12d,%ebx
  e3:	44 0f b7 64 87 0c    	movzwl 0xc(%rdi,%rax,4),%r12d
  e9:	41 01 dc             	add    %ebx,%r12d
  ec:	0f b7 5c 87 0e       	movzwl 0xe(%rdi,%rax,4),%ebx
  f1:	44 01 e3             	add    %r12d,%ebx
  f4:	45 0f b7 64 81 fa    	movzwl -0x6(%r9,%rax,4),%r12d
  fa:	41 01 dc             	add    %ebx,%r12d
  fd:	41 0f b7 5c 81 fc    	movzwl -0x4(%r9,%rax,4),%ebx
 103:	44 01 e3             	add    %r12d,%ebx
 106:	45 0f b7 64 81 fe    	movzwl -0x2(%r9,%rax,4),%r12d
 10c:	41 01 dc             	add    %ebx,%r12d
 10f:	41 0f b7 1c 81       	movzwl (%r9,%rax,4),%ebx
 114:	44 01 e3             	add    %r12d,%ebx
 117:	45 0f b7 64 83 fa    	movzwl -0x6(%r11,%rax,4),%r12d
 11d:	41 01 dc             	add    %ebx,%r12d
 120:	41 0f b7 5c 83 fc    	movzwl -0x4(%r11,%rax,4),%ebx
 126:	44 01 e3             	add    %r12d,%ebx
 129:	45 0f b7 64 83 fe    	movzwl -0x2(%r11,%rax,4),%r12d
 12f:	41 01 dc             	add    %ebx,%r12d
 132:	41 0f b7 1c 83       	movzwl (%r11,%rax,4),%ebx
 137:	44 01 e3             	add    %r12d,%ebx
 13a:	45 0f b7 64 87 fa    	movzwl -0x6(%r15,%rax,4),%r12d
 140:	41 01 dc             	add    %ebx,%r12d
 143:	41 0f b7 5c 87 fc    	movzwl -0x4(%r15,%rax,4),%ebx
 149:	44 01 e3             	add    %r12d,%ebx
 14c:	45 0f b7 64 87 fe    	movzwl -0x2(%r15,%rax,4),%r12d
 152:	41 01 dc             	add    %ebx,%r12d
 155:	41 0f b7 1c 87       	movzwl (%r15,%rax,4),%ebx
 15a:	42 8d 1c 23          	lea    (%rbx,%r12,1),%ebx
 15e:	83 c3 08             	add    $0x8,%ebx
 161:	c1 eb 04             	shr    $0x4,%ebx
 164:	66 89 5c 02 02       	mov    %bx,0x2(%rdx,%rax,1)
 169:	41 83 c6 02          	add    $0x2,%r14d
 16d:	48 83 c0 04          	add    $0x4,%rax
 171:	49 83 c2 10          	add    $0x10,%r10
 175:	45 39 c6             	cmp    %r8d,%r14d
 178:	0f 8c c2 fe ff ff    	jl     40 <ScaleRowDown4Box_16_C+0x40>
 17e:	4c 01 d7             	add    %r10,%rdi
 181:	48 01 c2             	add    %rax,%rdx
 184:	f6 c1 01             	test   $0x1,%cl
 187:	74 74                	je     1fd <ScaleRowDown4Box_16_C+0x1fd>
 189:	0f b7 07             	movzwl (%rdi),%eax
 18c:	0f b7 4f 02          	movzwl 0x2(%rdi),%ecx
 190:	01 c1                	add    %eax,%ecx
 192:	0f b7 47 04          	movzwl 0x4(%rdi),%eax
 196:	01 c8                	add    %ecx,%eax
 198:	0f b7 4f 06          	movzwl 0x6(%rdi),%ecx
 19c:	01 c1                	add    %eax,%ecx
 19e:	0f b7 04 77          	movzwl (%rdi,%rsi,2),%eax
 1a2:	01 c8                	add    %ecx,%eax
 1a4:	0f b7 4c 77 02       	movzwl 0x2(%rdi,%rsi,2),%ecx
 1a9:	01 c1                	add    %eax,%ecx
 1ab:	0f b7 44 77 04       	movzwl 0x4(%rdi,%rsi,2),%eax
 1b0:	01 c8                	add    %ecx,%eax
 1b2:	0f b7 4c 77 06       	movzwl 0x6(%rdi,%rsi,2),%ecx
 1b7:	01 c1                	add    %eax,%ecx
 1b9:	0f b7 04 b7          	movzwl (%rdi,%rsi,4),%eax
 1bd:	01 c8                	add    %ecx,%eax
 1bf:	0f b7 4c b7 02       	movzwl 0x2(%rdi,%rsi,4),%ecx
 1c4:	01 c1                	add    %eax,%ecx
 1c6:	0f b7 44 b7 04       	movzwl 0x4(%rdi,%rsi,4),%eax
 1cb:	01 c8                	add    %ecx,%eax
 1cd:	0f b7 4c b7 06       	movzwl 0x6(%rdi,%rsi,4),%ecx
 1d2:	01 c1                	add    %eax,%ecx
 1d4:	48 8d 04 76          	lea    (%rsi,%rsi,2),%rax
 1d8:	0f b7 34 47          	movzwl (%rdi,%rax,2),%esi
 1dc:	01 ce                	add    %ecx,%esi
 1de:	0f b7 4c 47 02       	movzwl 0x2(%rdi,%rax,2),%ecx
 1e3:	01 f1                	add    %esi,%ecx
 1e5:	0f b7 74 47 04       	movzwl 0x4(%rdi,%rax,2),%esi
 1ea:	01 ce                	add    %ecx,%esi
 1ec:	0f b7 44 47 06       	movzwl 0x6(%rdi,%rax,2),%eax
 1f1:	8d 04 30             	lea    (%rax,%rsi,1),%eax
 1f4:	83 c0 08             	add    $0x8,%eax
 1f7:	c1 e8 04             	shr    $0x4,%eax
 1fa:	66 89 02             	mov    %ax,(%rdx)
 1fd:	5b                   	pop    %rbx
 1fe:	41 5c                	pop    %r12
 200:	41 5e                	pop    %r14
 202:	41 5f                	pop    %r15
 204:	5d                   	pop    %rbp
 205:	c3                   	retq   

Disassembly of section .text.ScaleRowDown34_C:

0000000000000000 <ScaleRowDown34_C>:
   0:	55                   	push   %rbp
   1:	48 89 e5             	mov    %rsp,%rbp
   4:	85 c9                	test   %ecx,%ecx
   6:	7e 2a                	jle    32 <ScaleRowDown34_C+0x32>
   8:	31 f6                	xor    %esi,%esi
   a:	66 0f 1f 44 00 00    	nopw   0x0(%rax,%rax,1)
  10:	0f b6 07             	movzbl (%rdi),%eax
  13:	88 04 32             	mov    %al,(%rdx,%rsi,1)
  16:	0f b6 47 01          	movzbl 0x1(%rdi),%eax
  1a:	88 44 32 01          	mov    %al,0x1(%rdx,%rsi,1)
  1e:	0f b6 47 03          	movzbl 0x3(%rdi),%eax
  22:	88 44 32 02          	mov    %al,0x2(%rdx,%rsi,1)
  26:	48 83 c6 03          	add    $0x3,%rsi
  2a:	48 83 c7 04          	add    $0x4,%rdi
  2e:	39 ce                	cmp    %ecx,%esi
  30:	7c de                	jl     10 <ScaleRowDown34_C+0x10>
  32:	5d                   	pop    %rbp
  33:	c3                   	retq   

Disassembly of section .text.ScaleRowDown34_16_C:

0000000000000000 <ScaleRowDown34_16_C>:
   0:	55                   	push   %rbp
   1:	48 89 e5             	mov    %rsp,%rbp
   4:	85 c9                	test   %ecx,%ecx
   6:	7e 2d                	jle    35 <ScaleRowDown34_16_C+0x35>
   8:	31 c0                	xor    %eax,%eax
   a:	66 0f 1f 44 00 00    	nopw   0x0(%rax,%rax,1)
  10:	0f b7 37             	movzwl (%rdi),%esi
  13:	66 89 34 42          	mov    %si,(%rdx,%rax,2)
  17:	0f b7 77 02          	movzwl 0x2(%rdi),%esi
  1b:	66 89 74 42 02       	mov    %si,0x2(%rdx,%rax,2)
  20:	0f b7 77 06          	movzwl 0x6(%rdi),%esi
  24:	66 89 74 42 04       	mov    %si,0x4(%rdx,%rax,2)
  29:	48 83 c0 03          	add    $0x3,%rax
  2d:	48 83 c7 08          	add    $0x8,%rdi
  31:	39 c8                	cmp    %ecx,%eax
  33:	7c db                	jl     10 <ScaleRowDown34_16_C+0x10>
  35:	5d                   	pop    %rbp
  36:	c3                   	retq   

Disassembly of section .text.ScaleRowDown34_0_Box_C:

0000000000000000 <ScaleRowDown34_0_Box_C>:
   0:	55                   	push   %rbp
   1:	48 89 e5             	mov    %rsp,%rbp
   4:	41 57                	push   %r15
   6:	41 56                	push   %r14
   8:	53                   	push   %rbx
   9:	85 c9                	test   %ecx,%ecx
   b:	0f 8e dc 00 00 00    	jle    ed <ScaleRowDown34_0_Box_C+0xed>
  11:	48 83 c7 03          	add    $0x3,%rdi
  15:	45 31 f6             	xor    %r14d,%r14d
  18:	0f 1f 84 00 00 00 00 	nopl   0x0(%rax,%rax,1)
  1f:	00 
  20:	0f b6 47 fd          	movzbl -0x3(%rdi),%eax
  24:	44 8d 04 40          	lea    (%rax,%rax,2),%r8d
  28:	0f b6 47 fe          	movzbl -0x2(%rdi),%eax
  2c:	46 8d 14 00          	lea    (%rax,%r8,1),%r10d
  30:	41 83 c2 02          	add    $0x2,%r10d
  34:	41 c1 ea 02          	shr    $0x2,%r10d
  38:	0f b6 5f ff          	movzbl -0x1(%rdi),%ebx
  3c:	44 8d 0c 18          	lea    (%rax,%rbx,1),%r9d
  40:	41 83 c1 01          	add    $0x1,%r9d
  44:	41 d1 e9             	shr    %r9d
  47:	0f b6 07             	movzbl (%rdi),%eax
  4a:	8d 04 40             	lea    (%rax,%rax,2),%eax
  4d:	44 8d 04 03          	lea    (%rbx,%rax,1),%r8d
  51:	41 83 c0 02          	add    $0x2,%r8d
  55:	41 c1 e8 02          	shr    $0x2,%r8d
  59:	0f b6 44 37 fd       	movzbl -0x3(%rdi,%rsi,1),%eax
  5e:	8d 04 40             	lea    (%rax,%rax,2),%eax
  61:	0f b6 5c 37 fe       	movzbl -0x2(%rdi,%rsi,1),%ebx
  66:	8d 04 03             	lea    (%rbx,%rax,1),%eax
  69:	83 c0 02             	add    $0x2,%eax
  6c:	c1 e8 02             	shr    $0x2,%eax
  6f:	44 0f b6 5c 37 ff    	movzbl -0x1(%rdi,%rsi,1),%r11d
  75:	46 8d 3c 1b          	lea    (%rbx,%r11,1),%r15d
  79:	41 83 c7 01          	add    $0x1,%r15d
  7d:	41 d1 ef             	shr    %r15d
  80:	0f b6 1c 37          	movzbl (%rdi,%rsi,1),%ebx
  84:	8d 1c 5b             	lea    (%rbx,%rbx,2),%ebx
  87:	45 8d 1c 1b          	lea    (%r11,%rbx,1),%r11d
  8b:	41 83 c3 02          	add    $0x2,%r11d
  8f:	41 c1 eb 02          	shr    $0x2,%r11d
  93:	41 0f b6 da          	movzbl %r10b,%ebx
  97:	8d 1c 5b             	lea    (%rbx,%rbx,2),%ebx
  9a:	0f b6 c0             	movzbl %al,%eax
  9d:	8d 04 18             	lea    (%rax,%rbx,1),%eax
  a0:	83 c0 02             	add    $0x2,%eax
  a3:	c1 e8 02             	shr    $0x2,%eax
  a6:	42 88 04 32          	mov    %al,(%rdx,%r14,1)
  aa:	41 0f b6 c1          	movzbl %r9b,%eax
  ae:	8d 04 40             	lea    (%rax,%rax,2),%eax
  b1:	41 0f b6 df          	movzbl %r15b,%ebx
  b5:	8d 04 03             	lea    (%rbx,%rax,1),%eax
  b8:	83 c0 02             	add    $0x2,%eax
  bb:	c1 e8 02             	shr    $0x2,%eax
  be:	42 88 44 32 01       	mov    %al,0x1(%rdx,%r14,1)
  c3:	41 0f b6 c0          	movzbl %r8b,%eax
  c7:	8d 04 40             	lea    (%rax,%rax,2),%eax
  ca:	41 0f b6 db          	movzbl %r11b,%ebx
  ce:	8d 04 03             	lea    (%rbx,%rax,1),%eax
  d1:	83 c0 02             	add    $0x2,%eax
  d4:	c1 e8 02             	shr    $0x2,%eax
  d7:	42 88 44 32 02       	mov    %al,0x2(%rdx,%r14,1)
  dc:	49 83 c6 03          	add    $0x3,%r14
  e0:	48 83 c7 04          	add    $0x4,%rdi
  e4:	41 39 ce             	cmp    %ecx,%r14d
  e7:	0f 8c 33 ff ff ff    	jl     20 <ScaleRowDown34_0_Box_C+0x20>
  ed:	5b                   	pop    %rbx
  ee:	41 5e                	pop    %r14
  f0:	41 5f                	pop    %r15
  f2:	5d                   	pop    %rbp
  f3:	c3                   	retq   

Disassembly of section .text.ScaleRowDown34_0_Box_16_C:

0000000000000000 <ScaleRowDown34_0_Box_16_C>:
   0:	55                   	push   %rbp
   1:	48 89 e5             	mov    %rsp,%rbp
   4:	41 57                	push   %r15
   6:	41 56                	push   %r14
   8:	41 54                	push   %r12
   a:	53                   	push   %rbx
   b:	85 c9                	test   %ecx,%ecx
   d:	0f 8e 13 04 00 00    	jle    426 <ScaleRowDown34_0_Box_16_C+0x426>
  13:	4c 8d 14 77          	lea    (%rdi,%rsi,2),%r10
  17:	8d 41 ff             	lea    -0x1(%rcx),%eax
  1a:	bb ab aa aa aa       	mov    $0xaaaaaaab,%ebx
  1f:	49 89 c3             	mov    %rax,%r11
  22:	4c 0f af db          	imul   %rbx,%r11
  26:	49 c1 eb 21          	shr    $0x21,%r11
  2a:	41 83 c3 01          	add    $0x1,%r11d
  2e:	45 31 ff             	xor    %r15d,%r15d
  31:	41 83 fb 04          	cmp    $0x4,%r11d
  35:	0f 82 03 03 00 00    	jb     33e <ScaleRowDown34_0_Box_16_C+0x33e>
  3b:	48 0f af c3          	imul   %rbx,%rax
  3f:	48 c1 e8 21          	shr    $0x21,%rax
  43:	48 8d 1c 40          	lea    (%rax,%rax,2),%rbx
  47:	48 8d 1c 5a          	lea    (%rdx,%rbx,2),%rbx
  4b:	48 83 c3 06          	add    $0x6,%rbx
  4f:	48 8d 34 86          	lea    (%rsi,%rax,4),%rsi
  53:	48 8d 34 77          	lea    (%rdi,%rsi,2),%rsi
  57:	48 83 c6 08          	add    $0x8,%rsi
  5b:	48 8d 04 c7          	lea    (%rdi,%rax,8),%rax
  5f:	48 83 c0 08          	add    $0x8,%rax
  63:	48 39 d6             	cmp    %rdx,%rsi
  66:	40 0f 97 c6          	seta   %sil
  6a:	49 39 da             	cmp    %rbx,%r10
  6d:	41 0f 92 c0          	setb   %r8b
  71:	48 39 d0             	cmp    %rdx,%rax
  74:	0f 97 c0             	seta   %al
  77:	48 39 fb             	cmp    %rdi,%rbx
  7a:	0f 97 c3             	seta   %bl
  7d:	44 84 c6             	test   %r8b,%sil
  80:	0f 85 b8 02 00 00    	jne    33e <ScaleRowDown34_0_Box_16_C+0x33e>
  86:	20 d8                	and    %bl,%al
  88:	0f 85 b0 02 00 00    	jne    33e <ScaleRowDown34_0_Box_16_C+0x33e>
  8e:	45 89 de             	mov    %r11d,%r14d
  91:	41 81 e6 fc ff ff 7f 	and    $0x7ffffffc,%r14d
  98:	4b 8d 04 76          	lea    (%r14,%r14,2),%rax
  9c:	4c 8d 24 42          	lea    (%rdx,%rax,2),%r12
  a0:	4e 8d 04 f7          	lea    (%rdi,%r14,8),%r8
  a4:	4f 8d 0c f2          	lea    (%r10,%r14,8),%r9
  a8:	47 8d 3c 76          	lea    (%r14,%r14,2),%r15d
  ac:	31 db                	xor    %ebx,%ebx
  ae:	66 45 0f ef ed       	pxor   %xmm13,%xmm13
  b3:	66 44 0f 6f 25 00 00 	movdqa 0x0(%rip),%xmm12        # bc <ScaleRowDown34_0_Box_16_C+0xbc>
  ba:	00 00 
  bc:	66 45 0f 76 c0       	pcmpeqd %xmm8,%xmm8
  c1:	66 44 0f 6f 1d 00 00 	movdqa 0x0(%rip),%xmm11        # ca <ScaleRowDown34_0_Box_16_C+0xca>
  c8:	00 00 
  ca:	66 44 0f 6f 0d 00 00 	movdqa 0x0(%rip),%xmm9        # d3 <ScaleRowDown34_0_Box_16_C+0xd3>
  d1:	00 00 
  d3:	66 44 0f 6f 15 00 00 	movdqa 0x0(%rip),%xmm10        # dc <ScaleRowDown34_0_Box_16_C+0xdc>
  da:	00 00 
  dc:	0f 1f 40 00          	nopl   0x0(%rax)
  e0:	f3 0f 6f 0c df       	movdqu (%rdi,%rbx,8),%xmm1
  e5:	f3 0f 6f 5c df 10    	movdqu 0x10(%rdi,%rbx,8),%xmm3
  eb:	66 0f 70 e3 e8       	pshufd $0xe8,%xmm3,%xmm4
  f0:	f2 0f 70 ec e8       	pshuflw $0xe8,%xmm4,%xmm5
  f5:	66 0f 70 f1 e8       	pshufd $0xe8,%xmm1,%xmm6
  fa:	f2 0f 70 d6 e8       	pshuflw $0xe8,%xmm6,%xmm2
  ff:	66 0f 62 d5          	punpckldq %xmm5,%xmm2
 103:	f2 0f 70 e4 ed       	pshuflw $0xed,%xmm4,%xmm4
 108:	f2 0f 70 fe ed       	pshuflw $0xed,%xmm6,%xmm7
 10d:	66 0f 62 fc          	punpckldq %xmm4,%xmm7
 111:	66 0f 70 e3 e7       	pshufd $0xe7,%xmm3,%xmm4
 116:	f2 0f 70 ec e2       	pshuflw $0xe2,%xmm4,%xmm5
 11b:	66 0f 70 c9 e7       	pshufd $0xe7,%xmm1,%xmm1
 120:	f2 0f 70 d9 e2       	pshuflw $0xe2,%xmm1,%xmm3
 125:	66 0f 62 dd          	punpckldq %xmm5,%xmm3
 129:	f2 0f 70 e4 e7       	pshuflw $0xe7,%xmm4,%xmm4
 12e:	f2 0f 70 f1 e7       	pshuflw $0xe7,%xmm1,%xmm6
 133:	66 0f 62 f4          	punpckldq %xmm4,%xmm6
 137:	66 41 0f 61 d5       	punpcklwd %xmm13,%xmm2
 13c:	66 0f 6f ca          	movdqa %xmm2,%xmm1
 140:	66 0f fe ca          	paddd  %xmm2,%xmm1
 144:	66 41 0f 61 fd       	punpcklwd %xmm13,%xmm7
 149:	66 0f fe d7          	paddd  %xmm7,%xmm2
 14d:	66 0f fe d1          	paddd  %xmm1,%xmm2
 151:	66 41 0f fe d4       	paddd  %xmm12,%xmm2
 156:	66 0f 72 d2 02       	psrld  $0x2,%xmm2
 15b:	66 41 0f 61 dd       	punpcklwd %xmm13,%xmm3
 160:	66 0f fe fb          	paddd  %xmm3,%xmm7
 164:	66 41 0f fa f8       	psubd  %xmm8,%xmm7
 169:	66 0f 72 d7 01       	psrld  $0x1,%xmm7
 16e:	66 41 0f 61 f5       	punpcklwd %xmm13,%xmm6
 173:	66 0f 6f ce          	movdqa %xmm6,%xmm1
 177:	66 0f fe ce          	paddd  %xmm6,%xmm1
 17b:	66 0f fe f3          	paddd  %xmm3,%xmm6
 17f:	66 0f fe f1          	paddd  %xmm1,%xmm6
 183:	66 41 0f fe f4       	paddd  %xmm12,%xmm6
 188:	66 0f 72 d6 02       	psrld  $0x2,%xmm6
 18d:	f3 41 0f 6f 0c da    	movdqu (%r10,%rbx,8),%xmm1
 193:	f3 41 0f 6f 5c da 10 	movdqu 0x10(%r10,%rbx,8),%xmm3
 19a:	66 0f 70 eb e8       	pshufd $0xe8,%xmm3,%xmm5
 19f:	f2 44 0f 70 f5 e8    	pshuflw $0xe8,%xmm5,%xmm14
 1a5:	66 0f 70 c1 e8       	pshufd $0xe8,%xmm1,%xmm0
 1aa:	f2 0f 70 e0 e8       	pshuflw $0xe8,%xmm0,%xmm4
 1af:	66 41 0f 62 e6       	punpckldq %xmm14,%xmm4
 1b4:	f2 44 0f 70 f5 ed    	pshuflw $0xed,%xmm5,%xmm14
 1ba:	f2 0f 70 e8 ed       	pshuflw $0xed,%xmm0,%xmm5
 1bf:	66 41 0f 62 ee       	punpckldq %xmm14,%xmm5
 1c4:	66 0f 70 c3 e7       	pshufd $0xe7,%xmm3,%xmm0
 1c9:	f2 44 0f 70 f0 e2    	pshuflw $0xe2,%xmm0,%xmm14
 1cf:	66 0f 70 d9 e7       	pshufd $0xe7,%xmm1,%xmm3
 1d4:	f2 0f 70 cb e2       	pshuflw $0xe2,%xmm3,%xmm1
 1d9:	66 41 0f 62 ce       	punpckldq %xmm14,%xmm1
 1de:	f2 0f 70 c0 e7       	pshuflw $0xe7,%xmm0,%xmm0
 1e3:	f2 0f 70 db e7       	pshuflw $0xe7,%xmm3,%xmm3
 1e8:	66 0f 62 d8          	punpckldq %xmm0,%xmm3
 1ec:	66 41 0f 61 e5       	punpcklwd %xmm13,%xmm4
 1f1:	66 0f 6f c4          	movdqa %xmm4,%xmm0
 1f5:	66 0f fe c4          	paddd  %xmm4,%xmm0
 1f9:	66 41 0f 61 ed       	punpcklwd %xmm13,%xmm5
 1fe:	66 0f fe e5          	paddd  %xmm5,%xmm4
 202:	66 0f fe e0          	paddd  %xmm0,%xmm4
 206:	66 41 0f fe e4       	paddd  %xmm12,%xmm4
 20b:	66 0f 72 d4 02       	psrld  $0x2,%xmm4
 210:	66 41 0f 61 cd       	punpcklwd %xmm13,%xmm1
 215:	66 0f fe e9          	paddd  %xmm1,%xmm5
 219:	66 41 0f fa e8       	psubd  %xmm8,%xmm5
 21e:	66 0f 72 d5 01       	psrld  $0x1,%xmm5
 223:	66 41 0f 61 dd       	punpcklwd %xmm13,%xmm3
 228:	66 0f 6f c3          	movdqa %xmm3,%xmm0
 22c:	66 0f fe c3          	paddd  %xmm3,%xmm0
 230:	66 0f fe d9          	paddd  %xmm1,%xmm3
 234:	66 0f fe d8          	paddd  %xmm0,%xmm3
 238:	66 41 0f fe dc       	paddd  %xmm12,%xmm3
 23d:	66 0f 72 d3 02       	psrld  $0x2,%xmm3
 242:	66 41 0f db d3       	pand   %xmm11,%xmm2
 247:	66 41 0f db e3       	pand   %xmm11,%xmm4
 24c:	66 0f fe e2          	paddd  %xmm2,%xmm4
 250:	66 0f fe d2          	paddd  %xmm2,%xmm2
 254:	66 0f fe e2          	paddd  %xmm2,%xmm4
 258:	66 41 0f fe e4       	paddd  %xmm12,%xmm4
 25d:	66 0f 72 d4 02       	psrld  $0x2,%xmm4
 262:	66 41 0f db fb       	pand   %xmm11,%xmm7
 267:	66 41 0f db eb       	pand   %xmm11,%xmm5
 26c:	66 0f fe ef          	paddd  %xmm7,%xmm5
 270:	66 0f fe ff          	paddd  %xmm7,%xmm7
 274:	66 0f fe ef          	paddd  %xmm7,%xmm5
 278:	66 41 0f fe ec       	paddd  %xmm12,%xmm5
 27d:	66 0f 72 d5 02       	psrld  $0x2,%xmm5
 282:	66 41 0f db f3       	pand   %xmm11,%xmm6
 287:	66 41 0f db db       	pand   %xmm11,%xmm3
 28c:	66 0f fe de          	paddd  %xmm6,%xmm3
 290:	66 0f fe f6          	paddd  %xmm6,%xmm6
 294:	66 0f fe de          	paddd  %xmm6,%xmm3
 298:	66 41 0f fe dc       	paddd  %xmm12,%xmm3
 29d:	66 0f 72 d3 02       	psrld  $0x2,%xmm3
 2a2:	f2 0f 70 c3 e8       	pshuflw $0xe8,%xmm3,%xmm0
 2a7:	f3 0f 70 c8 e8       	pshufhw $0xe8,%xmm0,%xmm1
 2ac:	f2 0f 70 d5 e8       	pshuflw $0xe8,%xmm5,%xmm2
 2b1:	f3 0f 70 d2 e8       	pshufhw $0xe8,%xmm2,%xmm2
 2b6:	66 0f 70 d2 e8       	pshufd $0xe8,%xmm2,%xmm2
 2bb:	f2 0f 70 dc e8       	pshuflw $0xe8,%xmm4,%xmm3
 2c0:	f3 0f 70 db e8       	pshufhw $0xe8,%xmm3,%xmm3
 2c5:	66 0f 70 db e8       	pshufd $0xe8,%xmm3,%xmm3
 2ca:	66 0f 6c da          	punpcklqdq %xmm2,%xmm3
 2ce:	f3 0f 70 d3 c6       	pshufhw $0xc6,%xmm3,%xmm2
 2d3:	66 0f 70 d2 6c       	pshufd $0x6c,%xmm2,%xmm2
 2d8:	f2 0f 70 d2 68       	pshuflw $0x68,%xmm2,%xmm2
 2dd:	f3 0f 70 d2 25       	pshufhw $0x25,%xmm2,%xmm2
 2e2:	66 41 0f db d1       	pand   %xmm9,%xmm2
 2e7:	66 0f 70 c0 c0       	pshufd $0xc0,%xmm0,%xmm0
 2ec:	66 41 0f 6f e1       	movdqa %xmm9,%xmm4
 2f1:	66 0f df e0          	pandn  %xmm0,%xmm4
 2f5:	66 0f eb e2          	por    %xmm2,%xmm4
 2f9:	66 0f 70 c3 e7       	pshufd $0xe7,%xmm3,%xmm0
 2fe:	f2 0f 70 c0 dc       	pshuflw $0xdc,%xmm0,%xmm0
 303:	66 41 0f db c2       	pand   %xmm10,%xmm0
 308:	66 0f 70 c9 ea       	pshufd $0xea,%xmm1,%xmm1
 30d:	66 41 0f 6f d2       	movdqa %xmm10,%xmm2
 312:	66 0f df d1          	pandn  %xmm1,%xmm2
 316:	66 0f eb d0          	por    %xmm0,%xmm2
 31a:	66 0f d6 52 10       	movq   %xmm2,0x10(%rdx)
 31f:	f3 0f 7f 22          	movdqu %xmm4,(%rdx)
 323:	48 83 c3 04          	add    $0x4,%rbx
 327:	48 83 c2 18          	add    $0x18,%rdx
 32b:	49 39 de             	cmp    %rbx,%r14
 32e:	0f 85 ac fd ff ff    	jne    e0 <ScaleRowDown34_0_Box_16_C+0xe0>
 334:	4d 39 de             	cmp    %r11,%r14
 337:	75 0e                	jne    347 <ScaleRowDown34_0_Box_16_C+0x347>
 339:	e9 e8 00 00 00       	jmpq   426 <ScaleRowDown34_0_Box_16_C+0x426>
 33e:	49 89 d4             	mov    %rdx,%r12
 341:	49 89 f8             	mov    %rdi,%r8
 344:	4d 89 d1             	mov    %r10,%r9
 347:	31 d2                	xor    %edx,%edx
 349:	0f 1f 80 00 00 00 00 	nopl   0x0(%rax)
 350:	41 0f b7 04 10       	movzwl (%r8,%rdx,1),%eax
 355:	8d 04 40             	lea    (%rax,%rax,2),%eax
 358:	41 0f b7 74 10 02    	movzwl 0x2(%r8,%rdx,1),%esi
 35e:	44 8d 34 06          	lea    (%rsi,%rax,1),%r14d
 362:	41 83 c6 02          	add    $0x2,%r14d
 366:	41 c1 ee 02          	shr    $0x2,%r14d
 36a:	41 0f b7 7c 10 04    	movzwl 0x4(%r8,%rdx,1),%edi
 370:	44 8d 1c 3e          	lea    (%rsi,%rdi,1),%r11d
 374:	41 83 c3 01          	add    $0x1,%r11d
 378:	41 d1 eb             	shr    %r11d
 37b:	41 0f b7 74 10 06    	movzwl 0x6(%r8,%rdx,1),%esi
 381:	8d 34 76             	lea    (%rsi,%rsi,2),%esi
 384:	44 8d 14 37          	lea    (%rdi,%rsi,1),%r10d
 388:	41 83 c2 02          	add    $0x2,%r10d
 38c:	41 c1 ea 02          	shr    $0x2,%r10d
 390:	41 0f b7 34 11       	movzwl (%r9,%rdx,1),%esi
 395:	8d 34 76             	lea    (%rsi,%rsi,2),%esi
 398:	41 0f b7 7c 11 02    	movzwl 0x2(%r9,%rdx,1),%edi
 39e:	8d 1c 37             	lea    (%rdi,%rsi,1),%ebx
 3a1:	83 c3 02             	add    $0x2,%ebx
 3a4:	c1 eb 02             	shr    $0x2,%ebx
 3a7:	41 0f b7 74 11 04    	movzwl 0x4(%r9,%rdx,1),%esi
 3ad:	8d 3c 37             	lea    (%rdi,%rsi,1),%edi
 3b0:	83 c7 01             	add    $0x1,%edi
 3b3:	d1 ef                	shr    %edi
 3b5:	41 0f b7 44 11 06    	movzwl 0x6(%r9,%rdx,1),%eax
 3bb:	8d 04 40             	lea    (%rax,%rax,2),%eax
 3be:	8d 34 06             	lea    (%rsi,%rax,1),%esi
 3c1:	83 c6 02             	add    $0x2,%esi
 3c4:	c1 ee 02             	shr    $0x2,%esi
 3c7:	41 0f b7 c6          	movzwl %r14w,%eax
 3cb:	8d 04 40             	lea    (%rax,%rax,2),%eax
 3ce:	0f b7 db             	movzwl %bx,%ebx
 3d1:	8d 04 03             	lea    (%rbx,%rax,1),%eax
 3d4:	83 c0 02             	add    $0x2,%eax
 3d7:	c1 e8 02             	shr    $0x2,%eax
 3da:	66 41 89 04 24       	mov    %ax,(%r12)
 3df:	41 0f b7 c3          	movzwl %r11w,%eax
 3e3:	8d 04 40             	lea    (%rax,%rax,2),%eax
 3e6:	0f b7 ff             	movzwl %di,%edi
 3e9:	8d 04 07             	lea    (%rdi,%rax,1),%eax
 3ec:	83 c0 02             	add    $0x2,%eax
 3ef:	c1 e8 02             	shr    $0x2,%eax
 3f2:	66 41 89 44 24 02    	mov    %ax,0x2(%r12)
 3f8:	41 0f b7 c2          	movzwl %r10w,%eax
 3fc:	8d 04 40             	lea    (%rax,%rax,2),%eax
 3ff:	0f b7 f6             	movzwl %si,%esi
 402:	8d 04 06             	lea    (%rsi,%rax,1),%eax
 405:	83 c0 02             	add    $0x2,%eax
 408:	c1 e8 02             	shr    $0x2,%eax
 40b:	66 41 89 44 24 04    	mov    %ax,0x4(%r12)
 411:	41 83 c7 03          	add    $0x3,%r15d
 415:	48 83 c2 08          	add    $0x8,%rdx
 419:	49 83 c4 06          	add    $0x6,%r12
 41d:	41 39 cf             	cmp    %ecx,%r15d
 420:	0f 8c 2a ff ff ff    	jl     350 <ScaleRowDown34_0_Box_16_C+0x350>
 426:	5b                   	pop    %rbx
 427:	41 5c                	pop    %r12
 429:	41 5e                	pop    %r14
 42b:	41 5f                	pop    %r15
 42d:	5d                   	pop    %rbp
 42e:	c3                   	retq   

Disassembly of section .text.ScaleRowDown34_1_Box_C:

0000000000000000 <ScaleRowDown34_1_Box_C>:
   0:	55                   	push   %rbp
   1:	48 89 e5             	mov    %rsp,%rbp
   4:	41 57                	push   %r15
   6:	41 56                	push   %r14
   8:	41 54                	push   %r12
   a:	53                   	push   %rbx
   b:	48 83 ec 50          	sub    $0x50,%rsp
   f:	85 c9                	test   %ecx,%ecx
  11:	0f 8e 52 09 00 00    	jle    969 <ScaleRowDown34_1_Box_C+0x969>
  17:	4c 8d 14 37          	lea    (%rdi,%rsi,1),%r10
  1b:	8d 41 ff             	lea    -0x1(%rcx),%eax
  1e:	bb ab aa aa aa       	mov    $0xaaaaaaab,%ebx
  23:	49 89 c3             	mov    %rax,%r11
  26:	4c 0f af db          	imul   %rbx,%r11
  2a:	49 c1 eb 21          	shr    $0x21,%r11
  2e:	41 83 c3 01          	add    $0x1,%r11d
  32:	45 31 ff             	xor    %r15d,%r15d
  35:	41 83 fb 10          	cmp    $0x10,%r11d
  39:	0f 82 4a 08 00 00    	jb     889 <ScaleRowDown34_1_Box_C+0x889>
  3f:	48 0f af c3          	imul   %rbx,%rax
  43:	48 c1 e8 21          	shr    $0x21,%rax
  47:	48 8d 1c 40          	lea    (%rax,%rax,2),%rbx
  4b:	48 01 d3             	add    %rdx,%rbx
  4e:	48 83 c3 03          	add    $0x3,%rbx
  52:	48 8d 34 86          	lea    (%rsi,%rax,4),%rsi
  56:	48 01 fe             	add    %rdi,%rsi
  59:	48 83 c6 04          	add    $0x4,%rsi
  5d:	48 8d 04 87          	lea    (%rdi,%rax,4),%rax
  61:	48 83 c0 04          	add    $0x4,%rax
  65:	48 39 d6             	cmp    %rdx,%rsi
  68:	40 0f 97 c6          	seta   %sil
  6c:	49 39 da             	cmp    %rbx,%r10
  6f:	41 0f 92 c0          	setb   %r8b
  73:	48 39 d0             	cmp    %rdx,%rax
  76:	0f 97 c0             	seta   %al
  79:	48 39 fb             	cmp    %rdi,%rbx
  7c:	0f 97 c3             	seta   %bl
  7f:	44 84 c6             	test   %r8b,%sil
  82:	0f 85 01 08 00 00    	jne    889 <ScaleRowDown34_1_Box_C+0x889>
  88:	20 d8                	and    %bl,%al
  8a:	0f 85 f9 07 00 00    	jne    889 <ScaleRowDown34_1_Box_C+0x889>
  90:	45 89 de             	mov    %r11d,%r14d
  93:	41 81 e6 f0 ff ff 7f 	and    $0x7ffffff0,%r14d
  9a:	4f 8d 24 76          	lea    (%r14,%r14,2),%r12
  9e:	49 01 d4             	add    %rdx,%r12
  a1:	4e 8d 04 b7          	lea    (%rdi,%r14,4),%r8
  a5:	4f 8d 0c b2          	lea    (%r10,%r14,4),%r9
  a9:	47 8d 3c 76          	lea    (%r14,%r14,2),%r15d
  ad:	31 db                	xor    %ebx,%ebx
  af:	90                   	nop
  b0:	f3 44 0f 6f 04 9f    	movdqu (%rdi,%rbx,4),%xmm8
  b6:	f3 44 0f 6f 4c 9f 10 	movdqu 0x10(%rdi,%rbx,4),%xmm9
  bd:	f3 44 0f 6f 54 9f 20 	movdqu 0x20(%rdi,%rbx,4),%xmm10
  c4:	f3 44 0f 6f 5c 9f 30 	movdqu 0x30(%rdi,%rbx,4),%xmm11
  cb:	66 41 0f 6f e0       	movdqa %xmm8,%xmm4
  d0:	66 0f 6f 05 00 00 00 	movdqa 0x0(%rip),%xmm0        # d8 <ScaleRowDown34_1_Box_C+0xd8>
  d7:	00 
  d8:	66 0f 6f c8          	movdqa %xmm0,%xmm1
  dc:	66 0f db e0          	pand   %xmm0,%xmm4
  e0:	66 41 0f 6f c1       	movdqa %xmm9,%xmm0
  e5:	66 0f db c1          	pand   %xmm1,%xmm0
  e9:	66 41 0f 6f fa       	movdqa %xmm10,%xmm7
  ee:	66 0f db f9          	pand   %xmm1,%xmm7
  f2:	66 41 0f 6f f3       	movdqa %xmm11,%xmm6
  f7:	66 0f db f1          	pand   %xmm1,%xmm6
  fb:	66 0f 6f d1          	movdqa %xmm1,%xmm2
  ff:	66 0f 6f de          	movdqa %xmm6,%xmm3
 103:	66 0f fe de          	paddd  %xmm6,%xmm3
 107:	66 0f fe de          	paddd  %xmm6,%xmm3
 10b:	66 0f 6f f7          	movdqa %xmm7,%xmm6
 10f:	66 0f fe f7          	paddd  %xmm7,%xmm6
 113:	66 0f fe f7          	paddd  %xmm7,%xmm6
 117:	66 0f 6f f8          	movdqa %xmm0,%xmm7
 11b:	66 0f fe f8          	paddd  %xmm0,%xmm7
 11f:	66 0f fe f8          	paddd  %xmm0,%xmm7
 123:	66 0f 6f c4          	movdqa %xmm4,%xmm0
 127:	66 0f fe c4          	paddd  %xmm4,%xmm0
 12b:	66 0f fe c4          	paddd  %xmm4,%xmm0
 12f:	66 41 0f 6f cb       	movdqa %xmm11,%xmm1
 134:	66 0f 71 d1 08       	psrlw  $0x8,%xmm1
 139:	66 0f db ca          	pand   %xmm2,%xmm1
 13d:	66 44 0f 6f e1       	movdqa %xmm1,%xmm12
 142:	66 41 0f 6f e2       	movdqa %xmm10,%xmm4
 147:	66 0f 71 d4 08       	psrlw  $0x8,%xmm4
 14c:	66 0f 6f ca          	movdqa %xmm2,%xmm1
 150:	66 0f db e2          	pand   %xmm2,%xmm4
 154:	66 0f 6f ec          	movdqa %xmm4,%xmm5
 158:	66 41 0f 6f e1       	movdqa %xmm9,%xmm4
 15d:	66 0f 71 d4 08       	psrlw  $0x8,%xmm4
 162:	66 0f db e2          	pand   %xmm2,%xmm4
 166:	66 0f 6f d4          	movdqa %xmm4,%xmm2
 16a:	66 41 0f 6f e0       	movdqa %xmm8,%xmm4
 16f:	66 0f 71 d4 08       	psrlw  $0x8,%xmm4
 174:	66 0f db e1          	pand   %xmm1,%xmm4
 178:	66 0f 6f cc          	movdqa %xmm4,%xmm1
 17c:	66 45 0f 6f ec       	movdqa %xmm12,%xmm13
 181:	66 45 0f 6f f4       	movdqa %xmm12,%xmm14
 186:	66 0f 6f 25 00 00 00 	movdqa 0x0(%rip),%xmm4        # 18e <ScaleRowDown34_1_Box_C+0x18e>
 18d:	00 
 18e:	66 44 0f fe ec       	paddd  %xmm4,%xmm13
 193:	66 44 0f fe eb       	paddd  %xmm3,%xmm13
 198:	66 44 0f 7f 6d 80    	movdqa %xmm13,-0x80(%rbp)
 19e:	66 0f 6f dd          	movdqa %xmm5,%xmm3
 1a2:	66 44 0f 6f ed       	movdqa %xmm5,%xmm13
 1a7:	66 0f fe dc          	paddd  %xmm4,%xmm3
 1ab:	66 0f fe de          	paddd  %xmm6,%xmm3
 1af:	66 0f 7f 9d 50 ff ff 	movdqa %xmm3,-0xb0(%rbp)
 1b6:	ff 
 1b7:	66 0f 6f da          	movdqa %xmm2,%xmm3
 1bb:	66 44 0f 6f e2       	movdqa %xmm2,%xmm12
 1c0:	66 0f fe dc          	paddd  %xmm4,%xmm3
 1c4:	66 0f fe df          	paddd  %xmm7,%xmm3
 1c8:	66 0f 7f 9d 60 ff ff 	movdqa %xmm3,-0xa0(%rbp)
 1cf:	ff 
 1d0:	66 0f 6f d1          	movdqa %xmm1,%xmm2
 1d4:	66 44 0f 6f f9       	movdqa %xmm1,%xmm15
 1d9:	66 0f fe d4          	paddd  %xmm4,%xmm2
 1dd:	66 0f fe d0          	paddd  %xmm0,%xmm2
 1e1:	66 0f 7f 95 70 ff ff 	movdqa %xmm2,-0x90(%rbp)
 1e8:	ff 
 1e9:	66 41 0f 6f e3       	movdqa %xmm11,%xmm4
 1ee:	66 41 0f 6f f2       	movdqa %xmm10,%xmm6
 1f3:	66 41 0f 6f f9       	movdqa %xmm9,%xmm7
 1f8:	66 41 0f 72 d1 18    	psrld  $0x18,%xmm9
 1fe:	66 41 0f 72 d2 18    	psrld  $0x18,%xmm10
 204:	66 41 0f 72 d3 18    	psrld  $0x18,%xmm11
 20a:	66 41 0f 6f c3       	movdqa %xmm11,%xmm0
 20f:	66 41 0f fe c3       	paddd  %xmm11,%xmm0
 214:	66 41 0f fe c3       	paddd  %xmm11,%xmm0
 219:	66 41 0f 6f da       	movdqa %xmm10,%xmm3
 21e:	66 41 0f fe da       	paddd  %xmm10,%xmm3
 223:	66 41 0f fe da       	paddd  %xmm10,%xmm3
 228:	66 41 0f 6f d1       	movdqa %xmm9,%xmm2
 22d:	66 41 0f fe d1       	paddd  %xmm9,%xmm2
 232:	66 41 0f fe d1       	paddd  %xmm9,%xmm2
 237:	66 41 0f 6f e8       	movdqa %xmm8,%xmm5
 23c:	66 41 0f 72 d0 18    	psrld  $0x18,%xmm8
 242:	66 41 0f 6f c8       	movdqa %xmm8,%xmm1
 247:	66 41 0f fe c8       	paddd  %xmm8,%xmm1
 24c:	66 41 0f fe c8       	paddd  %xmm8,%xmm1
 251:	66 0f 72 d4 10       	psrld  $0x10,%xmm4
 256:	66 44 0f 6f 05 00 00 	movdqa 0x0(%rip),%xmm8        # 25f <ScaleRowDown34_1_Box_C+0x25f>
 25d:	00 00 
 25f:	66 41 0f db e0       	pand   %xmm8,%xmm4
 264:	66 0f 72 d6 10       	psrld  $0x10,%xmm6
 269:	66 41 0f db f0       	pand   %xmm8,%xmm6
 26e:	66 0f 72 d7 10       	psrld  $0x10,%xmm7
 273:	66 41 0f db f8       	pand   %xmm8,%xmm7
 278:	66 0f 72 d5 10       	psrld  $0x10,%xmm5
 27d:	66 41 0f db e8       	pand   %xmm8,%xmm5
 282:	66 45 0f 6f c8       	movdqa %xmm8,%xmm9
 287:	66 44 0f fe fd       	paddd  %xmm5,%xmm15
 28c:	66 44 0f 7f 7d 90    	movdqa %xmm15,-0x70(%rbp)
 292:	66 44 0f fe e7       	paddd  %xmm7,%xmm12
 297:	66 44 0f 7f 65 a0    	movdqa %xmm12,-0x60(%rbp)
 29d:	66 44 0f fe ee       	paddd  %xmm6,%xmm13
 2a2:	66 44 0f 7f 6d b0    	movdqa %xmm13,-0x50(%rbp)
 2a8:	66 44 0f fe f4       	paddd  %xmm4,%xmm14
 2ad:	66 44 0f 7f 75 c0    	movdqa %xmm14,-0x40(%rbp)
 2b3:	66 44 0f 6f 05 00 00 	movdqa 0x0(%rip),%xmm8        # 2bc <ScaleRowDown34_1_Box_C+0x2bc>
 2ba:	00 00 
 2bc:	66 41 0f fe e0       	paddd  %xmm8,%xmm4
 2c1:	66 0f fe e0          	paddd  %xmm0,%xmm4
 2c5:	66 0f 7f a5 40 ff ff 	movdqa %xmm4,-0xc0(%rbp)
 2cc:	ff 
 2cd:	66 41 0f fe f0       	paddd  %xmm8,%xmm6
 2d2:	66 0f fe f3          	paddd  %xmm3,%xmm6
 2d6:	66 0f 7f b5 30 ff ff 	movdqa %xmm6,-0xd0(%rbp)
 2dd:	ff 
 2de:	66 41 0f fe f8       	paddd  %xmm8,%xmm7
 2e3:	66 0f fe fa          	paddd  %xmm2,%xmm7
 2e7:	66 0f 7f bd 20 ff ff 	movdqa %xmm7,-0xe0(%rbp)
 2ee:	ff 
 2ef:	66 41 0f fe e8       	paddd  %xmm8,%xmm5
 2f4:	66 0f fe e9          	paddd  %xmm1,%xmm5
 2f8:	66 0f 7f ad 10 ff ff 	movdqa %xmm5,-0xf0(%rbp)
 2ff:	ff 
 300:	f3 45 0f 6f 54 9a 20 	movdqu 0x20(%r10,%rbx,4),%xmm10
 307:	f3 45 0f 6f 7c 9a 30 	movdqu 0x30(%r10,%rbx,4),%xmm15
 30e:	66 41 0f 6f c7       	movdqa %xmm15,%xmm0
 313:	66 41 0f db c1       	pand   %xmm9,%xmm0
 318:	66 0f 6f e0          	movdqa %xmm0,%xmm4
 31c:	66 0f fe e0          	paddd  %xmm0,%xmm4
 320:	66 0f fe e0          	paddd  %xmm0,%xmm4
 324:	66 41 0f 6f c2       	movdqa %xmm10,%xmm0
 329:	66 41 0f db c1       	pand   %xmm9,%xmm0
 32e:	66 0f 6f e8          	movdqa %xmm0,%xmm5
 332:	66 0f fe e8          	paddd  %xmm0,%xmm5
 336:	66 0f fe e8          	paddd  %xmm0,%xmm5
 33a:	f3 41 0f 6f 74 9a 10 	movdqu 0x10(%r10,%rbx,4),%xmm6
 341:	66 0f 6f c6          	movdqa %xmm6,%xmm0
 345:	66 41 0f db c1       	pand   %xmm9,%xmm0
 34a:	66 0f 6f f8          	movdqa %xmm0,%xmm7
 34e:	66 0f fe f8          	paddd  %xmm0,%xmm7
 352:	66 0f fe f8          	paddd  %xmm0,%xmm7
 356:	f3 41 0f 6f 04 9a    	movdqu (%r10,%rbx,4),%xmm0
 35c:	66 0f 6f c8          	movdqa %xmm0,%xmm1
 360:	66 44 0f 6f d8       	movdqa %xmm0,%xmm11
 365:	66 41 0f db c9       	pand   %xmm9,%xmm1
 36a:	66 0f 6f c1          	movdqa %xmm1,%xmm0
 36e:	66 0f fe c1          	paddd  %xmm1,%xmm0
 372:	66 0f fe c1          	paddd  %xmm1,%xmm0
 376:	66 41 0f 6f d7       	movdqa %xmm15,%xmm2
 37b:	66 0f 71 d2 08       	psrlw  $0x8,%xmm2
 380:	66 41 0f db d1       	pand   %xmm9,%xmm2
 385:	66 0f 6f ca          	movdqa %xmm2,%xmm1
 389:	66 41 0f 6f d8       	movdqa %xmm8,%xmm3
 38e:	66 41 0f fe c8       	paddd  %xmm8,%xmm1
 393:	66 0f fe cc          	paddd  %xmm4,%xmm1
 397:	66 45 0f 6f ea       	movdqa %xmm10,%xmm13
 39c:	66 41 0f 71 d5 08    	psrlw  $0x8,%xmm13
 3a2:	66 41 0f 6f e1       	movdqa %xmm9,%xmm4
 3a7:	66 45 0f db e9       	pand   %xmm9,%xmm13
 3ac:	66 45 0f 6f c5       	movdqa %xmm13,%xmm8
 3b1:	66 44 0f fe c3       	paddd  %xmm3,%xmm8
 3b6:	66 44 0f 6f e3       	movdqa %xmm3,%xmm12
 3bb:	66 44 0f fe c5       	paddd  %xmm5,%xmm8
 3c0:	66 44 0f 6f f6       	movdqa %xmm6,%xmm14
 3c5:	66 41 0f 71 d6 08    	psrlw  $0x8,%xmm14
 3cb:	66 45 0f db f1       	pand   %xmm9,%xmm14
 3d0:	66 45 0f 6f ce       	movdqa %xmm14,%xmm9
 3d5:	66 44 0f fe cb       	paddd  %xmm3,%xmm9
 3da:	66 44 0f fe cf       	paddd  %xmm7,%xmm9
 3df:	66 41 0f 6f fb       	movdqa %xmm11,%xmm7
 3e4:	66 41 0f 6f eb       	movdqa %xmm11,%xmm5
 3e9:	66 0f 71 d7 08       	psrlw  $0x8,%xmm7
 3ee:	66 0f db fc          	pand   %xmm4,%xmm7
 3f2:	66 0f 6f df          	movdqa %xmm7,%xmm3
 3f6:	66 41 0f fe dc       	paddd  %xmm12,%xmm3
 3fb:	66 0f fe d8          	paddd  %xmm0,%xmm3
 3ff:	66 0f 7f 5d d0       	movdqa %xmm3,-0x30(%rbp)
 404:	66 45 0f 6f df       	movdqa %xmm15,%xmm11
 409:	66 41 0f 72 d7 18    	psrld  $0x18,%xmm15
 40f:	66 41 0f 6f e7       	movdqa %xmm15,%xmm4
 414:	66 41 0f fe e7       	paddd  %xmm15,%xmm4
 419:	66 41 0f fe e7       	paddd  %xmm15,%xmm4
 41e:	66 45 0f 6f fa       	movdqa %xmm10,%xmm15
 423:	66 41 0f 72 d2 18    	psrld  $0x18,%xmm10
 429:	66 45 0f 6f e2       	movdqa %xmm10,%xmm12
 42e:	66 45 0f fe e2       	paddd  %xmm10,%xmm12
 433:	66 45 0f fe e2       	paddd  %xmm10,%xmm12
 438:	66 0f 6f c6          	movdqa %xmm6,%xmm0
 43c:	66 44 0f 6f d6       	movdqa %xmm6,%xmm10
 441:	66 0f 72 d0 18       	psrld  $0x18,%xmm0
 446:	66 0f 6f f0          	movdqa %xmm0,%xmm6
 44a:	66 0f fe f0          	paddd  %xmm0,%xmm6
 44e:	66 0f fe f0          	paddd  %xmm0,%xmm6
 452:	66 0f 6f c5          	movdqa %xmm5,%xmm0
 456:	66 0f 72 d0 18       	psrld  $0x18,%xmm0
 45b:	66 0f 6f d8          	movdqa %xmm0,%xmm3
 45f:	66 0f fe d8          	paddd  %xmm0,%xmm3
 463:	66 0f fe d8          	paddd  %xmm0,%xmm3
 467:	66 41 0f 72 d3 10    	psrld  $0x10,%xmm11
 46d:	66 44 0f db 1d 00 00 	pand   0x0(%rip),%xmm11        # 476 <ScaleRowDown34_1_Box_C+0x476>
 474:	00 00 
 476:	66 41 0f fe d3       	paddd  %xmm11,%xmm2
 47b:	66 0f 6f 05 00 00 00 	movdqa 0x0(%rip),%xmm0        # 483 <ScaleRowDown34_1_Box_C+0x483>
 482:	00 
 483:	66 44 0f fe d8       	paddd  %xmm0,%xmm11
 488:	66 44 0f fe dc       	paddd  %xmm4,%xmm11
 48d:	66 41 0f 72 d7 10    	psrld  $0x10,%xmm15
 493:	66 0f 6f 25 00 00 00 	movdqa 0x0(%rip),%xmm4        # 49b <ScaleRowDown34_1_Box_C+0x49b>
 49a:	00 
 49b:	66 44 0f db fc       	pand   %xmm4,%xmm15
 4a0:	66 45 0f fe ef       	paddd  %xmm15,%xmm13
 4a5:	66 44 0f fe f8       	paddd  %xmm0,%xmm15
 4aa:	66 45 0f fe fc       	paddd  %xmm12,%xmm15
 4af:	66 41 0f 72 d2 10    	psrld  $0x10,%xmm10
 4b5:	66 44 0f db d4       	pand   %xmm4,%xmm10
 4ba:	66 45 0f fe f2       	paddd  %xmm10,%xmm14
 4bf:	66 44 0f fe d0       	paddd  %xmm0,%xmm10
 4c4:	66 44 0f fe d6       	paddd  %xmm6,%xmm10
 4c9:	66 0f 72 d5 10       	psrld  $0x10,%xmm5
 4ce:	66 0f db ec          	pand   %xmm4,%xmm5
 4d2:	66 0f fe fd          	paddd  %xmm5,%xmm7
 4d6:	66 0f fe e8          	paddd  %xmm0,%xmm5
 4da:	66 0f fe eb          	paddd  %xmm3,%xmm5
 4de:	66 0f 6f 5d 80       	movdqa -0x80(%rbp),%xmm3
 4e3:	66 0f 72 d3 02       	psrld  $0x2,%xmm3
 4e8:	66 0f 72 d1 02       	psrld  $0x2,%xmm1
 4ed:	66 0f db dc          	pand   %xmm4,%xmm3
 4f1:	66 0f db cc          	pand   %xmm4,%xmm1
 4f5:	66 0f fe cb          	paddd  %xmm3,%xmm1
 4f9:	66 0f 6f 9d 50 ff ff 	movdqa -0xb0(%rbp),%xmm3
 500:	ff 
 501:	66 0f 72 d3 02       	psrld  $0x2,%xmm3
 506:	66 41 0f 72 d0 02    	psrld  $0x2,%xmm8
 50c:	66 0f db dc          	pand   %xmm4,%xmm3
 510:	66 44 0f db c4       	pand   %xmm4,%xmm8
 515:	66 44 0f fe c3       	paddd  %xmm3,%xmm8
 51a:	66 0f 6f 9d 60 ff ff 	movdqa -0xa0(%rbp),%xmm3
 521:	ff 
 522:	66 0f 72 d3 02       	psrld  $0x2,%xmm3
 527:	66 41 0f 72 d1 02    	psrld  $0x2,%xmm9
 52d:	66 0f db dc          	pand   %xmm4,%xmm3
 531:	66 44 0f db cc       	pand   %xmm4,%xmm9
 536:	66 44 0f fe cb       	paddd  %xmm3,%xmm9
 53b:	66 0f 6f 9d 70 ff ff 	movdqa -0x90(%rbp),%xmm3
 542:	ff 
 543:	66 0f 72 d3 02       	psrld  $0x2,%xmm3
 548:	66 0f 6f 45 d0       	movdqa -0x30(%rbp),%xmm0
 54d:	66 0f 72 d0 02       	psrld  $0x2,%xmm0
 552:	66 0f db dc          	pand   %xmm4,%xmm3
 556:	66 0f db c4          	pand   %xmm4,%xmm0
 55a:	66 0f fe c3          	paddd  %xmm3,%xmm0
 55e:	66 0f 76 db          	pcmpeqd %xmm3,%xmm3
 562:	66 0f fa cb          	psubd  %xmm3,%xmm1
 566:	66 44 0f fa c3       	psubd  %xmm3,%xmm8
 56b:	66 41 0f 72 d0 01    	psrld  $0x1,%xmm8
 571:	66 0f 72 d1 01       	psrld  $0x1,%xmm1
 576:	66 0f db cc          	pand   %xmm4,%xmm1
 57a:	66 44 0f db c4       	pand   %xmm4,%xmm8
 57f:	66 44 0f 67 c1       	packuswb %xmm1,%xmm8
 584:	66 44 0f fa cb       	psubd  %xmm3,%xmm9
 589:	66 0f fa c3          	psubd  %xmm3,%xmm0
 58d:	66 0f 72 d0 01       	psrld  $0x1,%xmm0
 592:	66 41 0f 72 d1 01    	psrld  $0x1,%xmm9
 598:	66 44 0f db cc       	pand   %xmm4,%xmm9
 59d:	66 0f db c4          	pand   %xmm4,%xmm0
 5a1:	66 41 0f 67 c1       	packuswb %xmm9,%xmm0
 5a6:	66 41 0f 67 c0       	packuswb %xmm8,%xmm0
 5ab:	66 0f 6f 4d c0       	movdqa -0x40(%rbp),%xmm1
 5b0:	66 0f fa cb          	psubd  %xmm3,%xmm1
 5b4:	66 0f 72 d1 01       	psrld  $0x1,%xmm1
 5b9:	66 0f fa d3          	psubd  %xmm3,%xmm2
 5bd:	66 0f 72 d2 01       	psrld  $0x1,%xmm2
 5c2:	66 0f db cc          	pand   %xmm4,%xmm1
 5c6:	66 0f db d4          	pand   %xmm4,%xmm2
 5ca:	66 0f fe d1          	paddd  %xmm1,%xmm2
 5ce:	66 0f 6f 4d b0       	movdqa -0x50(%rbp),%xmm1
 5d3:	66 0f fa cb          	psubd  %xmm3,%xmm1
 5d7:	66 0f 72 d1 01       	psrld  $0x1,%xmm1
 5dc:	66 44 0f fa eb       	psubd  %xmm3,%xmm13
 5e1:	66 41 0f 72 d5 01    	psrld  $0x1,%xmm13
 5e7:	66 0f db cc          	pand   %xmm4,%xmm1
 5eb:	66 44 0f db ec       	pand   %xmm4,%xmm13
 5f0:	66 44 0f fe e9       	paddd  %xmm1,%xmm13
 5f5:	66 0f 6f 4d a0       	movdqa -0x60(%rbp),%xmm1
 5fa:	66 0f fa cb          	psubd  %xmm3,%xmm1
 5fe:	66 0f 72 d1 01       	psrld  $0x1,%xmm1
 603:	66 44 0f fa f3       	psubd  %xmm3,%xmm14
 608:	66 41 0f 72 d6 01    	psrld  $0x1,%xmm14
 60e:	66 0f db cc          	pand   %xmm4,%xmm1
 612:	66 44 0f db f4       	pand   %xmm4,%xmm14
 617:	66 44 0f fe f1       	paddd  %xmm1,%xmm14
 61c:	66 0f 6f 4d 90       	movdqa -0x70(%rbp),%xmm1
 621:	66 0f fa cb          	psubd  %xmm3,%xmm1
 625:	66 0f 72 d1 01       	psrld  $0x1,%xmm1
 62a:	66 0f fa fb          	psubd  %xmm3,%xmm7
 62e:	66 0f 72 d7 01       	psrld  $0x1,%xmm7
 633:	66 0f db cc          	pand   %xmm4,%xmm1
 637:	66 0f db fc          	pand   %xmm4,%xmm7
 63b:	66 0f fe f9          	paddd  %xmm1,%xmm7
 63f:	66 0f fa d3          	psubd  %xmm3,%xmm2
 643:	66 44 0f fa eb       	psubd  %xmm3,%xmm13
 648:	66 41 0f 72 d5 01    	psrld  $0x1,%xmm13
 64e:	66 0f 72 d2 01       	psrld  $0x1,%xmm2
 653:	66 0f db d4          	pand   %xmm4,%xmm2
 657:	66 44 0f db ec       	pand   %xmm4,%xmm13
 65c:	66 44 0f 67 ea       	packuswb %xmm2,%xmm13
 661:	66 44 0f fa f3       	psubd  %xmm3,%xmm14
 666:	66 0f fa fb          	psubd  %xmm3,%xmm7
 66a:	66 0f 72 d7 01       	psrld  $0x1,%xmm7
 66f:	66 41 0f 72 d6 01    	psrld  $0x1,%xmm14
 675:	66 44 0f db f4       	pand   %xmm4,%xmm14
 67a:	66 0f db fc          	pand   %xmm4,%xmm7
 67e:	66 41 0f 67 fe       	packuswb %xmm14,%xmm7
 683:	66 41 0f 67 fd       	packuswb %xmm13,%xmm7
 688:	66 0f 6f 8d 40 ff ff 	movdqa -0xc0(%rbp),%xmm1
 68f:	ff 
 690:	66 0f 72 d1 02       	psrld  $0x2,%xmm1
 695:	66 41 0f 72 d3 02    	psrld  $0x2,%xmm11
 69b:	66 0f db cc          	pand   %xmm4,%xmm1
 69f:	66 44 0f db dc       	pand   %xmm4,%xmm11
 6a4:	66 44 0f fe d9       	paddd  %xmm1,%xmm11
 6a9:	66 0f 6f 8d 30 ff ff 	movdqa -0xd0(%rbp),%xmm1
 6b0:	ff 
 6b1:	66 0f 72 d1 02       	psrld  $0x2,%xmm1
 6b6:	66 41 0f 72 d7 02    	psrld  $0x2,%xmm15
 6bc:	66 0f db cc          	pand   %xmm4,%xmm1
 6c0:	66 44 0f db fc       	pand   %xmm4,%xmm15
 6c5:	66 44 0f fe f9       	paddd  %xmm1,%xmm15
 6ca:	66 0f 6f 8d 20 ff ff 	movdqa -0xe0(%rbp),%xmm1
 6d1:	ff 
 6d2:	66 0f 72 d1 02       	psrld  $0x2,%xmm1
 6d7:	66 41 0f 72 d2 02    	psrld  $0x2,%xmm10
 6dd:	66 0f db cc          	pand   %xmm4,%xmm1
 6e1:	66 44 0f db d4       	pand   %xmm4,%xmm10
 6e6:	66 44 0f fe d1       	paddd  %xmm1,%xmm10
 6eb:	66 0f 6f 8d 10 ff ff 	movdqa -0xf0(%rbp),%xmm1
 6f2:	ff 
 6f3:	66 0f 72 d1 02       	psrld  $0x2,%xmm1
 6f8:	66 0f 72 d5 02       	psrld  $0x2,%xmm5
 6fd:	66 0f db cc          	pand   %xmm4,%xmm1
 701:	66 0f db ec          	pand   %xmm4,%xmm5
 705:	66 0f fe e9          	paddd  %xmm1,%xmm5
 709:	66 44 0f fa db       	psubd  %xmm3,%xmm11
 70e:	66 44 0f fa fb       	psubd  %xmm3,%xmm15
 713:	66 44 0f fa d3       	psubd  %xmm3,%xmm10
 718:	66 0f fa eb          	psubd  %xmm3,%xmm5
 71c:	66 0f 72 d5 01       	psrld  $0x1,%xmm5
 721:	66 41 0f 72 d2 01    	psrld  $0x1,%xmm10
 727:	66 41 0f 72 d7 01    	psrld  $0x1,%xmm15
 72d:	66 41 0f 72 d3 01    	psrld  $0x1,%xmm11
 733:	66 44 0f db dc       	pand   %xmm4,%xmm11
 738:	66 44 0f db fc       	pand   %xmm4,%xmm15
 73d:	66 45 0f 67 fb       	packuswb %xmm11,%xmm15
 742:	66 44 0f db d4       	pand   %xmm4,%xmm10
 747:	66 0f db ec          	pand   %xmm4,%xmm5
 74b:	66 41 0f 67 ea       	packuswb %xmm10,%xmm5
 750:	66 41 0f 67 ef       	packuswb %xmm15,%xmm5
 755:	f2 0f 70 cd f6       	pshuflw $0xf6,%xmm5,%xmm1
 75a:	f3 0f 70 c9 c0       	pshufhw $0xc0,%xmm1,%xmm1
 75f:	66 0f 6f 35 00 00 00 	movdqa 0x0(%rip),%xmm6        # 767 <ScaleRowDown34_1_Box_C+0x767>
 766:	00 
 767:	66 44 0f 6f c6       	movdqa %xmm6,%xmm8
 76c:	66 0f 6f d6          	movdqa %xmm6,%xmm2
 770:	66 0f df d1          	pandn  %xmm1,%xmm2
 774:	66 0f 70 cf e6       	pshufd $0xe6,%xmm7,%xmm1
 779:	66 0f 60 c9          	punpcklbw %xmm1,%xmm1
 77d:	66 0f 70 c9 4e       	pshufd $0x4e,%xmm1,%xmm1
 782:	f2 0f 70 c9 e9       	pshuflw $0xe9,%xmm1,%xmm1
 787:	f3 0f 70 d9 94       	pshufhw $0x94,%xmm1,%xmm3
 78c:	66 0f db de          	pand   %xmm6,%xmm3
 790:	66 0f eb da          	por    %xmm2,%xmm3
 794:	66 0f 6f 35 00 00 00 	movdqa 0x0(%rip),%xmm6        # 79c <ScaleRowDown34_1_Box_C+0x79c>
 79b:	00 
 79c:	66 0f db de          	pand   %xmm6,%xmm3
 7a0:	f2 0f 70 c8 fc       	pshuflw $0xfc,%xmm0,%xmm1
 7a5:	f3 0f 70 d1 60       	pshufhw $0x60,%xmm1,%xmm2
 7aa:	66 0f 6f ce          	movdqa %xmm6,%xmm1
 7ae:	66 0f df ca          	pandn  %xmm2,%xmm1
 7b2:	66 0f eb cb          	por    %xmm3,%xmm1
 7b6:	66 0f 6f d7          	movdqa %xmm7,%xmm2
 7ba:	66 0f 60 d7          	punpcklbw %xmm7,%xmm2
 7be:	66 0f 70 d2 64       	pshufd $0x64,%xmm2,%xmm2
 7c3:	f2 0f 70 d2 94       	pshuflw $0x94,%xmm2,%xmm2
 7c8:	f3 0f 70 d2 cc       	pshufhw $0xcc,%xmm2,%xmm2
 7cd:	66 41 0f 6f d8       	movdqa %xmm8,%xmm3
 7d2:	66 0f df da          	pandn  %xmm2,%xmm3
 7d6:	66 0f 70 d0 44       	pshufd $0x44,%xmm0,%xmm2
 7db:	f2 0f 70 d2 60       	pshuflw $0x60,%xmm2,%xmm2
 7e0:	f3 0f 70 d2 a5       	pshufhw $0xa5,%xmm2,%xmm2
 7e5:	66 41 0f db d0       	pand   %xmm8,%xmm2
 7ea:	66 0f eb d3          	por    %xmm3,%xmm2
 7ee:	66 0f 70 dd 44       	pshufd $0x44,%xmm5,%xmm3
 7f3:	f2 0f 70 db c0       	pshuflw $0xc0,%xmm3,%xmm3
 7f8:	f3 0f 70 db a5       	pshufhw $0xa5,%xmm3,%xmm3
 7fd:	66 0f 6f e6          	movdqa %xmm6,%xmm4
 801:	66 0f df e3          	pandn  %xmm3,%xmm4
 805:	66 0f db d6          	pand   %xmm6,%xmm2
 809:	66 0f eb e2          	por    %xmm2,%xmm4
 80d:	66 0f 70 d0 ee       	pshufd $0xee,%xmm0,%xmm2
 812:	f2 0f 70 d2 a5       	pshuflw $0xa5,%xmm2,%xmm2
 817:	f3 0f 70 d2 fc       	pshufhw $0xfc,%xmm2,%xmm2
 81c:	66 41 0f 6f d8       	movdqa %xmm8,%xmm3
 821:	66 0f df da          	pandn  %xmm2,%xmm3
 825:	66 0f 70 c5 ee       	pshufd $0xee,%xmm5,%xmm0
 82a:	f2 0f 70 c0 a5       	pshuflw $0xa5,%xmm0,%xmm0
 82f:	f3 0f 70 c0 f6       	pshufhw $0xf6,%xmm0,%xmm0
 834:	66 41 0f db c0       	pand   %xmm8,%xmm0
 839:	66 0f eb c3          	por    %xmm3,%xmm0
 83d:	66 0f 68 ff          	punpckhbw %xmm7,%xmm7
 841:	66 0f 70 d7 e6       	pshufd $0xe6,%xmm7,%xmm2
 846:	f2 0f 70 d2 cc       	pshuflw $0xcc,%xmm2,%xmm2
 84b:	f3 0f 70 d2 e9       	pshufhw $0xe9,%xmm2,%xmm2
 850:	66 0f 6f de          	movdqa %xmm6,%xmm3
 854:	66 0f df da          	pandn  %xmm2,%xmm3
 858:	66 0f db c6          	pand   %xmm6,%xmm0
 85c:	66 0f eb d8          	por    %xmm0,%xmm3
 860:	f3 0f 7f 5a 20       	movdqu %xmm3,0x20(%rdx)
 865:	f3 0f 7f 22          	movdqu %xmm4,(%rdx)
 869:	f3 0f 7f 4a 10       	movdqu %xmm1,0x10(%rdx)
 86e:	48 83 c3 10          	add    $0x10,%rbx
 872:	48 83 c2 30          	add    $0x30,%rdx
 876:	49 39 de             	cmp    %rbx,%r14
 879:	0f 85 31 f8 ff ff    	jne    b0 <ScaleRowDown34_1_Box_C+0xb0>
 87f:	4d 39 de             	cmp    %r11,%r14
 882:	75 0e                	jne    892 <ScaleRowDown34_1_Box_C+0x892>
 884:	e9 e0 00 00 00       	jmpq   969 <ScaleRowDown34_1_Box_C+0x969>
 889:	49 89 d4             	mov    %rdx,%r12
 88c:	49 89 f8             	mov    %rdi,%r8
 88f:	4d 89 d1             	mov    %r10,%r9
 892:	31 d2                	xor    %edx,%edx
 894:	66 2e 0f 1f 84 00 00 	nopw   %cs:0x0(%rax,%rax,1)
 89b:	00 00 00 
 89e:	66 90                	xchg   %ax,%ax
 8a0:	41 0f b6 04 10       	movzbl (%r8,%rdx,1),%eax
 8a5:	8d 04 40             	lea    (%rax,%rax,2),%eax
 8a8:	41 0f b6 7c 10 01    	movzbl 0x1(%r8,%rdx,1),%edi
 8ae:	44 8d 34 07          	lea    (%rdi,%rax,1),%r14d
 8b2:	41 83 c6 02          	add    $0x2,%r14d
 8b6:	41 c1 ee 02          	shr    $0x2,%r14d
 8ba:	41 0f b6 74 10 02    	movzbl 0x2(%r8,%rdx,1),%esi
 8c0:	44 8d 1c 37          	lea    (%rdi,%rsi,1),%r11d
 8c4:	41 83 c3 01          	add    $0x1,%r11d
 8c8:	41 d1 eb             	shr    %r11d
 8cb:	41 0f b6 7c 10 03    	movzbl 0x3(%r8,%rdx,1),%edi
 8d1:	8d 3c 7f             	lea    (%rdi,%rdi,2),%edi
 8d4:	44 8d 14 3e          	lea    (%rsi,%rdi,1),%r10d
 8d8:	41 83 c2 02          	add    $0x2,%r10d
 8dc:	41 c1 ea 02          	shr    $0x2,%r10d
 8e0:	41 0f b6 34 11       	movzbl (%r9,%rdx,1),%esi
 8e5:	8d 34 76             	lea    (%rsi,%rsi,2),%esi
 8e8:	41 0f b6 7c 11 01    	movzbl 0x1(%r9,%rdx,1),%edi
 8ee:	8d 34 37             	lea    (%rdi,%rsi,1),%esi
 8f1:	83 c6 02             	add    $0x2,%esi
 8f4:	c1 ee 02             	shr    $0x2,%esi
 8f7:	41 0f b6 5c 11 02    	movzbl 0x2(%r9,%rdx,1),%ebx
 8fd:	8d 3c 1f             	lea    (%rdi,%rbx,1),%edi
 900:	83 c7 01             	add    $0x1,%edi
 903:	d1 ef                	shr    %edi
 905:	41 0f b6 44 11 03    	movzbl 0x3(%r9,%rdx,1),%eax
 90b:	8d 04 40             	lea    (%rax,%rax,2),%eax
 90e:	8d 04 03             	lea    (%rbx,%rax,1),%eax
 911:	83 c0 02             	add    $0x2,%eax
 914:	c1 e8 02             	shr    $0x2,%eax
 917:	41 0f b6 de          	movzbl %r14b,%ebx
 91b:	40 0f b6 f6          	movzbl %sil,%esi
 91f:	8d 34 33             	lea    (%rbx,%rsi,1),%esi
 922:	83 c6 01             	add    $0x1,%esi
 925:	d1 ee                	shr    %esi
 927:	41 88 34 24          	mov    %sil,(%r12)
 92b:	41 0f b6 f3          	movzbl %r11b,%esi
 92f:	40 0f b6 ff          	movzbl %dil,%edi
 933:	8d 34 3e             	lea    (%rsi,%rdi,1),%esi
 936:	83 c6 01             	add    $0x1,%esi
 939:	d1 ee                	shr    %esi
 93b:	41 88 74 24 01       	mov    %sil,0x1(%r12)
 940:	41 0f b6 f2          	movzbl %r10b,%esi
 944:	0f b6 c0             	movzbl %al,%eax
 947:	8d 04 06             	lea    (%rsi,%rax,1),%eax
 94a:	83 c0 01             	add    $0x1,%eax
 94d:	d1 e8                	shr    %eax
 94f:	41 88 44 24 02       	mov    %al,0x2(%r12)
 954:	41 83 c7 03          	add    $0x3,%r15d
 958:	48 83 c2 04          	add    $0x4,%rdx
 95c:	49 83 c4 03          	add    $0x3,%r12
 960:	41 39 cf             	cmp    %ecx,%r15d
 963:	0f 8c 37 ff ff ff    	jl     8a0 <ScaleRowDown34_1_Box_C+0x8a0>
 969:	48 83 c4 50          	add    $0x50,%rsp
 96d:	5b                   	pop    %rbx
 96e:	41 5c                	pop    %r12
 970:	41 5e                	pop    %r14
 972:	41 5f                	pop    %r15
 974:	5d                   	pop    %rbp
 975:	c3                   	retq   

Disassembly of section .text.ScaleRowDown34_1_Box_16_C:

0000000000000000 <ScaleRowDown34_1_Box_16_C>:
   0:	55                   	push   %rbp
   1:	48 89 e5             	mov    %rsp,%rbp
   4:	41 57                	push   %r15
   6:	41 56                	push   %r14
   8:	41 54                	push   %r12
   a:	53                   	push   %rbx
   b:	85 c9                	test   %ecx,%ecx
   d:	0f 8e f7 03 00 00    	jle    40a <ScaleRowDown34_1_Box_16_C+0x40a>
  13:	4c 8d 14 77          	lea    (%rdi,%rsi,2),%r10
  17:	8d 41 ff             	lea    -0x1(%rcx),%eax
  1a:	bb ab aa aa aa       	mov    $0xaaaaaaab,%ebx
  1f:	49 89 c3             	mov    %rax,%r11
  22:	4c 0f af db          	imul   %rbx,%r11
  26:	49 c1 eb 21          	shr    $0x21,%r11
  2a:	41 83 c3 01          	add    $0x1,%r11d
  2e:	45 31 ff             	xor    %r15d,%r15d
  31:	41 83 fb 04          	cmp    $0x4,%r11d
  35:	0f 82 eb 02 00 00    	jb     326 <ScaleRowDown34_1_Box_16_C+0x326>
  3b:	48 0f af c3          	imul   %rbx,%rax
  3f:	48 c1 e8 21          	shr    $0x21,%rax
  43:	48 8d 1c 40          	lea    (%rax,%rax,2),%rbx
  47:	48 8d 1c 5a          	lea    (%rdx,%rbx,2),%rbx
  4b:	48 83 c3 06          	add    $0x6,%rbx
  4f:	48 8d 34 86          	lea    (%rsi,%rax,4),%rsi
  53:	48 8d 34 77          	lea    (%rdi,%rsi,2),%rsi
  57:	48 83 c6 08          	add    $0x8,%rsi
  5b:	48 8d 04 c7          	lea    (%rdi,%rax,8),%rax
  5f:	48 83 c0 08          	add    $0x8,%rax
  63:	48 39 d6             	cmp    %rdx,%rsi
  66:	40 0f 97 c6          	seta   %sil
  6a:	49 39 da             	cmp    %rbx,%r10
  6d:	41 0f 92 c0          	setb   %r8b
  71:	48 39 d0             	cmp    %rdx,%rax
  74:	0f 97 c0             	seta   %al
  77:	48 39 fb             	cmp    %rdi,%rbx
  7a:	0f 97 c3             	seta   %bl
  7d:	44 84 c6             	test   %r8b,%sil
  80:	0f 85 a0 02 00 00    	jne    326 <ScaleRowDown34_1_Box_16_C+0x326>
  86:	20 d8                	and    %bl,%al
  88:	0f 85 98 02 00 00    	jne    326 <ScaleRowDown34_1_Box_16_C+0x326>
  8e:	45 89 de             	mov    %r11d,%r14d
  91:	41 81 e6 fc ff ff 7f 	and    $0x7ffffffc,%r14d
  98:	4b 8d 04 76          	lea    (%r14,%r14,2),%rax
  9c:	4c 8d 24 42          	lea    (%rdx,%rax,2),%r12
  a0:	4e 8d 04 f7          	lea    (%rdi,%r14,8),%r8
  a4:	4f 8d 0c f2          	lea    (%r10,%r14,8),%r9
  a8:	47 8d 3c 76          	lea    (%r14,%r14,2),%r15d
  ac:	31 db                	xor    %ebx,%ebx
  ae:	66 45 0f ef ed       	pxor   %xmm13,%xmm13
  b3:	66 44 0f 6f 15 00 00 	movdqa 0x0(%rip),%xmm10        # bc <ScaleRowDown34_1_Box_16_C+0xbc>
  ba:	00 00 
  bc:	66 45 0f 76 db       	pcmpeqd %xmm11,%xmm11
  c1:	66 44 0f 6f 25 00 00 	movdqa 0x0(%rip),%xmm12        # ca <ScaleRowDown34_1_Box_16_C+0xca>
  c8:	00 00 
  ca:	66 44 0f 6f 05 00 00 	movdqa 0x0(%rip),%xmm8        # d3 <ScaleRowDown34_1_Box_16_C+0xd3>
  d1:	00 00 
  d3:	66 44 0f 6f 0d 00 00 	movdqa 0x0(%rip),%xmm9        # dc <ScaleRowDown34_1_Box_16_C+0xdc>
  da:	00 00 
  dc:	0f 1f 40 00          	nopl   0x0(%rax)
  e0:	f3 0f 6f 0c df       	movdqu (%rdi,%rbx,8),%xmm1
  e5:	f3 0f 6f 54 df 10    	movdqu 0x10(%rdi,%rbx,8),%xmm2
  eb:	66 0f 70 da e8       	pshufd $0xe8,%xmm2,%xmm3
  f0:	f2 0f 70 eb e8       	pshuflw $0xe8,%xmm3,%xmm5
  f5:	66 0f 70 f1 e8       	pshufd $0xe8,%xmm1,%xmm6
  fa:	f2 0f 70 e6 e8       	pshuflw $0xe8,%xmm6,%xmm4
  ff:	66 0f 62 e5          	punpckldq %xmm5,%xmm4
 103:	f2 0f 70 db ed       	pshuflw $0xed,%xmm3,%xmm3
 108:	f2 0f 70 f6 ed       	pshuflw $0xed,%xmm6,%xmm6
 10d:	66 0f 62 f3          	punpckldq %xmm3,%xmm6
 111:	66 0f 70 d2 e7       	pshufd $0xe7,%xmm2,%xmm2
 116:	f2 0f 70 da e2       	pshuflw $0xe2,%xmm2,%xmm3
 11b:	66 0f 70 e9 e7       	pshufd $0xe7,%xmm1,%xmm5
 120:	f2 0f 70 cd e2       	pshuflw $0xe2,%xmm5,%xmm1
 125:	66 0f 62 cb          	punpckldq %xmm3,%xmm1
 129:	f2 0f 70 d2 e7       	pshuflw $0xe7,%xmm2,%xmm2
 12e:	f2 0f 70 fd e7       	pshuflw $0xe7,%xmm5,%xmm7
 133:	66 0f 62 fa          	punpckldq %xmm2,%xmm7
 137:	66 41 0f 61 e5       	punpcklwd %xmm13,%xmm4
 13c:	66 0f 6f d4          	movdqa %xmm4,%xmm2
 140:	66 0f fe d4          	paddd  %xmm4,%xmm2
 144:	66 41 0f 61 f5       	punpcklwd %xmm13,%xmm6
 149:	66 0f fe e6          	paddd  %xmm6,%xmm4
 14d:	66 0f fe e2          	paddd  %xmm2,%xmm4
 151:	66 41 0f fe e2       	paddd  %xmm10,%xmm4
 156:	66 0f 72 d4 02       	psrld  $0x2,%xmm4
 15b:	66 41 0f 61 cd       	punpcklwd %xmm13,%xmm1
 160:	66 0f fe f1          	paddd  %xmm1,%xmm6
 164:	66 41 0f fa f3       	psubd  %xmm11,%xmm6
 169:	66 0f 72 d6 01       	psrld  $0x1,%xmm6
 16e:	66 41 0f 61 fd       	punpcklwd %xmm13,%xmm7
 173:	66 0f 6f d7          	movdqa %xmm7,%xmm2
 177:	66 0f fe d7          	paddd  %xmm7,%xmm2
 17b:	66 0f fe f9          	paddd  %xmm1,%xmm7
 17f:	66 0f fe fa          	paddd  %xmm2,%xmm7
 183:	66 41 0f fe fa       	paddd  %xmm10,%xmm7
 188:	66 0f 72 d7 02       	psrld  $0x2,%xmm7
 18d:	f3 41 0f 6f 14 da    	movdqu (%r10,%rbx,8),%xmm2
 193:	f3 41 0f 6f 5c da 10 	movdqu 0x10(%r10,%rbx,8),%xmm3
 19a:	66 0f 70 cb e8       	pshufd $0xe8,%xmm3,%xmm1
 19f:	f2 44 0f 70 f1 e8    	pshuflw $0xe8,%xmm1,%xmm14
 1a5:	66 0f 70 c2 e8       	pshufd $0xe8,%xmm2,%xmm0
 1aa:	f2 0f 70 e8 e8       	pshuflw $0xe8,%xmm0,%xmm5
 1af:	66 41 0f 62 ee       	punpckldq %xmm14,%xmm5
 1b4:	f2 44 0f 70 f1 ed    	pshuflw $0xed,%xmm1,%xmm14
 1ba:	f2 0f 70 c8 ed       	pshuflw $0xed,%xmm0,%xmm1
 1bf:	66 41 0f 62 ce       	punpckldq %xmm14,%xmm1
 1c4:	66 0f 70 c3 e7       	pshufd $0xe7,%xmm3,%xmm0
 1c9:	f2 44 0f 70 f0 e2    	pshuflw $0xe2,%xmm0,%xmm14
 1cf:	66 0f 70 d2 e7       	pshufd $0xe7,%xmm2,%xmm2
 1d4:	f2 0f 70 da e2       	pshuflw $0xe2,%xmm2,%xmm3
 1d9:	66 41 0f 62 de       	punpckldq %xmm14,%xmm3
 1de:	f2 0f 70 c0 e7       	pshuflw $0xe7,%xmm0,%xmm0
 1e3:	f2 0f 70 d2 e7       	pshuflw $0xe7,%xmm2,%xmm2
 1e8:	66 0f 62 d0          	punpckldq %xmm0,%xmm2
 1ec:	66 41 0f 61 ed       	punpcklwd %xmm13,%xmm5
 1f1:	66 0f 6f c5          	movdqa %xmm5,%xmm0
 1f5:	66 0f fe c5          	paddd  %xmm5,%xmm0
 1f9:	66 41 0f 61 cd       	punpcklwd %xmm13,%xmm1
 1fe:	66 0f fe e9          	paddd  %xmm1,%xmm5
 202:	66 0f fe e8          	paddd  %xmm0,%xmm5
 206:	66 41 0f fe ea       	paddd  %xmm10,%xmm5
 20b:	66 0f 72 d5 02       	psrld  $0x2,%xmm5
 210:	66 41 0f 61 dd       	punpcklwd %xmm13,%xmm3
 215:	66 0f fe cb          	paddd  %xmm3,%xmm1
 219:	66 41 0f fa cb       	psubd  %xmm11,%xmm1
 21e:	66 0f 72 d1 01       	psrld  $0x1,%xmm1
 223:	66 41 0f 61 d5       	punpcklwd %xmm13,%xmm2
 228:	66 0f 6f c2          	movdqa %xmm2,%xmm0
 22c:	66 0f fe c2          	paddd  %xmm2,%xmm0
 230:	66 0f fe d3          	paddd  %xmm3,%xmm2
 234:	66 0f fe d0          	paddd  %xmm0,%xmm2
 238:	66 41 0f fe d2       	paddd  %xmm10,%xmm2
 23d:	66 0f 72 d2 02       	psrld  $0x2,%xmm2
 242:	66 41 0f db e4       	pand   %xmm12,%xmm4
 247:	66 41 0f db ec       	pand   %xmm12,%xmm5
 24c:	66 0f fe ec          	paddd  %xmm4,%xmm5
 250:	66 41 0f fa eb       	psubd  %xmm11,%xmm5
 255:	66 0f 72 d5 01       	psrld  $0x1,%xmm5
 25a:	66 41 0f db f4       	pand   %xmm12,%xmm6
 25f:	66 41 0f db cc       	pand   %xmm12,%xmm1
 264:	66 0f fe ce          	paddd  %xmm6,%xmm1
 268:	66 41 0f fa cb       	psubd  %xmm11,%xmm1
 26d:	66 0f 72 d1 01       	psrld  $0x1,%xmm1
 272:	66 41 0f db fc       	pand   %xmm12,%xmm7
 277:	66 41 0f db d4       	pand   %xmm12,%xmm2
 27c:	66 0f fe d7          	paddd  %xmm7,%xmm2
 280:	66 41 0f fa d3       	psubd  %xmm11,%xmm2
 285:	66 0f 72 d2 01       	psrld  $0x1,%xmm2
 28a:	f2 0f 70 c2 e8       	pshuflw $0xe8,%xmm2,%xmm0
 28f:	f3 0f 70 d0 e8       	pshufhw $0xe8,%xmm0,%xmm2
 294:	f2 0f 70 c9 e8       	pshuflw $0xe8,%xmm1,%xmm1
 299:	f3 0f 70 c9 e8       	pshufhw $0xe8,%xmm1,%xmm1
 29e:	66 0f 70 c9 e8       	pshufd $0xe8,%xmm1,%xmm1
 2a3:	f2 0f 70 dd e8       	pshuflw $0xe8,%xmm5,%xmm3
 2a8:	f3 0f 70 db e8       	pshufhw $0xe8,%xmm3,%xmm3
 2ad:	66 0f 70 db e8       	pshufd $0xe8,%xmm3,%xmm3
 2b2:	66 0f 6c d9          	punpcklqdq %xmm1,%xmm3
 2b6:	f3 0f 70 cb c6       	pshufhw $0xc6,%xmm3,%xmm1
 2bb:	66 0f 70 c9 6c       	pshufd $0x6c,%xmm1,%xmm1
 2c0:	f2 0f 70 c9 68       	pshuflw $0x68,%xmm1,%xmm1
 2c5:	f3 0f 70 c9 25       	pshufhw $0x25,%xmm1,%xmm1
 2ca:	66 41 0f db c8       	pand   %xmm8,%xmm1
 2cf:	66 0f 70 c0 c0       	pshufd $0xc0,%xmm0,%xmm0
 2d4:	66 41 0f 6f e0       	movdqa %xmm8,%xmm4
 2d9:	66 0f df e0          	pandn  %xmm0,%xmm4
 2dd:	66 0f eb e1          	por    %xmm1,%xmm4
 2e1:	66 0f 70 c3 e7       	pshufd $0xe7,%xmm3,%xmm0
 2e6:	f2 0f 70 c0 dc       	pshuflw $0xdc,%xmm0,%xmm0
 2eb:	66 41 0f db c1       	pand   %xmm9,%xmm0
 2f0:	66 0f 70 ca ea       	pshufd $0xea,%xmm2,%xmm1
 2f5:	66 41 0f 6f d1       	movdqa %xmm9,%xmm2
 2fa:	66 0f df d1          	pandn  %xmm1,%xmm2
 2fe:	66 0f eb d0          	por    %xmm0,%xmm2
 302:	66 0f d6 52 10       	movq   %xmm2,0x10(%rdx)
 307:	f3 0f 7f 22          	movdqu %xmm4,(%rdx)
 30b:	48 83 c3 04          	add    $0x4,%rbx
 30f:	48 83 c2 18          	add    $0x18,%rdx
 313:	49 39 de             	cmp    %rbx,%r14
 316:	0f 85 c4 fd ff ff    	jne    e0 <ScaleRowDown34_1_Box_16_C+0xe0>
 31c:	4d 39 de             	cmp    %r11,%r14
 31f:	75 0e                	jne    32f <ScaleRowDown34_1_Box_16_C+0x32f>
 321:	e9 e4 00 00 00       	jmpq   40a <ScaleRowDown34_1_Box_16_C+0x40a>
 326:	49 89 d4             	mov    %rdx,%r12
 329:	49 89 f8             	mov    %rdi,%r8
 32c:	4d 89 d1             	mov    %r10,%r9
 32f:	31 d2                	xor    %edx,%edx
 331:	66 2e 0f 1f 84 00 00 	nopw   %cs:0x0(%rax,%rax,1)
 338:	00 00 00 
 33b:	0f 1f 44 00 00       	nopl   0x0(%rax,%rax,1)
 340:	41 0f b7 04 10       	movzwl (%r8,%rdx,1),%eax
 345:	8d 04 40             	lea    (%rax,%rax,2),%eax
 348:	41 0f b7 7c 10 02    	movzwl 0x2(%r8,%rdx,1),%edi
 34e:	44 8d 34 07          	lea    (%rdi,%rax,1),%r14d
 352:	41 83 c6 02          	add    $0x2,%r14d
 356:	41 c1 ee 02          	shr    $0x2,%r14d
 35a:	41 0f b7 74 10 04    	movzwl 0x4(%r8,%rdx,1),%esi
 360:	44 8d 1c 37          	lea    (%rdi,%rsi,1),%r11d
 364:	41 83 c3 01          	add    $0x1,%r11d
 368:	41 d1 eb             	shr    %r11d
 36b:	41 0f b7 7c 10 06    	movzwl 0x6(%r8,%rdx,1),%edi
 371:	8d 3c 7f             	lea    (%rdi,%rdi,2),%edi
 374:	44 8d 14 3e          	lea    (%rsi,%rdi,1),%r10d
 378:	41 83 c2 02          	add    $0x2,%r10d
 37c:	41 c1 ea 02          	shr    $0x2,%r10d
 380:	41 0f b7 34 11       	movzwl (%r9,%rdx,1),%esi
 385:	8d 34 76             	lea    (%rsi,%rsi,2),%esi
 388:	41 0f b7 7c 11 02    	movzwl 0x2(%r9,%rdx,1),%edi
 38e:	8d 34 37             	lea    (%rdi,%rsi,1),%esi
 391:	83 c6 02             	add    $0x2,%esi
 394:	c1 ee 02             	shr    $0x2,%esi
 397:	41 0f b7 5c 11 04    	movzwl 0x4(%r9,%rdx,1),%ebx
 39d:	8d 3c 1f             	lea    (%rdi,%rbx,1),%edi
 3a0:	83 c7 01             	add    $0x1,%edi
 3a3:	d1 ef                	shr    %edi
 3a5:	41 0f b7 44 11 06    	movzwl 0x6(%r9,%rdx,1),%eax
 3ab:	8d 04 40             	lea    (%rax,%rax,2),%eax
 3ae:	8d 04 03             	lea    (%rbx,%rax,1),%eax
 3b1:	83 c0 02             	add    $0x2,%eax
 3b4:	c1 e8 02             	shr    $0x2,%eax
 3b7:	41 0f b7 de          	movzwl %r14w,%ebx
 3bb:	0f b7 f6             	movzwl %si,%esi
 3be:	8d 34 33             	lea    (%rbx,%rsi,1),%esi
 3c1:	83 c6 01             	add    $0x1,%esi
 3c4:	d1 ee                	shr    %esi
 3c6:	66 41 89 34 24       	mov    %si,(%r12)
 3cb:	41 0f b7 f3          	movzwl %r11w,%esi
 3cf:	0f b7 ff             	movzwl %di,%edi
 3d2:	8d 34 3e             	lea    (%rsi,%rdi,1),%esi
 3d5:	83 c6 01             	add    $0x1,%esi
 3d8:	d1 ee                	shr    %esi
 3da:	66 41 89 74 24 02    	mov    %si,0x2(%r12)
 3e0:	41 0f b7 f2          	movzwl %r10w,%esi
 3e4:	0f b7 c0             	movzwl %ax,%eax
 3e7:	8d 04 06             	lea    (%rsi,%rax,1),%eax
 3ea:	83 c0 01             	add    $0x1,%eax
 3ed:	d1 e8                	shr    %eax
 3ef:	66 41 89 44 24 04    	mov    %ax,0x4(%r12)
 3f5:	41 83 c7 03          	add    $0x3,%r15d
 3f9:	48 83 c2 08          	add    $0x8,%rdx
 3fd:	49 83 c4 06          	add    $0x6,%r12
 401:	41 39 cf             	cmp    %ecx,%r15d
 404:	0f 8c 36 ff ff ff    	jl     340 <ScaleRowDown34_1_Box_16_C+0x340>
 40a:	5b                   	pop    %rbx
 40b:	41 5c                	pop    %r12
 40d:	41 5e                	pop    %r14
 40f:	41 5f                	pop    %r15
 411:	5d                   	pop    %rbp
 412:	c3                   	retq   

Disassembly of section .text.ScaleCols_C:

0000000000000000 <ScaleCols_C>:
   0:	55                   	push   %rbp
   1:	48 89 e5             	mov    %rsp,%rbp
   4:	41 56                	push   %r14
   6:	53                   	push   %rbx
   7:	83 fa 02             	cmp    $0x2,%edx
   a:	0f 8c af 00 00 00    	jl     bf <ScaleCols_C+0xbf>
  10:	44 8d 52 fe          	lea    -0x2(%rdx),%r10d
  14:	41 d1 ea             	shr    %r10d
  17:	45 8d 72 01          	lea    0x1(%r10),%r14d
  1b:	45 89 f1             	mov    %r14d,%r9d
  1e:	41 83 e1 01          	and    $0x1,%r9d
  22:	45 85 d2             	test   %r10d,%r10d
  25:	74 70                	je     97 <ScaleCols_C+0x97>
  27:	45 29 ce             	sub    %r9d,%r14d
  2a:	47 8d 14 40          	lea    (%r8,%r8,2),%r10d
  2e:	47 8d 1c 00          	lea    (%r8,%r8,1),%r11d
  32:	66 2e 0f 1f 84 00 00 	nopw   %cs:0x0(%rax,%rax,1)
  39:	00 00 00 
  3c:	0f 1f 40 00          	nopl   0x0(%rax)
  40:	89 cb                	mov    %ecx,%ebx
  42:	c1 fb 10             	sar    $0x10,%ebx
  45:	48 63 db             	movslq %ebx,%rbx
  48:	0f b6 1c 1e          	movzbl (%rsi,%rbx,1),%ebx
  4c:	88 1f                	mov    %bl,(%rdi)
  4e:	42 8d 04 01          	lea    (%rcx,%r8,1),%eax
  52:	89 c3                	mov    %eax,%ebx
  54:	c1 fb 10             	sar    $0x10,%ebx
  57:	48 63 db             	movslq %ebx,%rbx
  5a:	0f b6 1c 1e          	movzbl (%rsi,%rbx,1),%ebx
  5e:	88 5f 01             	mov    %bl,0x1(%rdi)
  61:	44 01 c0             	add    %r8d,%eax
  64:	41 8d 1c 0b          	lea    (%r11,%rcx,1),%ebx
  68:	c1 fb 10             	sar    $0x10,%ebx
  6b:	48 63 db             	movslq %ebx,%rbx
  6e:	0f b6 1c 1e          	movzbl (%rsi,%rbx,1),%ebx
  72:	88 5f 02             	mov    %bl,0x2(%rdi)
  75:	44 01 c0             	add    %r8d,%eax
  78:	44 01 d1             	add    %r10d,%ecx
  7b:	c1 f9 10             	sar    $0x10,%ecx
  7e:	48 63 c9             	movslq %ecx,%rcx
  81:	0f b6 0c 0e          	movzbl (%rsi,%rcx,1),%ecx
  85:	88 4f 03             	mov    %cl,0x3(%rdi)
  88:	89 c1                	mov    %eax,%ecx
  8a:	44 01 c1             	add    %r8d,%ecx
  8d:	48 83 c7 04          	add    $0x4,%rdi
  91:	41 83 c6 fe          	add    $0xfffffffe,%r14d
  95:	75 a9                	jne    40 <ScaleCols_C+0x40>
  97:	45 85 c9             	test   %r9d,%r9d
  9a:	74 23                	je     bf <ScaleCols_C+0xbf>
  9c:	89 c8                	mov    %ecx,%eax
  9e:	c1 f8 10             	sar    $0x10,%eax
  a1:	48 98                	cltq   
  a3:	8a 04 06             	mov    (%rsi,%rax,1),%al
  a6:	88 07                	mov    %al,(%rdi)
  a8:	44 01 c1             	add    %r8d,%ecx
  ab:	89 c8                	mov    %ecx,%eax
  ad:	c1 f8 10             	sar    $0x10,%eax
  b0:	48 98                	cltq   
  b2:	8a 04 06             	mov    (%rsi,%rax,1),%al
  b5:	88 47 01             	mov    %al,0x1(%rdi)
  b8:	48 83 c7 02          	add    $0x2,%rdi
  bc:	44 01 c1             	add    %r8d,%ecx
  bf:	f6 c2 01             	test   $0x1,%dl
  c2:	74 0b                	je     cf <ScaleCols_C+0xcf>
  c4:	c1 f9 10             	sar    $0x10,%ecx
  c7:	48 63 c1             	movslq %ecx,%rax
  ca:	8a 04 06             	mov    (%rsi,%rax,1),%al
  cd:	88 07                	mov    %al,(%rdi)
  cf:	5b                   	pop    %rbx
  d0:	41 5e                	pop    %r14
  d2:	5d                   	pop    %rbp
  d3:	c3                   	retq   

Disassembly of section .text.ScaleCols_16_C:

0000000000000000 <ScaleCols_16_C>:
   0:	55                   	push   %rbp
   1:	48 89 e5             	mov    %rsp,%rbp
   4:	41 56                	push   %r14
   6:	53                   	push   %rbx
   7:	83 fa 02             	cmp    $0x2,%edx
   a:	0f 8c b7 00 00 00    	jl     c7 <ScaleCols_16_C+0xc7>
  10:	44 8d 52 fe          	lea    -0x2(%rdx),%r10d
  14:	41 d1 ea             	shr    %r10d
  17:	45 8d 72 01          	lea    0x1(%r10),%r14d
  1b:	45 89 f1             	mov    %r14d,%r9d
  1e:	41 83 e1 01          	and    $0x1,%r9d
  22:	45 85 d2             	test   %r10d,%r10d
  25:	74 74                	je     9b <ScaleCols_16_C+0x9b>
  27:	45 29 ce             	sub    %r9d,%r14d
  2a:	47 8d 14 40          	lea    (%r8,%r8,2),%r10d
  2e:	47 8d 1c 00          	lea    (%r8,%r8,1),%r11d
  32:	66 2e 0f 1f 84 00 00 	nopw   %cs:0x0(%rax,%rax,1)
  39:	00 00 00 
  3c:	0f 1f 40 00          	nopl   0x0(%rax)
  40:	89 cb                	mov    %ecx,%ebx
  42:	c1 fb 10             	sar    $0x10,%ebx
  45:	48 63 db             	movslq %ebx,%rbx
  48:	0f b7 1c 5e          	movzwl (%rsi,%rbx,2),%ebx
  4c:	66 89 1f             	mov    %bx,(%rdi)
  4f:	42 8d 04 01          	lea    (%rcx,%r8,1),%eax
  53:	89 c3                	mov    %eax,%ebx
  55:	c1 fb 10             	sar    $0x10,%ebx
  58:	48 63 db             	movslq %ebx,%rbx
  5b:	0f b7 1c 5e          	movzwl (%rsi,%rbx,2),%ebx
  5f:	66 89 5f 02          	mov    %bx,0x2(%rdi)
  63:	44 01 c0             	add    %r8d,%eax
  66:	41 8d 1c 0b          	lea    (%r11,%rcx,1),%ebx
  6a:	c1 fb 10             	sar    $0x10,%ebx
  6d:	48 63 db             	movslq %ebx,%rbx
  70:	0f b7 1c 5e          	movzwl (%rsi,%rbx,2),%ebx
  74:	66 89 5f 04          	mov    %bx,0x4(%rdi)
  78:	44 01 c0             	add    %r8d,%eax
  7b:	44 01 d1             	add    %r10d,%ecx
  7e:	c1 f9 10             	sar    $0x10,%ecx
  81:	48 63 c9             	movslq %ecx,%rcx
  84:	0f b7 0c 4e          	movzwl (%rsi,%rcx,2),%ecx
  88:	66 89 4f 06          	mov    %cx,0x6(%rdi)
  8c:	89 c1                	mov    %eax,%ecx
  8e:	44 01 c1             	add    %r8d,%ecx
  91:	48 83 c7 08          	add    $0x8,%rdi
  95:	41 83 c6 fe          	add    $0xfffffffe,%r14d
  99:	75 a5                	jne    40 <ScaleCols_16_C+0x40>
  9b:	45 85 c9             	test   %r9d,%r9d
  9e:	74 27                	je     c7 <ScaleCols_16_C+0xc7>
  a0:	89 c8                	mov    %ecx,%eax
  a2:	c1 f8 10             	sar    $0x10,%eax
  a5:	48 98                	cltq   
  a7:	0f b7 04 46          	movzwl (%rsi,%rax,2),%eax
  ab:	66 89 07             	mov    %ax,(%rdi)
  ae:	44 01 c1             	add    %r8d,%ecx
  b1:	89 c8                	mov    %ecx,%eax
  b3:	c1 f8 10             	sar    $0x10,%eax
  b6:	48 98                	cltq   
  b8:	0f b7 04 46          	movzwl (%rsi,%rax,2),%eax
  bc:	66 89 47 02          	mov    %ax,0x2(%rdi)
  c0:	48 83 c7 04          	add    $0x4,%rdi
  c4:	44 01 c1             	add    %r8d,%ecx
  c7:	f6 c2 01             	test   $0x1,%dl
  ca:	74 0d                	je     d9 <ScaleCols_16_C+0xd9>
  cc:	c1 f9 10             	sar    $0x10,%ecx
  cf:	48 63 c1             	movslq %ecx,%rax
  d2:	0f b7 04 46          	movzwl (%rsi,%rax,2),%eax
  d6:	66 89 07             	mov    %ax,(%rdi)
  d9:	5b                   	pop    %rbx
  da:	41 5e                	pop    %r14
  dc:	5d                   	pop    %rbp
  dd:	c3                   	retq   

Disassembly of section .text.ScaleColsUp2_C:

0000000000000000 <ScaleColsUp2_C>:
   0:	55                   	push   %rbp
   1:	48 89 e5             	mov    %rsp,%rbp
   4:	41 89 d1             	mov    %edx,%r9d
   7:	41 83 c1 ff          	add    $0xffffffff,%r9d
   b:	0f 8e 57 01 00 00    	jle    168 <ScaleColsUp2_C+0x168>
  11:	44 8d 52 fe          	lea    -0x2(%rdx),%r10d
  15:	41 d1 ea             	shr    %r10d
  18:	45 8d 42 01          	lea    0x1(%r10),%r8d
  1c:	31 c9                	xor    %ecx,%ecx
  1e:	41 83 f8 10          	cmp    $0x10,%r8d
  22:	0f 82 28 01 00 00    	jb     150 <ScaleColsUp2_C+0x150>
  28:	49 8d 04 32          	lea    (%r10,%rsi,1),%rax
  2c:	48 83 c0 01          	add    $0x1,%rax
  30:	48 39 f8             	cmp    %rdi,%rax
  33:	76 11                	jbe    46 <ScaleColsUp2_C+0x46>
  35:	4a 8d 04 57          	lea    (%rdi,%r10,2),%rax
  39:	48 83 c0 02          	add    $0x2,%rax
  3d:	48 39 f0             	cmp    %rsi,%rax
  40:	0f 87 0a 01 00 00    	ja     150 <ScaleColsUp2_C+0x150>
  46:	44 89 c1             	mov    %r8d,%ecx
  49:	83 e1 f0             	and    $0xfffffff0,%ecx
  4c:	4c 8d 59 f0          	lea    -0x10(%rcx),%r11
  50:	4c 89 d8             	mov    %r11,%rax
  53:	48 c1 e8 04          	shr    $0x4,%rax
  57:	48 83 c0 01          	add    $0x1,%rax
  5b:	41 89 c2             	mov    %eax,%r10d
  5e:	41 83 e2 03          	and    $0x3,%r10d
  62:	49 83 fb 30          	cmp    $0x30,%r11
  66:	73 10                	jae    78 <ScaleColsUp2_C+0x78>
  68:	31 c0                	xor    %eax,%eax
  6a:	4d 85 d2             	test   %r10,%r10
  6d:	0f 85 92 00 00 00    	jne    105 <ScaleColsUp2_C+0x105>
  73:	e9 bd 00 00 00       	jmpq   135 <ScaleColsUp2_C+0x135>
  78:	4d 89 d3             	mov    %r10,%r11
  7b:	49 29 c3             	sub    %rax,%r11
  7e:	31 c0                	xor    %eax,%eax
  80:	f3 0f 6f 04 06       	movdqu (%rsi,%rax,1),%xmm0
  85:	66 0f 6f c8          	movdqa %xmm0,%xmm1
  89:	66 0f 60 c8          	punpcklbw %xmm0,%xmm1
  8d:	66 0f 68 c0          	punpckhbw %xmm0,%xmm0
  91:	f3 0f 7f 44 47 10    	movdqu %xmm0,0x10(%rdi,%rax,2)
  97:	f3 0f 7f 0c 47       	movdqu %xmm1,(%rdi,%rax,2)
  9c:	f3 0f 6f 44 06 10    	movdqu 0x10(%rsi,%rax,1),%xmm0
  a2:	66 0f 6f c8          	movdqa %xmm0,%xmm1
  a6:	66 0f 60 c8          	punpcklbw %xmm0,%xmm1
  aa:	66 0f 68 c0          	punpckhbw %xmm0,%xmm0
  ae:	f3 0f 7f 44 47 30    	movdqu %xmm0,0x30(%rdi,%rax,2)
  b4:	f3 0f 7f 4c 47 20    	movdqu %xmm1,0x20(%rdi,%rax,2)
  ba:	f3 0f 6f 44 06 20    	movdqu 0x20(%rsi,%rax,1),%xmm0
  c0:	66 0f 6f c8          	movdqa %xmm0,%xmm1
  c4:	66 0f 60 c8          	punpcklbw %xmm0,%xmm1
  c8:	66 0f 68 c0          	punpckhbw %xmm0,%xmm0
  cc:	f3 0f 7f 44 47 50    	movdqu %xmm0,0x50(%rdi,%rax,2)
  d2:	f3 0f 7f 4c 47 40    	movdqu %xmm1,0x40(%rdi,%rax,2)
  d8:	f3 0f 6f 44 06 30    	movdqu 0x30(%rsi,%rax,1),%xmm0
  de:	66 0f 6f c8          	movdqa %xmm0,%xmm1
  e2:	66 0f 60 c8          	punpcklbw %xmm0,%xmm1
  e6:	66 0f 68 c0          	punpckhbw %xmm0,%xmm0
  ea:	f3 0f 7f 44 47 70    	movdqu %xmm0,0x70(%rdi,%rax,2)
  f0:	f3 0f 7f 4c 47 60    	movdqu %xmm1,0x60(%rdi,%rax,2)
  f6:	48 83 c0 40          	add    $0x40,%rax
  fa:	49 83 c3 04          	add    $0x4,%r11
  fe:	75 80                	jne    80 <ScaleColsUp2_C+0x80>
 100:	4d 85 d2             	test   %r10,%r10
 103:	74 30                	je     135 <ScaleColsUp2_C+0x135>
 105:	49 f7 da             	neg    %r10
 108:	0f 1f 84 00 00 00 00 	nopl   0x0(%rax,%rax,1)
 10f:	00 
 110:	f3 0f 6f 04 06       	movdqu (%rsi,%rax,1),%xmm0
 115:	66 0f 6f c8          	movdqa %xmm0,%xmm1
 119:	66 0f 60 c8          	punpcklbw %xmm0,%xmm1
 11d:	66 0f 68 c0          	punpckhbw %xmm0,%xmm0
 121:	f3 0f 7f 44 47 10    	movdqu %xmm0,0x10(%rdi,%rax,2)
 127:	f3 0f 7f 0c 47       	movdqu %xmm1,(%rdi,%rax,2)
 12c:	48 83 c0 10          	add    $0x10,%rax
 130:	49 ff c2             	inc    %r10
 133:	75 db                	jne    110 <ScaleColsUp2_C+0x110>
 135:	48 8d 3c 4f          	lea    (%rdi,%rcx,2),%rdi
 139:	48 01 ce             	add    %rcx,%rsi
 13c:	4c 39 c1             	cmp    %r8,%rcx
 13f:	74 27                	je     168 <ScaleColsUp2_C+0x168>
 141:	01 c9                	add    %ecx,%ecx
 143:	66 2e 0f 1f 84 00 00 	nopw   %cs:0x0(%rax,%rax,1)
 14a:	00 00 00 
 14d:	0f 1f 00             	nopl   (%rax)
 150:	0f b6 06             	movzbl (%rsi),%eax
 153:	88 07                	mov    %al,(%rdi)
 155:	88 47 01             	mov    %al,0x1(%rdi)
 158:	48 83 c6 01          	add    $0x1,%rsi
 15c:	48 83 c7 02          	add    $0x2,%rdi
 160:	83 c1 02             	add    $0x2,%ecx
 163:	44 39 c9             	cmp    %r9d,%ecx
 166:	7c e8                	jl     150 <ScaleColsUp2_C+0x150>
 168:	f6 c2 01             	test   $0x1,%dl
 16b:	74 04                	je     171 <ScaleColsUp2_C+0x171>
 16d:	8a 06                	mov    (%rsi),%al
 16f:	88 07                	mov    %al,(%rdi)
 171:	5d                   	pop    %rbp
 172:	c3                   	retq   

Disassembly of section .text.ScaleColsUp2_16_C:

0000000000000000 <ScaleColsUp2_16_C>:
   0:	55                   	push   %rbp
   1:	48 89 e5             	mov    %rsp,%rbp
   4:	41 89 d1             	mov    %edx,%r9d
   7:	41 83 c1 ff          	add    $0xffffffff,%r9d
   b:	0f 8e 59 01 00 00    	jle    16a <ScaleColsUp2_16_C+0x16a>
  11:	44 8d 52 fe          	lea    -0x2(%rdx),%r10d
  15:	41 d1 ea             	shr    %r10d
  18:	45 8d 42 01          	lea    0x1(%r10),%r8d
  1c:	31 c9                	xor    %ecx,%ecx
  1e:	41 83 f8 08          	cmp    $0x8,%r8d
  22:	0f 82 28 01 00 00    	jb     150 <ScaleColsUp2_16_C+0x150>
  28:	4a 8d 04 56          	lea    (%rsi,%r10,2),%rax
  2c:	48 83 c0 02          	add    $0x2,%rax
  30:	48 39 f8             	cmp    %rdi,%rax
  33:	76 11                	jbe    46 <ScaleColsUp2_16_C+0x46>
  35:	4a 8d 04 97          	lea    (%rdi,%r10,4),%rax
  39:	48 83 c0 04          	add    $0x4,%rax
  3d:	48 39 f0             	cmp    %rsi,%rax
  40:	0f 87 0a 01 00 00    	ja     150 <ScaleColsUp2_16_C+0x150>
  46:	44 89 c1             	mov    %r8d,%ecx
  49:	83 e1 f8             	and    $0xfffffff8,%ecx
  4c:	4c 8d 59 f8          	lea    -0x8(%rcx),%r11
  50:	4c 89 d8             	mov    %r11,%rax
  53:	48 c1 e8 03          	shr    $0x3,%rax
  57:	48 83 c0 01          	add    $0x1,%rax
  5b:	41 89 c2             	mov    %eax,%r10d
  5e:	41 83 e2 03          	and    $0x3,%r10d
  62:	49 83 fb 18          	cmp    $0x18,%r11
  66:	73 10                	jae    78 <ScaleColsUp2_16_C+0x78>
  68:	31 c0                	xor    %eax,%eax
  6a:	4d 85 d2             	test   %r10,%r10
  6d:	0f 85 92 00 00 00    	jne    105 <ScaleColsUp2_16_C+0x105>
  73:	e9 bd 00 00 00       	jmpq   135 <ScaleColsUp2_16_C+0x135>
  78:	4d 89 d3             	mov    %r10,%r11
  7b:	49 29 c3             	sub    %rax,%r11
  7e:	31 c0                	xor    %eax,%eax
  80:	f3 0f 6f 04 46       	movdqu (%rsi,%rax,2),%xmm0
  85:	66 0f 6f c8          	movdqa %xmm0,%xmm1
  89:	66 0f 61 c8          	punpcklwd %xmm0,%xmm1
  8d:	66 0f 69 c0          	punpckhwd %xmm0,%xmm0
  91:	f3 0f 7f 44 87 10    	movdqu %xmm0,0x10(%rdi,%rax,4)
  97:	f3 0f 7f 0c 87       	movdqu %xmm1,(%rdi,%rax,4)
  9c:	f3 0f 6f 44 46 10    	movdqu 0x10(%rsi,%rax,2),%xmm0
  a2:	66 0f 6f c8          	movdqa %xmm0,%xmm1
  a6:	66 0f 61 c8          	punpcklwd %xmm0,%xmm1
  aa:	66 0f 69 c0          	punpckhwd %xmm0,%xmm0
  ae:	f3 0f 7f 44 87 30    	movdqu %xmm0,0x30(%rdi,%rax,4)
  b4:	f3 0f 7f 4c 87 20    	movdqu %xmm1,0x20(%rdi,%rax,4)
  ba:	f3 0f 6f 44 46 20    	movdqu 0x20(%rsi,%rax,2),%xmm0
  c0:	66 0f 6f c8          	movdqa %xmm0,%xmm1
  c4:	66 0f 61 c8          	punpcklwd %xmm0,%xmm1
  c8:	66 0f 69 c0          	punpckhwd %xmm0,%xmm0
  cc:	f3 0f 7f 44 87 50    	movdqu %xmm0,0x50(%rdi,%rax,4)
  d2:	f3 0f 7f 4c 87 40    	movdqu %xmm1,0x40(%rdi,%rax,4)
  d8:	f3 0f 6f 44 46 30    	movdqu 0x30(%rsi,%rax,2),%xmm0
  de:	66 0f 6f c8          	movdqa %xmm0,%xmm1
  e2:	66 0f 61 c8          	punpcklwd %xmm0,%xmm1
  e6:	66 0f 69 c0          	punpckhwd %xmm0,%xmm0
  ea:	f3 0f 7f 44 87 70    	movdqu %xmm0,0x70(%rdi,%rax,4)
  f0:	f3 0f 7f 4c 87 60    	movdqu %xmm1,0x60(%rdi,%rax,4)
  f6:	48 83 c0 20          	add    $0x20,%rax
  fa:	49 83 c3 04          	add    $0x4,%r11
  fe:	75 80                	jne    80 <ScaleColsUp2_16_C+0x80>
 100:	4d 85 d2             	test   %r10,%r10
 103:	74 30                	je     135 <ScaleColsUp2_16_C+0x135>
 105:	48 01 c0             	add    %rax,%rax
 108:	49 f7 da             	neg    %r10
 10b:	0f 1f 44 00 00       	nopl   0x0(%rax,%rax,1)
 110:	f3 0f 6f 04 06       	movdqu (%rsi,%rax,1),%xmm0
 115:	66 0f 6f c8          	movdqa %xmm0,%xmm1
 119:	66 0f 61 c8          	punpcklwd %xmm0,%xmm1
 11d:	66 0f 69 c0          	punpckhwd %xmm0,%xmm0
 121:	f3 0f 7f 44 47 10    	movdqu %xmm0,0x10(%rdi,%rax,2)
 127:	f3 0f 7f 0c 47       	movdqu %xmm1,(%rdi,%rax,2)
 12c:	48 83 c0 10          	add    $0x10,%rax
 130:	49 ff c2             	inc    %r10
 133:	75 db                	jne    110 <ScaleColsUp2_16_C+0x110>
 135:	48 8d 3c 8f          	lea    (%rdi,%rcx,4),%rdi
 139:	48 8d 34 4e          	lea    (%rsi,%rcx,2),%rsi
 13d:	4c 39 c1             	cmp    %r8,%rcx
 140:	74 28                	je     16a <ScaleColsUp2_16_C+0x16a>
 142:	01 c9                	add    %ecx,%ecx
 144:	66 2e 0f 1f 84 00 00 	nopw   %cs:0x0(%rax,%rax,1)
 14b:	00 00 00 
 14e:	66 90                	xchg   %ax,%ax
 150:	0f b7 06             	movzwl (%rsi),%eax
 153:	66 89 07             	mov    %ax,(%rdi)
 156:	66 89 47 02          	mov    %ax,0x2(%rdi)
 15a:	48 83 c6 02          	add    $0x2,%rsi
 15e:	48 83 c7 04          	add    $0x4,%rdi
 162:	83 c1 02             	add    $0x2,%ecx
 165:	44 39 c9             	cmp    %r9d,%ecx
 168:	7c e6                	jl     150 <ScaleColsUp2_16_C+0x150>
 16a:	f6 c2 01             	test   $0x1,%dl
 16d:	74 06                	je     175 <ScaleColsUp2_16_C+0x175>
 16f:	0f b7 06             	movzwl (%rsi),%eax
 172:	66 89 07             	mov    %ax,(%rdi)
 175:	5d                   	pop    %rbp
 176:	c3                   	retq   

Disassembly of section .text.ScaleFilterCols_C:

0000000000000000 <ScaleFilterCols_C>:
   0:	55                   	push   %rbp
   1:	48 89 e5             	mov    %rsp,%rbp
   4:	53                   	push   %rbx
   5:	41 89 d1             	mov    %edx,%r9d
   8:	41 83 c1 ff          	add    $0xffffffff,%r9d
   c:	7e 7d                	jle    8b <ScaleFilterCols_C+0x8b>
   e:	45 31 d2             	xor    %r10d,%r10d
  11:	66 2e 0f 1f 84 00 00 	nopw   %cs:0x0(%rax,%rax,1)
  18:	00 00 00 
  1b:	0f 1f 44 00 00       	nopl   0x0(%rax,%rax,1)
  20:	89 c8                	mov    %ecx,%eax
  22:	c1 f8 10             	sar    $0x10,%eax
  25:	48 98                	cltq   
  27:	44 0f b6 1c 06       	movzbl (%rsi,%rax,1),%r11d
  2c:	0f b6 44 06 01       	movzbl 0x1(%rsi,%rax,1),%eax
  31:	89 cb                	mov    %ecx,%ebx
  33:	c1 eb 09             	shr    $0x9,%ebx
  36:	83 e3 7f             	and    $0x7f,%ebx
  39:	44 29 d8             	sub    %r11d,%eax
  3c:	0f af c3             	imul   %ebx,%eax
  3f:	83 c0 40             	add    $0x40,%eax
  42:	c1 e8 07             	shr    $0x7,%eax
  45:	44 00 d8             	add    %r11b,%al
  48:	42 88 04 17          	mov    %al,(%rdi,%r10,1)
  4c:	44 01 c1             	add    %r8d,%ecx
  4f:	89 c8                	mov    %ecx,%eax
  51:	c1 f8 10             	sar    $0x10,%eax
  54:	48 98                	cltq   
  56:	44 0f b6 1c 06       	movzbl (%rsi,%rax,1),%r11d
  5b:	0f b6 44 06 01       	movzbl 0x1(%rsi,%rax,1),%eax
  60:	89 cb                	mov    %ecx,%ebx
  62:	c1 eb 09             	shr    $0x9,%ebx
  65:	83 e3 7f             	and    $0x7f,%ebx
  68:	44 29 d8             	sub    %r11d,%eax
  6b:	0f af c3             	imul   %ebx,%eax
  6e:	83 c0 40             	add    $0x40,%eax
  71:	c1 e8 07             	shr    $0x7,%eax
  74:	44 00 d8             	add    %r11b,%al
  77:	42 88 44 17 01       	mov    %al,0x1(%rdi,%r10,1)
  7c:	44 01 c1             	add    %r8d,%ecx
  7f:	49 83 c2 02          	add    $0x2,%r10
  83:	45 39 ca             	cmp    %r9d,%r10d
  86:	7c 98                	jl     20 <ScaleFilterCols_C+0x20>
  88:	4c 01 d7             	add    %r10,%rdi
  8b:	f6 c2 01             	test   $0x1,%dl
  8e:	74 25                	je     b5 <ScaleFilterCols_C+0xb5>
  90:	89 c8                	mov    %ecx,%eax
  92:	c1 f8 10             	sar    $0x10,%eax
  95:	48 98                	cltq   
  97:	0f b6 14 06          	movzbl (%rsi,%rax,1),%edx
  9b:	0f b6 44 06 01       	movzbl 0x1(%rsi,%rax,1),%eax
  a0:	c1 e9 09             	shr    $0x9,%ecx
  a3:	83 e1 7f             	and    $0x7f,%ecx
  a6:	29 d0                	sub    %edx,%eax
  a8:	0f af c1             	imul   %ecx,%eax
  ab:	83 c0 40             	add    $0x40,%eax
  ae:	c1 e8 07             	shr    $0x7,%eax
  b1:	00 d0                	add    %dl,%al
  b3:	88 07                	mov    %al,(%rdi)
  b5:	5b                   	pop    %rbx
  b6:	5d                   	pop    %rbp
  b7:	c3                   	retq   

Disassembly of section .text.ScaleFilterCols64_C:

0000000000000000 <ScaleFilterCols64_C>:
   0:	55                   	push   %rbp
   1:	48 89 e5             	mov    %rsp,%rbp
   4:	53                   	push   %rbx
   5:	48 63 c9             	movslq %ecx,%rcx
   8:	41 89 d1             	mov    %edx,%r9d
   b:	41 83 c1 ff          	add    $0xffffffff,%r9d
   f:	7e 7a                	jle    8b <ScaleFilterCols64_C+0x8b>
  11:	4d 63 c0             	movslq %r8d,%r8
  14:	45 31 d2             	xor    %r10d,%r10d
  17:	66 0f 1f 84 00 00 00 	nopw   0x0(%rax,%rax,1)
  1e:	00 00 
  20:	48 89 c8             	mov    %rcx,%rax
  23:	48 c1 f8 10          	sar    $0x10,%rax
  27:	44 0f b6 1c 06       	movzbl (%rsi,%rax,1),%r11d
  2c:	0f b6 44 06 01       	movzbl 0x1(%rsi,%rax,1),%eax
  31:	89 cb                	mov    %ecx,%ebx
  33:	c1 eb 09             	shr    $0x9,%ebx
  36:	83 e3 7f             	and    $0x7f,%ebx
  39:	44 29 d8             	sub    %r11d,%eax
  3c:	0f af c3             	imul   %ebx,%eax
  3f:	83 c0 40             	add    $0x40,%eax
  42:	c1 e8 07             	shr    $0x7,%eax
  45:	44 00 d8             	add    %r11b,%al
  48:	42 88 04 17          	mov    %al,(%rdi,%r10,1)
  4c:	4c 01 c1             	add    %r8,%rcx
  4f:	48 89 c8             	mov    %rcx,%rax
  52:	48 c1 f8 10          	sar    $0x10,%rax
  56:	44 0f b6 1c 06       	movzbl (%rsi,%rax,1),%r11d
  5b:	0f b6 44 06 01       	movzbl 0x1(%rsi,%rax,1),%eax
  60:	89 cb                	mov    %ecx,%ebx
  62:	c1 eb 09             	shr    $0x9,%ebx
  65:	83 e3 7f             	and    $0x7f,%ebx
  68:	44 29 d8             	sub    %r11d,%eax
  6b:	0f af c3             	imul   %ebx,%eax
  6e:	83 c0 40             	add    $0x40,%eax
  71:	c1 e8 07             	shr    $0x7,%eax
  74:	44 00 d8             	add    %r11b,%al
  77:	42 88 44 17 01       	mov    %al,0x1(%rdi,%r10,1)
  7c:	4c 01 c1             	add    %r8,%rcx
  7f:	49 83 c2 02          	add    $0x2,%r10
  83:	45 39 ca             	cmp    %r9d,%r10d
  86:	7c 98                	jl     20 <ScaleFilterCols64_C+0x20>
  88:	4c 01 d7             	add    %r10,%rdi
  8b:	f6 c2 01             	test   $0x1,%dl
  8e:	74 25                	je     b5 <ScaleFilterCols64_C+0xb5>
  90:	48 89 c8             	mov    %rcx,%rax
  93:	48 c1 f8 10          	sar    $0x10,%rax
  97:	0f b6 14 06          	movzbl (%rsi,%rax,1),%edx
  9b:	0f b6 44 06 01       	movzbl 0x1(%rsi,%rax,1),%eax
  a0:	c1 e9 09             	shr    $0x9,%ecx
  a3:	83 e1 7f             	and    $0x7f,%ecx
  a6:	29 d0                	sub    %edx,%eax
  a8:	0f af c1             	imul   %ecx,%eax
  ab:	83 c0 40             	add    $0x40,%eax
  ae:	c1 e8 07             	shr    $0x7,%eax
  b1:	00 d0                	add    %dl,%al
  b3:	88 07                	mov    %al,(%rdi)
  b5:	5b                   	pop    %rbx
  b6:	5d                   	pop    %rbp
  b7:	c3                   	retq   

Disassembly of section .text.ScaleFilterCols_16_C:

0000000000000000 <ScaleFilterCols_16_C>:
   0:	55                   	push   %rbp
   1:	48 89 e5             	mov    %rsp,%rbp
   4:	53                   	push   %rbx
   5:	41 89 d1             	mov    %edx,%r9d
   8:	41 83 c1 ff          	add    $0xffffffff,%r9d
   c:	7e 75                	jle    83 <ScaleFilterCols_16_C+0x83>
   e:	45 31 d2             	xor    %r10d,%r10d
  11:	66 2e 0f 1f 84 00 00 	nopw   %cs:0x0(%rax,%rax,1)
  18:	00 00 00 
  1b:	0f 1f 44 00 00       	nopl   0x0(%rax,%rax,1)
  20:	89 c8                	mov    %ecx,%eax
  22:	c1 f8 10             	sar    $0x10,%eax
  25:	48 98                	cltq   
  27:	44 0f b7 1c 46       	movzwl (%rsi,%rax,2),%r11d
  2c:	0f b7 44 46 02       	movzwl 0x2(%rsi,%rax,2),%eax
  31:	0f b7 d9             	movzwl %cx,%ebx
  34:	44 29 d8             	sub    %r11d,%eax
  37:	0f af c3             	imul   %ebx,%eax
  3a:	05 00 80 00 00       	add    $0x8000,%eax
  3f:	c1 e8 10             	shr    $0x10,%eax
  42:	44 01 d8             	add    %r11d,%eax
  45:	66 89 07             	mov    %ax,(%rdi)
  48:	44 01 c1             	add    %r8d,%ecx
  4b:	89 c8                	mov    %ecx,%eax
  4d:	c1 f8 10             	sar    $0x10,%eax
  50:	48 98                	cltq   
  52:	0f b7 1c 46          	movzwl (%rsi,%rax,2),%ebx
  56:	0f b7 44 46 02       	movzwl 0x2(%rsi,%rax,2),%eax
  5b:	44 0f b7 d9          	movzwl %cx,%r11d
  5f:	29 d8                	sub    %ebx,%eax
  61:	41 0f af c3          	imul   %r11d,%eax
  65:	05 00 80 00 00       	add    $0x8000,%eax
  6a:	c1 e8 10             	shr    $0x10,%eax
  6d:	01 d8                	add    %ebx,%eax
  6f:	66 89 47 02          	mov    %ax,0x2(%rdi)
  73:	44 01 c1             	add    %r8d,%ecx
  76:	48 83 c7 04          	add    $0x4,%rdi
  7a:	41 83 c2 02          	add    $0x2,%r10d
  7e:	45 39 ca             	cmp    %r9d,%r10d
  81:	7c 9d                	jl     20 <ScaleFilterCols_16_C+0x20>
  83:	f6 c2 01             	test   $0x1,%dl
  86:	74 25                	je     ad <ScaleFilterCols_16_C+0xad>
  88:	89 c8                	mov    %ecx,%eax
  8a:	c1 f8 10             	sar    $0x10,%eax
  8d:	48 98                	cltq   
  8f:	0f b7 14 46          	movzwl (%rsi,%rax,2),%edx
  93:	0f b7 44 46 02       	movzwl 0x2(%rsi,%rax,2),%eax
  98:	0f b7 c9             	movzwl %cx,%ecx
  9b:	29 d0                	sub    %edx,%eax
  9d:	0f af c1             	imul   %ecx,%eax
  a0:	05 00 80 00 00       	add    $0x8000,%eax
  a5:	c1 e8 10             	shr    $0x10,%eax
  a8:	01 d0                	add    %edx,%eax
  aa:	66 89 07             	mov    %ax,(%rdi)
  ad:	5b                   	pop    %rbx
  ae:	5d                   	pop    %rbp
  af:	c3                   	retq   

Disassembly of section .text.ScaleFilterCols64_16_C:

0000000000000000 <ScaleFilterCols64_16_C>:
   0:	55                   	push   %rbp
   1:	48 89 e5             	mov    %rsp,%rbp
   4:	53                   	push   %rbx
   5:	48 63 c9             	movslq %ecx,%rcx
   8:	41 89 d1             	mov    %edx,%r9d
   b:	41 83 c1 ff          	add    $0xffffffff,%r9d
   f:	7e 72                	jle    83 <ScaleFilterCols64_16_C+0x83>
  11:	4d 63 c0             	movslq %r8d,%r8
  14:	45 31 d2             	xor    %r10d,%r10d
  17:	66 0f 1f 84 00 00 00 	nopw   0x0(%rax,%rax,1)
  1e:	00 00 
  20:	48 89 c8             	mov    %rcx,%rax
  23:	48 c1 f8 10          	sar    $0x10,%rax
  27:	44 0f b7 1c 46       	movzwl (%rsi,%rax,2),%r11d
  2c:	0f b7 44 46 02       	movzwl 0x2(%rsi,%rax,2),%eax
  31:	0f b7 d9             	movzwl %cx,%ebx
  34:	44 29 d8             	sub    %r11d,%eax
  37:	0f af c3             	imul   %ebx,%eax
  3a:	05 00 80 00 00       	add    $0x8000,%eax
  3f:	c1 e8 10             	shr    $0x10,%eax
  42:	44 01 d8             	add    %r11d,%eax
  45:	66 89 07             	mov    %ax,(%rdi)
  48:	4c 01 c1             	add    %r8,%rcx
  4b:	48 89 c8             	mov    %rcx,%rax
  4e:	48 c1 f8 10          	sar    $0x10,%rax
  52:	0f b7 1c 46          	movzwl (%rsi,%rax,2),%ebx
  56:	0f b7 44 46 02       	movzwl 0x2(%rsi,%rax,2),%eax
  5b:	44 0f b7 d9          	movzwl %cx,%r11d
  5f:	29 d8                	sub    %ebx,%eax
  61:	41 0f af c3          	imul   %r11d,%eax
  65:	05 00 80 00 00       	add    $0x8000,%eax
  6a:	c1 e8 10             	shr    $0x10,%eax
  6d:	01 d8                	add    %ebx,%eax
  6f:	66 89 47 02          	mov    %ax,0x2(%rdi)
  73:	4c 01 c1             	add    %r8,%rcx
  76:	48 83 c7 04          	add    $0x4,%rdi
  7a:	41 83 c2 02          	add    $0x2,%r10d
  7e:	45 39 ca             	cmp    %r9d,%r10d
  81:	7c 9d                	jl     20 <ScaleFilterCols64_16_C+0x20>
  83:	f6 c2 01             	test   $0x1,%dl
  86:	74 25                	je     ad <ScaleFilterCols64_16_C+0xad>
  88:	48 89 c8             	mov    %rcx,%rax
  8b:	48 c1 f8 10          	sar    $0x10,%rax
  8f:	0f b7 14 46          	movzwl (%rsi,%rax,2),%edx
  93:	0f b7 44 46 02       	movzwl 0x2(%rsi,%rax,2),%eax
  98:	0f b7 c9             	movzwl %cx,%ecx
  9b:	29 d0                	sub    %edx,%eax
  9d:	0f af c1             	imul   %ecx,%eax
  a0:	05 00 80 00 00       	add    $0x8000,%eax
  a5:	c1 e8 10             	shr    $0x10,%eax
  a8:	01 d0                	add    %edx,%eax
  aa:	66 89 07             	mov    %ax,(%rdi)
  ad:	5b                   	pop    %rbx
  ae:	5d                   	pop    %rbp
  af:	c3                   	retq   

Disassembly of section .text.ScaleRowDown38_C:

0000000000000000 <ScaleRowDown38_C>:
   0:	55                   	push   %rbp
   1:	48 89 e5             	mov    %rsp,%rbp
   4:	85 c9                	test   %ecx,%ecx
   6:	7e 2a                	jle    32 <ScaleRowDown38_C+0x32>
   8:	31 f6                	xor    %esi,%esi
   a:	66 0f 1f 44 00 00    	nopw   0x0(%rax,%rax,1)
  10:	0f b6 07             	movzbl (%rdi),%eax
  13:	88 04 32             	mov    %al,(%rdx,%rsi,1)
  16:	0f b6 47 03          	movzbl 0x3(%rdi),%eax
  1a:	88 44 32 01          	mov    %al,0x1(%rdx,%rsi,1)
  1e:	0f b6 47 06          	movzbl 0x6(%rdi),%eax
  22:	88 44 32 02          	mov    %al,0x2(%rdx,%rsi,1)
  26:	48 83 c6 03          	add    $0x3,%rsi
  2a:	48 83 c7 08          	add    $0x8,%rdi
  2e:	39 ce                	cmp    %ecx,%esi
  30:	7c de                	jl     10 <ScaleRowDown38_C+0x10>
  32:	5d                   	pop    %rbp
  33:	c3                   	retq   

Disassembly of section .text.ScaleRowDown38_16_C:

0000000000000000 <ScaleRowDown38_16_C>:
   0:	55                   	push   %rbp
   1:	48 89 e5             	mov    %rsp,%rbp
   4:	85 c9                	test   %ecx,%ecx
   6:	7e 2d                	jle    35 <ScaleRowDown38_16_C+0x35>
   8:	31 c0                	xor    %eax,%eax
   a:	66 0f 1f 44 00 00    	nopw   0x0(%rax,%rax,1)
  10:	0f b7 37             	movzwl (%rdi),%esi
  13:	66 89 34 42          	mov    %si,(%rdx,%rax,2)
  17:	0f b7 77 06          	movzwl 0x6(%rdi),%esi
  1b:	66 89 74 42 02       	mov    %si,0x2(%rdx,%rax,2)
  20:	0f b7 77 0c          	movzwl 0xc(%rdi),%esi
  24:	66 89 74 42 04       	mov    %si,0x4(%rdx,%rax,2)
  29:	48 83 c0 03          	add    $0x3,%rax
  2d:	48 83 c7 10          	add    $0x10,%rdi
  31:	39 c8                	cmp    %ecx,%eax
  33:	7c db                	jl     10 <ScaleRowDown38_16_C+0x10>
  35:	5d                   	pop    %rbp
  36:	c3                   	retq   

Disassembly of section .text.ScaleRowDown38_3_Box_C:

0000000000000000 <ScaleRowDown38_3_Box_C>:
   0:	55                   	push   %rbp
   1:	48 89 e5             	mov    %rsp,%rbp
   4:	85 c9                	test   %ecx,%ecx
   6:	0f 8e 0a 01 00 00    	jle    116 <ScaleRowDown38_3_Box_C+0x116>
   c:	4c 8d 04 36          	lea    (%rsi,%rsi,1),%r8
  10:	49 83 c0 01          	add    $0x1,%r8
  14:	48 83 c7 07          	add    $0x7,%rdi
  18:	49 83 c0 ff          	add    $0xffffffffffffffff,%r8
  1c:	45 31 d2             	xor    %r10d,%r10d
  1f:	90                   	nop
  20:	44 0f b6 4f f9       	movzbl -0x7(%rdi),%r9d
  25:	0f b6 47 fa          	movzbl -0x6(%rdi),%eax
  29:	44 01 c8             	add    %r9d,%eax
  2c:	44 0f b6 4f fb       	movzbl -0x5(%rdi),%r9d
  31:	41 01 c1             	add    %eax,%r9d
  34:	0f b6 44 37 f9       	movzbl -0x7(%rdi,%rsi,1),%eax
  39:	44 01 c8             	add    %r9d,%eax
  3c:	44 0f b6 4c 37 fa    	movzbl -0x6(%rdi,%rsi,1),%r9d
  42:	41 01 c1             	add    %eax,%r9d
  45:	0f b6 44 37 fb       	movzbl -0x5(%rdi,%rsi,1),%eax
  4a:	44 01 c8             	add    %r9d,%eax
  4d:	46 0f b6 4c 07 f9    	movzbl -0x7(%rdi,%r8,1),%r9d
  53:	41 01 c1             	add    %eax,%r9d
  56:	46 0f b6 5c 07 fa    	movzbl -0x6(%rdi,%r8,1),%r11d
  5c:	45 01 cb             	add    %r9d,%r11d
  5f:	42 0f b6 44 07 fb    	movzbl -0x5(%rdi,%r8,1),%eax
  65:	44 01 d8             	add    %r11d,%eax
  68:	69 c0 71 1c 00 00    	imul   $0x1c71,%eax,%eax
  6e:	c1 e8 10             	shr    $0x10,%eax
  71:	42 88 04 12          	mov    %al,(%rdx,%r10,1)
  75:	44 0f b6 4f fc       	movzbl -0x4(%rdi),%r9d
  7a:	0f b6 47 fd          	movzbl -0x3(%rdi),%eax
  7e:	44 01 c8             	add    %r9d,%eax
  81:	44 0f b6 4f fe       	movzbl -0x2(%rdi),%r9d
  86:	41 01 c1             	add    %eax,%r9d
  89:	0f b6 44 37 fc       	movzbl -0x4(%rdi,%rsi,1),%eax
  8e:	44 01 c8             	add    %r9d,%eax
  91:	44 0f b6 4c 37 fd    	movzbl -0x3(%rdi,%rsi,1),%r9d
  97:	41 01 c1             	add    %eax,%r9d
  9a:	0f b6 44 37 fe       	movzbl -0x2(%rdi,%rsi,1),%eax
  9f:	44 01 c8             	add    %r9d,%eax
  a2:	46 0f b6 4c 07 fc    	movzbl -0x4(%rdi,%r8,1),%r9d
  a8:	41 01 c1             	add    %eax,%r9d
  ab:	46 0f b6 5c 07 fd    	movzbl -0x3(%rdi,%r8,1),%r11d
  b1:	45 01 cb             	add    %r9d,%r11d
  b4:	42 0f b6 44 07 fe    	movzbl -0x2(%rdi,%r8,1),%eax
  ba:	44 01 d8             	add    %r11d,%eax
  bd:	69 c0 71 1c 00 00    	imul   $0x1c71,%eax,%eax
  c3:	c1 e8 10             	shr    $0x10,%eax
  c6:	42 88 44 12 01       	mov    %al,0x1(%rdx,%r10,1)
  cb:	44 0f b6 4f ff       	movzbl -0x1(%rdi),%r9d
  d0:	0f b6 07             	movzbl (%rdi),%eax
  d3:	44 01 c8             	add    %r9d,%eax
  d6:	44 0f b6 4c 37 ff    	movzbl -0x1(%rdi,%rsi,1),%r9d
  dc:	41 01 c1             	add    %eax,%r9d
  df:	0f b6 04 37          	movzbl (%rdi,%rsi,1),%eax
  e3:	44 01 c8             	add    %r9d,%eax
  e6:	46 0f b6 4c 07 ff    	movzbl -0x1(%rdi,%r8,1),%r9d
  ec:	41 01 c1             	add    %eax,%r9d
  ef:	42 0f b6 04 07       	movzbl (%rdi,%r8,1),%eax
  f4:	44 01 c8             	add    %r9d,%eax
  f7:	69 c0 aa 2a 00 00    	imul   $0x2aaa,%eax,%eax
  fd:	c1 e8 10             	shr    $0x10,%eax
 100:	42 88 44 12 02       	mov    %al,0x2(%rdx,%r10,1)
 105:	49 83 c2 03          	add    $0x3,%r10
 109:	48 83 c7 08          	add    $0x8,%rdi
 10d:	41 39 ca             	cmp    %ecx,%r10d
 110:	0f 8c 0a ff ff ff    	jl     20 <ScaleRowDown38_3_Box_C+0x20>
 116:	5d                   	pop    %rbp
 117:	c3                   	retq   

Disassembly of section .text.ScaleRowDown38_3_Box_16_C:

0000000000000000 <ScaleRowDown38_3_Box_16_C>:
   0:	55                   	push   %rbp
   1:	48 89 e5             	mov    %rsp,%rbp
   4:	85 c9                	test   %ecx,%ecx
   6:	0f 8e 0a 01 00 00    	jle    116 <ScaleRowDown38_3_Box_16_C+0x116>
   c:	48 83 c7 0e          	add    $0xe,%rdi
  10:	45 31 c9             	xor    %r9d,%r9d
  13:	66 2e 0f 1f 84 00 00 	nopw   %cs:0x0(%rax,%rax,1)
  1a:	00 00 00 
  1d:	0f 1f 00             	nopl   (%rax)
  20:	44 0f b7 47 f2       	movzwl -0xe(%rdi),%r8d
  25:	0f b7 47 f4          	movzwl -0xc(%rdi),%eax
  29:	44 01 c0             	add    %r8d,%eax
  2c:	44 0f b7 47 f6       	movzwl -0xa(%rdi),%r8d
  31:	41 01 c0             	add    %eax,%r8d
  34:	0f b7 44 77 f2       	movzwl -0xe(%rdi,%rsi,2),%eax
  39:	44 01 c0             	add    %r8d,%eax
  3c:	44 0f b7 44 77 f4    	movzwl -0xc(%rdi,%rsi,2),%r8d
  42:	41 01 c0             	add    %eax,%r8d
  45:	0f b7 44 77 f6       	movzwl -0xa(%rdi,%rsi,2),%eax
  4a:	44 01 c0             	add    %r8d,%eax
  4d:	44 0f b7 44 b7 f2    	movzwl -0xe(%rdi,%rsi,4),%r8d
  53:	41 01 c0             	add    %eax,%r8d
  56:	44 0f b7 54 b7 f4    	movzwl -0xc(%rdi,%rsi,4),%r10d
  5c:	45 01 c2             	add    %r8d,%r10d
  5f:	0f b7 44 b7 f6       	movzwl -0xa(%rdi,%rsi,4),%eax
  64:	44 01 d0             	add    %r10d,%eax
  67:	69 c0 71 1c 00 00    	imul   $0x1c71,%eax,%eax
  6d:	c1 e8 10             	shr    $0x10,%eax
  70:	66 42 89 04 4a       	mov    %ax,(%rdx,%r9,2)
  75:	44 0f b7 47 f8       	movzwl -0x8(%rdi),%r8d
  7a:	0f b7 47 fa          	movzwl -0x6(%rdi),%eax
  7e:	44 01 c0             	add    %r8d,%eax
  81:	44 0f b7 47 fc       	movzwl -0x4(%rdi),%r8d
  86:	41 01 c0             	add    %eax,%r8d
  89:	0f b7 44 77 f8       	movzwl -0x8(%rdi,%rsi,2),%eax
  8e:	44 01 c0             	add    %r8d,%eax
  91:	44 0f b7 44 77 fa    	movzwl -0x6(%rdi,%rsi,2),%r8d
  97:	41 01 c0             	add    %eax,%r8d
  9a:	0f b7 44 77 fc       	movzwl -0x4(%rdi,%rsi,2),%eax
  9f:	44 01 c0             	add    %r8d,%eax
  a2:	44 0f b7 44 b7 f8    	movzwl -0x8(%rdi,%rsi,4),%r8d
  a8:	41 01 c0             	add    %eax,%r8d
  ab:	44 0f b7 54 b7 fa    	movzwl -0x6(%rdi,%rsi,4),%r10d
  b1:	45 01 c2             	add    %r8d,%r10d
  b4:	0f b7 44 b7 fc       	movzwl -0x4(%rdi,%rsi,4),%eax
  b9:	44 01 d0             	add    %r10d,%eax
  bc:	69 c0 71 1c 00 00    	imul   $0x1c71,%eax,%eax
  c2:	c1 e8 10             	shr    $0x10,%eax
  c5:	66 42 89 44 4a 02    	mov    %ax,0x2(%rdx,%r9,2)
  cb:	44 0f b7 47 fe       	movzwl -0x2(%rdi),%r8d
  d0:	0f b7 07             	movzwl (%rdi),%eax
  d3:	44 01 c0             	add    %r8d,%eax
  d6:	44 0f b7 44 77 fe    	movzwl -0x2(%rdi,%rsi,2),%r8d
  dc:	41 01 c0             	add    %eax,%r8d
  df:	0f b7 04 77          	movzwl (%rdi,%rsi,2),%eax
  e3:	44 01 c0             	add    %r8d,%eax
  e6:	44 0f b7 44 b7 fe    	movzwl -0x2(%rdi,%rsi,4),%r8d
  ec:	41 01 c0             	add    %eax,%r8d
  ef:	0f b7 04 b7          	movzwl (%rdi,%rsi,4),%eax
  f3:	44 01 c0             	add    %r8d,%eax
  f6:	69 c0 aa 2a 00 00    	imul   $0x2aaa,%eax,%eax
  fc:	c1 e8 10             	shr    $0x10,%eax
  ff:	66 42 89 44 4a 04    	mov    %ax,0x4(%rdx,%r9,2)
 105:	49 83 c1 03          	add    $0x3,%r9
 109:	48 83 c7 10          	add    $0x10,%rdi
 10d:	41 39 c9             	cmp    %ecx,%r9d
 110:	0f 8c 0a ff ff ff    	jl     20 <ScaleRowDown38_3_Box_16_C+0x20>
 116:	5d                   	pop    %rbp
 117:	c3                   	retq   

Disassembly of section .text.ScaleRowDown38_2_Box_C:

0000000000000000 <ScaleRowDown38_2_Box_C>:
   0:	55                   	push   %rbp
   1:	48 89 e5             	mov    %rsp,%rbp
   4:	85 c9                	test   %ecx,%ecx
   6:	0f 8e bd 00 00 00    	jle    c9 <ScaleRowDown38_2_Box_C+0xc9>
   c:	48 83 c7 07          	add    $0x7,%rdi
  10:	45 31 c9             	xor    %r9d,%r9d
  13:	66 2e 0f 1f 84 00 00 	nopw   %cs:0x0(%rax,%rax,1)
  1a:	00 00 00 
  1d:	0f 1f 00             	nopl   (%rax)
  20:	44 0f b6 47 f9       	movzbl -0x7(%rdi),%r8d
  25:	0f b6 47 fa          	movzbl -0x6(%rdi),%eax
  29:	44 01 c0             	add    %r8d,%eax
  2c:	44 0f b6 47 fb       	movzbl -0x5(%rdi),%r8d
  31:	41 01 c0             	add    %eax,%r8d
  34:	0f b6 44 37 f9       	movzbl -0x7(%rdi,%rsi,1),%eax
  39:	44 01 c0             	add    %r8d,%eax
  3c:	44 0f b6 44 37 fa    	movzbl -0x6(%rdi,%rsi,1),%r8d
  42:	41 01 c0             	add    %eax,%r8d
  45:	0f b6 44 37 fb       	movzbl -0x5(%rdi,%rsi,1),%eax
  4a:	44 01 c0             	add    %r8d,%eax
  4d:	69 c0 aa 2a 00 00    	imul   $0x2aaa,%eax,%eax
  53:	c1 e8 10             	shr    $0x10,%eax
  56:	42 88 04 0a          	mov    %al,(%rdx,%r9,1)
  5a:	44 0f b6 47 fc       	movzbl -0x4(%rdi),%r8d
  5f:	0f b6 47 fd          	movzbl -0x3(%rdi),%eax
  63:	44 01 c0             	add    %r8d,%eax
  66:	44 0f b6 47 fe       	movzbl -0x2(%rdi),%r8d
  6b:	41 01 c0             	add    %eax,%r8d
  6e:	0f b6 44 37 fc       	movzbl -0x4(%rdi,%rsi,1),%eax
  73:	44 01 c0             	add    %r8d,%eax
  76:	44 0f b6 44 37 fd    	movzbl -0x3(%rdi,%rsi,1),%r8d
  7c:	41 01 c0             	add    %eax,%r8d
  7f:	0f b6 44 37 fe       	movzbl -0x2(%rdi,%rsi,1),%eax
  84:	44 01 c0             	add    %r8d,%eax
  87:	69 c0 aa 2a 00 00    	imul   $0x2aaa,%eax,%eax
  8d:	c1 e8 10             	shr    $0x10,%eax
  90:	42 88 44 0a 01       	mov    %al,0x1(%rdx,%r9,1)
  95:	44 0f b6 47 ff       	movzbl -0x1(%rdi),%r8d
  9a:	0f b6 07             	movzbl (%rdi),%eax
  9d:	44 01 c0             	add    %r8d,%eax
  a0:	44 0f b6 44 37 ff    	movzbl -0x1(%rdi,%rsi,1),%r8d
  a6:	41 01 c0             	add    %eax,%r8d
  a9:	0f b6 04 37          	movzbl (%rdi,%rsi,1),%eax
  ad:	44 01 c0             	add    %r8d,%eax
  b0:	c1 e8 02             	shr    $0x2,%eax
  b3:	42 88 44 0a 02       	mov    %al,0x2(%rdx,%r9,1)
  b8:	49 83 c1 03          	add    $0x3,%r9
  bc:	48 83 c7 08          	add    $0x8,%rdi
  c0:	41 39 c9             	cmp    %ecx,%r9d
  c3:	0f 8c 57 ff ff ff    	jl     20 <ScaleRowDown38_2_Box_C+0x20>
  c9:	5d                   	pop    %rbp
  ca:	c3                   	retq   

Disassembly of section .text.ScaleRowDown38_2_Box_16_C:

0000000000000000 <ScaleRowDown38_2_Box_16_C>:
   0:	55                   	push   %rbp
   1:	48 89 e5             	mov    %rsp,%rbp
   4:	85 c9                	test   %ecx,%ecx
   6:	0f 8e c0 00 00 00    	jle    cc <ScaleRowDown38_2_Box_16_C+0xcc>
   c:	48 83 c7 0e          	add    $0xe,%rdi
  10:	45 31 c9             	xor    %r9d,%r9d
  13:	66 2e 0f 1f 84 00 00 	nopw   %cs:0x0(%rax,%rax,1)
  1a:	00 00 00 
  1d:	0f 1f 00             	nopl   (%rax)
  20:	44 0f b7 47 f2       	movzwl -0xe(%rdi),%r8d
  25:	0f b7 47 f4          	movzwl -0xc(%rdi),%eax
  29:	44 01 c0             	add    %r8d,%eax
  2c:	44 0f b7 47 f6       	movzwl -0xa(%rdi),%r8d
  31:	41 01 c0             	add    %eax,%r8d
  34:	0f b7 44 77 f2       	movzwl -0xe(%rdi,%rsi,2),%eax
  39:	44 01 c0             	add    %r8d,%eax
  3c:	44 0f b7 44 77 f4    	movzwl -0xc(%rdi,%rsi,2),%r8d
  42:	41 01 c0             	add    %eax,%r8d
  45:	0f b7 44 77 f6       	movzwl -0xa(%rdi,%rsi,2),%eax
  4a:	44 01 c0             	add    %r8d,%eax
  4d:	69 c0 aa 2a 00 00    	imul   $0x2aaa,%eax,%eax
  53:	c1 e8 10             	shr    $0x10,%eax
  56:	66 42 89 04 4a       	mov    %ax,(%rdx,%r9,2)
  5b:	44 0f b7 47 f8       	movzwl -0x8(%rdi),%r8d
  60:	0f b7 47 fa          	movzwl -0x6(%rdi),%eax
  64:	44 01 c0             	add    %r8d,%eax
  67:	44 0f b7 47 fc       	movzwl -0x4(%rdi),%r8d
  6c:	41 01 c0             	add    %eax,%r8d
  6f:	0f b7 44 77 f8       	movzwl -0x8(%rdi,%rsi,2),%eax
  74:	44 01 c0             	add    %r8d,%eax
  77:	44 0f b7 44 77 fa    	movzwl -0x6(%rdi,%rsi,2),%r8d
  7d:	41 01 c0             	add    %eax,%r8d
  80:	0f b7 44 77 fc       	movzwl -0x4(%rdi,%rsi,2),%eax
  85:	44 01 c0             	add    %r8d,%eax
  88:	69 c0 aa 2a 00 00    	imul   $0x2aaa,%eax,%eax
  8e:	c1 e8 10             	shr    $0x10,%eax
  91:	66 42 89 44 4a 02    	mov    %ax,0x2(%rdx,%r9,2)
  97:	44 0f b7 47 fe       	movzwl -0x2(%rdi),%r8d
  9c:	0f b7 07             	movzwl (%rdi),%eax
  9f:	44 01 c0             	add    %r8d,%eax
  a2:	44 0f b7 44 77 fe    	movzwl -0x2(%rdi,%rsi,2),%r8d
  a8:	41 01 c0             	add    %eax,%r8d
  ab:	0f b7 04 77          	movzwl (%rdi,%rsi,2),%eax
  af:	44 01 c0             	add    %r8d,%eax
  b2:	c1 e8 02             	shr    $0x2,%eax
  b5:	66 42 89 44 4a 04    	mov    %ax,0x4(%rdx,%r9,2)
  bb:	49 83 c1 03          	add    $0x3,%r9
  bf:	48 83 c7 10          	add    $0x10,%rdi
  c3:	41 39 c9             	cmp    %ecx,%r9d
  c6:	0f 8c 54 ff ff ff    	jl     20 <ScaleRowDown38_2_Box_16_C+0x20>
  cc:	5d                   	pop    %rbp
  cd:	c3                   	retq   

Disassembly of section .text.ScaleAddRow_C:

0000000000000000 <ScaleAddRow_C>:
   0:	55                   	push   %rbp
   1:	48 89 e5             	mov    %rsp,%rbp
   4:	83 fa 02             	cmp    $0x2,%edx
   7:	7c 5d                	jl     66 <ScaleAddRow_C+0x66>
   9:	8d 42 fe             	lea    -0x2(%rdx),%eax
   c:	d1 e8                	shr    %eax
   e:	8d 48 01             	lea    0x1(%rax),%ecx
  11:	41 89 c8             	mov    %ecx,%r8d
  14:	41 83 e0 01          	and    $0x1,%r8d
  18:	85 c0                	test   %eax,%eax
  1a:	74 2f                	je     4b <ScaleAddRow_C+0x4b>
  1c:	44 29 c1             	sub    %r8d,%ecx
  1f:	90                   	nop
  20:	0f b6 07             	movzbl (%rdi),%eax
  23:	66 01 06             	add    %ax,(%rsi)
  26:	0f b6 47 01          	movzbl 0x1(%rdi),%eax
  2a:	66 01 46 02          	add    %ax,0x2(%rsi)
  2e:	0f b6 47 02          	movzbl 0x2(%rdi),%eax
  32:	66 01 46 04          	add    %ax,0x4(%rsi)
  36:	0f b6 47 03          	movzbl 0x3(%rdi),%eax
  3a:	66 01 46 06          	add    %ax,0x6(%rsi)
  3e:	48 83 c7 04          	add    $0x4,%rdi
  42:	48 83 c6 08          	add    $0x8,%rsi
  46:	83 c1 fe             	add    $0xfffffffe,%ecx
  49:	75 d5                	jne    20 <ScaleAddRow_C+0x20>
  4b:	45 85 c0             	test   %r8d,%r8d
  4e:	74 16                	je     66 <ScaleAddRow_C+0x66>
  50:	0f b6 07             	movzbl (%rdi),%eax
  53:	66 01 06             	add    %ax,(%rsi)
  56:	0f b6 47 01          	movzbl 0x1(%rdi),%eax
  5a:	66 01 46 02          	add    %ax,0x2(%rsi)
  5e:	48 83 c6 04          	add    $0x4,%rsi
  62:	48 83 c7 02          	add    $0x2,%rdi
  66:	f6 c2 01             	test   $0x1,%dl
  69:	74 06                	je     71 <ScaleAddRow_C+0x71>
  6b:	0f b6 07             	movzbl (%rdi),%eax
  6e:	66 01 06             	add    %ax,(%rsi)
  71:	5d                   	pop    %rbp
  72:	c3                   	retq   

Disassembly of section .text.ScaleAddRow_16_C:

0000000000000000 <ScaleAddRow_16_C>:
   0:	55                   	push   %rbp
   1:	48 89 e5             	mov    %rsp,%rbp
   4:	83 fa 02             	cmp    $0x2,%edx
   7:	7c 57                	jl     60 <ScaleAddRow_16_C+0x60>
   9:	8d 42 fe             	lea    -0x2(%rdx),%eax
   c:	d1 e8                	shr    %eax
   e:	8d 48 01             	lea    0x1(%rax),%ecx
  11:	41 89 c8             	mov    %ecx,%r8d
  14:	41 83 e0 01          	and    $0x1,%r8d
  18:	85 c0                	test   %eax,%eax
  1a:	74 2b                	je     47 <ScaleAddRow_16_C+0x47>
  1c:	44 29 c1             	sub    %r8d,%ecx
  1f:	90                   	nop
  20:	0f b7 07             	movzwl (%rdi),%eax
  23:	01 06                	add    %eax,(%rsi)
  25:	0f b7 47 02          	movzwl 0x2(%rdi),%eax
  29:	01 46 04             	add    %eax,0x4(%rsi)
  2c:	0f b7 47 04          	movzwl 0x4(%rdi),%eax
  30:	01 46 08             	add    %eax,0x8(%rsi)
  33:	0f b7 47 06          	movzwl 0x6(%rdi),%eax
  37:	01 46 0c             	add    %eax,0xc(%rsi)
  3a:	48 83 c7 08          	add    $0x8,%rdi
  3e:	48 83 c6 10          	add    $0x10,%rsi
  42:	83 c1 fe             	add    $0xfffffffe,%ecx
  45:	75 d9                	jne    20 <ScaleAddRow_16_C+0x20>
  47:	45 85 c0             	test   %r8d,%r8d
  4a:	74 14                	je     60 <ScaleAddRow_16_C+0x60>
  4c:	0f b7 07             	movzwl (%rdi),%eax
  4f:	01 06                	add    %eax,(%rsi)
  51:	0f b7 47 02          	movzwl 0x2(%rdi),%eax
  55:	01 46 04             	add    %eax,0x4(%rsi)
  58:	48 83 c6 08          	add    $0x8,%rsi
  5c:	48 83 c7 04          	add    $0x4,%rdi
  60:	f6 c2 01             	test   $0x1,%dl
  63:	74 05                	je     6a <ScaleAddRow_16_C+0x6a>
  65:	0f b7 07             	movzwl (%rdi),%eax
  68:	01 06                	add    %eax,(%rsi)
  6a:	5d                   	pop    %rbp
  6b:	c3                   	retq   

Disassembly of section .text.ScaleARGBRowDown2_C:

0000000000000000 <ScaleARGBRowDown2_C>:
   0:	55                   	push   %rbp
   1:	48 89 e5             	mov    %rsp,%rbp
   4:	83 f9 02             	cmp    $0x2,%ecx
   7:	0f 8c 8c 00 00 00    	jl     99 <ScaleARGBRowDown2_C+0x99>
   d:	44 8d 41 fe          	lea    -0x2(%rcx),%r8d
  11:	44 89 c6             	mov    %r8d,%esi
  14:	d1 ee                	shr    %esi
  16:	83 c6 01             	add    $0x1,%esi
  19:	41 89 f1             	mov    %esi,%r9d
  1c:	41 83 e1 03          	and    $0x3,%r9d
  20:	41 83 f8 06          	cmp    $0x6,%r8d
  24:	72 46                	jb     6c <ScaleARGBRowDown2_C+0x6c>
  26:	44 29 ce             	sub    %r9d,%esi
  29:	0f 1f 80 00 00 00 00 	nopl   0x0(%rax)
  30:	8b 47 04             	mov    0x4(%rdi),%eax
  33:	89 02                	mov    %eax,(%rdx)
  35:	8b 47 0c             	mov    0xc(%rdi),%eax
  38:	89 42 04             	mov    %eax,0x4(%rdx)
  3b:	8b 47 14             	mov    0x14(%rdi),%eax
  3e:	89 42 08             	mov    %eax,0x8(%rdx)
  41:	8b 47 1c             	mov    0x1c(%rdi),%eax
  44:	89 42 0c             	mov    %eax,0xc(%rdx)
  47:	8b 47 24             	mov    0x24(%rdi),%eax
  4a:	89 42 10             	mov    %eax,0x10(%rdx)
  4d:	8b 47 2c             	mov    0x2c(%rdi),%eax
  50:	89 42 14             	mov    %eax,0x14(%rdx)
  53:	8b 47 34             	mov    0x34(%rdi),%eax
  56:	89 42 18             	mov    %eax,0x18(%rdx)
  59:	8b 47 3c             	mov    0x3c(%rdi),%eax
  5c:	89 42 1c             	mov    %eax,0x1c(%rdx)
  5f:	48 83 c7 40          	add    $0x40,%rdi
  63:	48 83 c2 20          	add    $0x20,%rdx
  67:	83 c6 fc             	add    $0xfffffffc,%esi
  6a:	75 c4                	jne    30 <ScaleARGBRowDown2_C+0x30>
  6c:	45 85 c9             	test   %r9d,%r9d
  6f:	74 28                	je     99 <ScaleARGBRowDown2_C+0x99>
  71:	66 2e 0f 1f 84 00 00 	nopw   %cs:0x0(%rax,%rax,1)
  78:	00 00 00 
  7b:	0f 1f 44 00 00       	nopl   0x0(%rax,%rax,1)
  80:	8b 47 04             	mov    0x4(%rdi),%eax
  83:	89 02                	mov    %eax,(%rdx)
  85:	8b 47 0c             	mov    0xc(%rdi),%eax
  88:	89 42 04             	mov    %eax,0x4(%rdx)
  8b:	48 83 c7 10          	add    $0x10,%rdi
  8f:	48 83 c2 08          	add    $0x8,%rdx
  93:	41 83 c1 ff          	add    $0xffffffff,%r9d
  97:	75 e7                	jne    80 <ScaleARGBRowDown2_C+0x80>
  99:	f6 c1 01             	test   $0x1,%cl
  9c:	74 05                	je     a3 <ScaleARGBRowDown2_C+0xa3>
  9e:	8b 47 04             	mov    0x4(%rdi),%eax
  a1:	89 02                	mov    %eax,(%rdx)
  a3:	5d                   	pop    %rbp
  a4:	c3                   	retq   

Disassembly of section .text.ScaleARGBRowDown2Linear_C:

0000000000000000 <ScaleARGBRowDown2Linear_C>:
   0:	55                   	push   %rbp
   1:	48 89 e5             	mov    %rsp,%rbp
   4:	85 c9                	test   %ecx,%ecx
   6:	7e 67                	jle    6f <ScaleARGBRowDown2Linear_C+0x6f>
   8:	41 89 c8             	mov    %ecx,%r8d
   b:	31 c9                	xor    %ecx,%ecx
   d:	0f 1f 00             	nopl   (%rax)
  10:	0f b6 34 cf          	movzbl (%rdi,%rcx,8),%esi
  14:	0f b6 44 cf 04       	movzbl 0x4(%rdi,%rcx,8),%eax
  19:	8d 04 06             	lea    (%rsi,%rax,1),%eax
  1c:	83 c0 01             	add    $0x1,%eax
  1f:	d1 e8                	shr    %eax
  21:	88 04 8a             	mov    %al,(%rdx,%rcx,4)
  24:	0f b6 44 cf 01       	movzbl 0x1(%rdi,%rcx,8),%eax
  29:	0f b6 74 cf 05       	movzbl 0x5(%rdi,%rcx,8),%esi
  2e:	8d 04 30             	lea    (%rax,%rsi,1),%eax
  31:	83 c0 01             	add    $0x1,%eax
  34:	d1 e8                	shr    %eax
  36:	88 44 8a 01          	mov    %al,0x1(%rdx,%rcx,4)
  3a:	0f b6 44 cf 02       	movzbl 0x2(%rdi,%rcx,8),%eax
  3f:	0f b6 74 cf 06       	movzbl 0x6(%rdi,%rcx,8),%esi
  44:	8d 04 30             	lea    (%rax,%rsi,1),%eax
  47:	83 c0 01             	add    $0x1,%eax
  4a:	d1 e8                	shr    %eax
  4c:	88 44 8a 02          	mov    %al,0x2(%rdx,%rcx,4)
  50:	0f b6 44 cf 03       	movzbl 0x3(%rdi,%rcx,8),%eax
  55:	0f b6 74 cf 07       	movzbl 0x7(%rdi,%rcx,8),%esi
  5a:	8d 04 30             	lea    (%rax,%rsi,1),%eax
  5d:	83 c0 01             	add    $0x1,%eax
  60:	d1 e8                	shr    %eax
  62:	88 44 8a 03          	mov    %al,0x3(%rdx,%rcx,4)
  66:	48 83 c1 01          	add    $0x1,%rcx
  6a:	41 39 c8             	cmp    %ecx,%r8d
  6d:	75 a1                	jne    10 <ScaleARGBRowDown2Linear_C+0x10>
  6f:	5d                   	pop    %rbp
  70:	c3                   	retq   

Disassembly of section .text.ScaleARGBRowDown2Box_C:

0000000000000000 <ScaleARGBRowDown2Box_C>:
   0:	55                   	push   %rbp
   1:	48 89 e5             	mov    %rsp,%rbp
   4:	85 c9                	test   %ecx,%ecx
   6:	0f 8e bc 00 00 00    	jle    c8 <ScaleARGBRowDown2Box_C+0xc8>
   c:	41 89 c8             	mov    %ecx,%r8d
   f:	4c 8d 14 37          	lea    (%rdi,%rsi,1),%r10
  13:	49 83 c2 07          	add    $0x7,%r10
  17:	48 83 c7 07          	add    $0x7,%rdi
  1b:	31 f6                	xor    %esi,%esi
  1d:	0f 1f 00             	nopl   (%rax)
  20:	44 0f b6 4c f7 f9    	movzbl -0x7(%rdi,%rsi,8),%r9d
  26:	0f b6 44 f7 fd       	movzbl -0x3(%rdi,%rsi,8),%eax
  2b:	44 01 c8             	add    %r9d,%eax
  2e:	41 0f b6 4c f2 f9    	movzbl -0x7(%r10,%rsi,8),%ecx
  34:	01 c1                	add    %eax,%ecx
  36:	41 0f b6 44 f2 fd    	movzbl -0x3(%r10,%rsi,8),%eax
  3c:	8d 04 08             	lea    (%rax,%rcx,1),%eax
  3f:	83 c0 02             	add    $0x2,%eax
  42:	c1 e8 02             	shr    $0x2,%eax
  45:	88 04 b2             	mov    %al,(%rdx,%rsi,4)
  48:	0f b6 44 f7 fa       	movzbl -0x6(%rdi,%rsi,8),%eax
  4d:	0f b6 4c f7 fe       	movzbl -0x2(%rdi,%rsi,8),%ecx
  52:	01 c1                	add    %eax,%ecx
  54:	41 0f b6 44 f2 fa    	movzbl -0x6(%r10,%rsi,8),%eax
  5a:	01 c8                	add    %ecx,%eax
  5c:	41 0f b6 4c f2 fe    	movzbl -0x2(%r10,%rsi,8),%ecx
  62:	8d 04 01             	lea    (%rcx,%rax,1),%eax
  65:	83 c0 02             	add    $0x2,%eax
  68:	c1 e8 02             	shr    $0x2,%eax
  6b:	88 44 b2 01          	mov    %al,0x1(%rdx,%rsi,4)
  6f:	0f b6 44 f7 fb       	movzbl -0x5(%rdi,%rsi,8),%eax
  74:	0f b6 4c f7 ff       	movzbl -0x1(%rdi,%rsi,8),%ecx
  79:	01 c1                	add    %eax,%ecx
  7b:	41 0f b6 44 f2 fb    	movzbl -0x5(%r10,%rsi,8),%eax
  81:	01 c8                	add    %ecx,%eax
  83:	41 0f b6 4c f2 ff    	movzbl -0x1(%r10,%rsi,8),%ecx
  89:	8d 04 01             	lea    (%rcx,%rax,1),%eax
  8c:	83 c0 02             	add    $0x2,%eax
  8f:	c1 e8 02             	shr    $0x2,%eax
  92:	88 44 b2 02          	mov    %al,0x2(%rdx,%rsi,4)
  96:	0f b6 44 f7 fc       	movzbl -0x4(%rdi,%rsi,8),%eax
  9b:	0f b6 0c f7          	movzbl (%rdi,%rsi,8),%ecx
  9f:	01 c1                	add    %eax,%ecx
  a1:	41 0f b6 44 f2 fc    	movzbl -0x4(%r10,%rsi,8),%eax
  a7:	01 c8                	add    %ecx,%eax
  a9:	41 0f b6 0c f2       	movzbl (%r10,%rsi,8),%ecx
  ae:	8d 04 01             	lea    (%rcx,%rax,1),%eax
  b1:	83 c0 02             	add    $0x2,%eax
  b4:	c1 e8 02             	shr    $0x2,%eax
  b7:	88 44 b2 03          	mov    %al,0x3(%rdx,%rsi,4)
  bb:	48 83 c6 01          	add    $0x1,%rsi
  bf:	41 39 f0             	cmp    %esi,%r8d
  c2:	0f 85 58 ff ff ff    	jne    20 <ScaleARGBRowDown2Box_C+0x20>
  c8:	5d                   	pop    %rbp
  c9:	c3                   	retq   

Disassembly of section .text.ScaleARGBRowDownEven_C:

0000000000000000 <ScaleARGBRowDownEven_C>:
   0:	55                   	push   %rbp
   1:	48 89 e5             	mov    %rsp,%rbp
   4:	41 57                	push   %r15
   6:	41 56                	push   %r14
   8:	41 55                	push   %r13
   a:	41 54                	push   %r12
   c:	53                   	push   %rbx
   d:	41 83 f8 02          	cmp    $0x2,%r8d
  11:	0f 8c e0 00 00 00    	jl     f7 <ScaleARGBRowDownEven_C+0xf7>
  17:	4c 63 ca             	movslq %edx,%r9
  1a:	43 8d 04 09          	lea    (%r9,%r9,1),%eax
  1e:	48 63 d8             	movslq %eax,%rbx
  21:	41 8d 50 fe          	lea    -0x2(%r8),%edx
  25:	89 d6                	mov    %edx,%esi
  27:	d1 ee                	shr    %esi
  29:	83 c6 01             	add    $0x1,%esi
  2c:	89 f0                	mov    %esi,%eax
  2e:	83 e0 03             	and    $0x3,%eax
  31:	83 fa 06             	cmp    $0x6,%edx
  34:	0f 82 94 00 00 00    	jb     ce <ScaleARGBRowDownEven_C+0xce>
  3a:	4c 89 45 c0          	mov    %r8,-0x40(%rbp)
  3e:	29 c6                	sub    %eax,%esi
  40:	4e 8d 1c 8d 00 00 00 	lea    0x0(,%r9,4),%r11
  47:	00 
  48:	49 89 de             	mov    %rbx,%r14
  4b:	49 c1 e6 04          	shl    $0x4,%r14
  4f:	4c 8d 14 9d 00 00 00 	lea    0x0(,%rbx,4),%r10
  56:	00 
  57:	4f 8d 24 52          	lea    (%r10,%r10,2),%r12
  5b:	4f 8d 3c 8c          	lea    (%r12,%r9,4),%r15
  5f:	4c 8d 2c dd 00 00 00 	lea    0x0(,%rbx,8),%r13
  66:	00 
  67:	48 89 5d d0          	mov    %rbx,-0x30(%rbp)
  6b:	49 8d 14 db          	lea    (%r11,%rbx,8),%rdx
  6f:	4c 89 4d c8          	mov    %r9,-0x38(%rbp)
  73:	4c 89 cb             	mov    %r9,%rbx
  76:	4f 8d 0c 8a          	lea    (%r10,%r9,4),%r9
  7a:	66 0f 1f 44 00 00    	nopw   0x0(%rax,%rax,1)
  80:	44 8b 07             	mov    (%rdi),%r8d
  83:	44 89 01             	mov    %r8d,(%rcx)
  86:	42 8b 1c 1f          	mov    (%rdi,%r11,1),%ebx
  8a:	89 59 04             	mov    %ebx,0x4(%rcx)
  8d:	42 8b 1c 17          	mov    (%rdi,%r10,1),%ebx
  91:	89 59 08             	mov    %ebx,0x8(%rcx)
  94:	42 8b 1c 0f          	mov    (%rdi,%r9,1),%ebx
  98:	89 59 0c             	mov    %ebx,0xc(%rcx)
  9b:	42 8b 1c 2f          	mov    (%rdi,%r13,1),%ebx
  9f:	89 59 10             	mov    %ebx,0x10(%rcx)
  a2:	8b 1c 17             	mov    (%rdi,%rdx,1),%ebx
  a5:	89 59 14             	mov    %ebx,0x14(%rcx)
  a8:	42 8b 1c 27          	mov    (%rdi,%r12,1),%ebx
  ac:	89 59 18             	mov    %ebx,0x18(%rcx)
  af:	42 8b 1c 3f          	mov    (%rdi,%r15,1),%ebx
  b3:	89 59 1c             	mov    %ebx,0x1c(%rcx)
  b6:	48 83 c1 20          	add    $0x20,%rcx
  ba:	4c 01 f7             	add    %r14,%rdi
  bd:	83 c6 fc             	add    $0xfffffffc,%esi
  c0:	75 be                	jne    80 <ScaleARGBRowDownEven_C+0x80>
  c2:	4c 8b 45 c0          	mov    -0x40(%rbp),%r8
  c6:	4c 8b 4d c8          	mov    -0x38(%rbp),%r9
  ca:	48 8b 5d d0          	mov    -0x30(%rbp),%rbx
  ce:	85 c0                	test   %eax,%eax
  d0:	74 25                	je     f7 <ScaleARGBRowDownEven_C+0xf7>
  d2:	48 c1 e3 02          	shl    $0x2,%rbx
  d6:	66 2e 0f 1f 84 00 00 	nopw   %cs:0x0(%rax,%rax,1)
  dd:	00 00 00 
  e0:	8b 17                	mov    (%rdi),%edx
  e2:	89 11                	mov    %edx,(%rcx)
  e4:	42 8b 14 8f          	mov    (%rdi,%r9,4),%edx
  e8:	89 51 04             	mov    %edx,0x4(%rcx)
  eb:	48 83 c1 08          	add    $0x8,%rcx
  ef:	48 01 df             	add    %rbx,%rdi
  f2:	83 c0 ff             	add    $0xffffffff,%eax
  f5:	75 e9                	jne    e0 <ScaleARGBRowDownEven_C+0xe0>
  f7:	41 f6 c0 01          	test   $0x1,%r8b
  fb:	74 04                	je     101 <ScaleARGBRowDownEven_C+0x101>
  fd:	8b 07                	mov    (%rdi),%eax
  ff:	89 01                	mov    %eax,(%rcx)
 101:	5b                   	pop    %rbx
 102:	41 5c                	pop    %r12
 104:	41 5d                	pop    %r13
 106:	41 5e                	pop    %r14
 108:	41 5f                	pop    %r15
 10a:	5d                   	pop    %rbp
 10b:	c3                   	retq   

Disassembly of section .text.ScaleARGBRowDownEvenBox_C:

0000000000000000 <ScaleARGBRowDownEvenBox_C>:
   0:	55                   	push   %rbp
   1:	48 89 e5             	mov    %rsp,%rbp
   4:	45 85 c0             	test   %r8d,%r8d
   7:	0f 8e b2 00 00 00    	jle    bf <ScaleARGBRowDownEvenBox_C+0xbf>
   d:	c1 e2 02             	shl    $0x2,%edx
  10:	4c 63 ca             	movslq %edx,%r9
  13:	45 89 c0             	mov    %r8d,%r8d
  16:	48 83 c7 07          	add    $0x7,%rdi
  1a:	45 31 db             	xor    %r11d,%r11d
  1d:	0f 1f 00             	nopl   (%rax)
  20:	44 0f b6 57 f9       	movzbl -0x7(%rdi),%r10d
  25:	0f b6 57 fd          	movzbl -0x3(%rdi),%edx
  29:	44 01 d2             	add    %r10d,%edx
  2c:	0f b6 44 37 f9       	movzbl -0x7(%rdi,%rsi,1),%eax
  31:	01 d0                	add    %edx,%eax
  33:	0f b6 54 37 fd       	movzbl -0x3(%rdi,%rsi,1),%edx
  38:	8d 04 02             	lea    (%rdx,%rax,1),%eax
  3b:	83 c0 02             	add    $0x2,%eax
  3e:	c1 e8 02             	shr    $0x2,%eax
  41:	42 88 04 99          	mov    %al,(%rcx,%r11,4)
  45:	0f b6 47 fa          	movzbl -0x6(%rdi),%eax
  49:	0f b6 57 fe          	movzbl -0x2(%rdi),%edx
  4d:	01 c2                	add    %eax,%edx
  4f:	0f b6 44 37 fa       	movzbl -0x6(%rdi,%rsi,1),%eax
  54:	01 d0                	add    %edx,%eax
  56:	0f b6 54 37 fe       	movzbl -0x2(%rdi,%rsi,1),%edx
  5b:	8d 04 02             	lea    (%rdx,%rax,1),%eax
  5e:	83 c0 02             	add    $0x2,%eax
  61:	c1 e8 02             	shr    $0x2,%eax
  64:	42 88 44 99 01       	mov    %al,0x1(%rcx,%r11,4)
  69:	0f b6 47 fb          	movzbl -0x5(%rdi),%eax
  6d:	0f b6 57 ff          	movzbl -0x1(%rdi),%edx
  71:	01 c2                	add    %eax,%edx
  73:	0f b6 44 37 fb       	movzbl -0x5(%rdi,%rsi,1),%eax
  78:	01 d0                	add    %edx,%eax
  7a:	0f b6 54 37 ff       	movzbl -0x1(%rdi,%rsi,1),%edx
  7f:	8d 04 02             	lea    (%rdx,%rax,1),%eax
  82:	83 c0 02             	add    $0x2,%eax
  85:	c1 e8 02             	shr    $0x2,%eax
  88:	42 88 44 99 02       	mov    %al,0x2(%rcx,%r11,4)
  8d:	0f b6 47 fc          	movzbl -0x4(%rdi),%eax
  91:	0f b6 17             	movzbl (%rdi),%edx
  94:	01 c2                	add    %eax,%edx
  96:	0f b6 44 37 fc       	movzbl -0x4(%rdi,%rsi,1),%eax
  9b:	01 d0                	add    %edx,%eax
  9d:	0f b6 14 37          	movzbl (%rdi,%rsi,1),%edx
  a1:	8d 04 02             	lea    (%rdx,%rax,1),%eax
  a4:	83 c0 02             	add    $0x2,%eax
  a7:	c1 e8 02             	shr    $0x2,%eax
  aa:	42 88 44 99 03       	mov    %al,0x3(%rcx,%r11,4)
  af:	49 83 c3 01          	add    $0x1,%r11
  b3:	4c 01 cf             	add    %r9,%rdi
  b6:	45 39 d8             	cmp    %r11d,%r8d
  b9:	0f 85 61 ff ff ff    	jne    20 <ScaleARGBRowDownEvenBox_C+0x20>
  bf:	5d                   	pop    %rbp
  c0:	c3                   	retq   

Disassembly of section .text.ScaleARGBCols_C:

0000000000000000 <ScaleARGBCols_C>:
   0:	55                   	push   %rbp
   1:	48 89 e5             	mov    %rsp,%rbp
   4:	41 56                	push   %r14
   6:	53                   	push   %rbx
   7:	83 fa 02             	cmp    $0x2,%edx
   a:	0f 8c ab 00 00 00    	jl     bb <ScaleARGBCols_C+0xbb>
  10:	44 8d 52 fe          	lea    -0x2(%rdx),%r10d
  14:	41 d1 ea             	shr    %r10d
  17:	45 8d 72 01          	lea    0x1(%r10),%r14d
  1b:	45 89 f1             	mov    %r14d,%r9d
  1e:	41 83 e1 01          	and    $0x1,%r9d
  22:	45 85 d2             	test   %r10d,%r10d
  25:	74 6c                	je     93 <ScaleARGBCols_C+0x93>
  27:	45 29 ce             	sub    %r9d,%r14d
  2a:	47 8d 14 40          	lea    (%r8,%r8,2),%r10d
  2e:	47 8d 1c 00          	lea    (%r8,%r8,1),%r11d
  32:	66 2e 0f 1f 84 00 00 	nopw   %cs:0x0(%rax,%rax,1)
  39:	00 00 00 
  3c:	0f 1f 40 00          	nopl   0x0(%rax)
  40:	89 cb                	mov    %ecx,%ebx
  42:	c1 fb 10             	sar    $0x10,%ebx
  45:	48 63 db             	movslq %ebx,%rbx
  48:	8b 1c 9e             	mov    (%rsi,%rbx,4),%ebx
  4b:	89 1f                	mov    %ebx,(%rdi)
  4d:	42 8d 04 01          	lea    (%rcx,%r8,1),%eax
  51:	89 c3                	mov    %eax,%ebx
  53:	c1 fb 10             	sar    $0x10,%ebx
  56:	48 63 db             	movslq %ebx,%rbx
  59:	8b 1c 9e             	mov    (%rsi,%rbx,4),%ebx
  5c:	89 5f 04             	mov    %ebx,0x4(%rdi)
  5f:	44 01 c0             	add    %r8d,%eax
  62:	41 8d 1c 0b          	lea    (%r11,%rcx,1),%ebx
  66:	c1 fb 10             	sar    $0x10,%ebx
  69:	48 63 db             	movslq %ebx,%rbx
  6c:	8b 1c 9e             	mov    (%rsi,%rbx,4),%ebx
  6f:	89 5f 08             	mov    %ebx,0x8(%rdi)
  72:	44 01 c0             	add    %r8d,%eax
  75:	44 01 d1             	add    %r10d,%ecx
  78:	c1 f9 10             	sar    $0x10,%ecx
  7b:	48 63 c9             	movslq %ecx,%rcx
  7e:	8b 0c 8e             	mov    (%rsi,%rcx,4),%ecx
  81:	89 4f 0c             	mov    %ecx,0xc(%rdi)
  84:	89 c1                	mov    %eax,%ecx
  86:	44 01 c1             	add    %r8d,%ecx
  89:	48 83 c7 10          	add    $0x10,%rdi
  8d:	41 83 c6 fe          	add    $0xfffffffe,%r14d
  91:	75 ad                	jne    40 <ScaleARGBCols_C+0x40>
  93:	45 85 c9             	test   %r9d,%r9d
  96:	74 23                	je     bb <ScaleARGBCols_C+0xbb>
  98:	89 c8                	mov    %ecx,%eax
  9a:	c1 f8 10             	sar    $0x10,%eax
  9d:	48 98                	cltq   
  9f:	8b 04 86             	mov    (%rsi,%rax,4),%eax
  a2:	89 07                	mov    %eax,(%rdi)
  a4:	44 01 c1             	add    %r8d,%ecx
  a7:	89 c8                	mov    %ecx,%eax
  a9:	c1 f8 10             	sar    $0x10,%eax
  ac:	48 98                	cltq   
  ae:	8b 04 86             	mov    (%rsi,%rax,4),%eax
  b1:	89 47 04             	mov    %eax,0x4(%rdi)
  b4:	48 83 c7 08          	add    $0x8,%rdi
  b8:	44 01 c1             	add    %r8d,%ecx
  bb:	f6 c2 01             	test   $0x1,%dl
  be:	74 0b                	je     cb <ScaleARGBCols_C+0xcb>
  c0:	c1 f9 10             	sar    $0x10,%ecx
  c3:	48 63 c1             	movslq %ecx,%rax
  c6:	8b 04 86             	mov    (%rsi,%rax,4),%eax
  c9:	89 07                	mov    %eax,(%rdi)
  cb:	5b                   	pop    %rbx
  cc:	41 5e                	pop    %r14
  ce:	5d                   	pop    %rbp
  cf:	c3                   	retq   

Disassembly of section .text.ScaleARGBCols64_C:

0000000000000000 <ScaleARGBCols64_C>:
   0:	55                   	push   %rbp
   1:	48 89 e5             	mov    %rsp,%rbp
   4:	41 56                	push   %r14
   6:	53                   	push   %rbx
   7:	48 63 c1             	movslq %ecx,%rax
   a:	83 fa 02             	cmp    $0x2,%edx
   d:	0f 8c a3 00 00 00    	jl     b6 <ScaleARGBCols64_C+0xb6>
  13:	4d 63 c8             	movslq %r8d,%r9
  16:	44 8d 52 fe          	lea    -0x2(%rdx),%r10d
  1a:	41 d1 ea             	shr    %r10d
  1d:	45 8d 72 01          	lea    0x1(%r10),%r14d
  21:	45 89 f0             	mov    %r14d,%r8d
  24:	41 83 e0 01          	and    $0x1,%r8d
  28:	45 85 d2             	test   %r10d,%r10d
  2b:	74 61                	je     8e <ScaleARGBCols64_C+0x8e>
  2d:	45 29 c6             	sub    %r8d,%r14d
  30:	4f 8d 14 49          	lea    (%r9,%r9,2),%r10
  34:	4f 8d 1c 09          	lea    (%r9,%r9,1),%r11
  38:	0f 1f 84 00 00 00 00 	nopl   0x0(%rax,%rax,1)
  3f:	00 
  40:	48 89 c3             	mov    %rax,%rbx
  43:	48 c1 fb 10          	sar    $0x10,%rbx
  47:	8b 1c 9e             	mov    (%rsi,%rbx,4),%ebx
  4a:	89 1f                	mov    %ebx,(%rdi)
  4c:	4a 8d 0c 08          	lea    (%rax,%r9,1),%rcx
  50:	48 89 cb             	mov    %rcx,%rbx
  53:	48 c1 fb 10          	sar    $0x10,%rbx
  57:	8b 1c 9e             	mov    (%rsi,%rbx,4),%ebx
  5a:	89 5f 04             	mov    %ebx,0x4(%rdi)
  5d:	4c 01 c9             	add    %r9,%rcx
  60:	49 8d 1c 03          	lea    (%r11,%rax,1),%rbx
  64:	48 c1 fb 10          	sar    $0x10,%rbx
  68:	8b 1c 9e             	mov    (%rsi,%rbx,4),%ebx
  6b:	89 5f 08             	mov    %ebx,0x8(%rdi)
  6e:	4c 01 c9             	add    %r9,%rcx
  71:	4c 01 d0             	add    %r10,%rax
  74:	48 c1 f8 10          	sar    $0x10,%rax
  78:	8b 04 86             	mov    (%rsi,%rax,4),%eax
  7b:	89 47 0c             	mov    %eax,0xc(%rdi)
  7e:	48 89 c8             	mov    %rcx,%rax
  81:	4c 01 c8             	add    %r9,%rax
  84:	48 83 c7 10          	add    $0x10,%rdi
  88:	41 83 c6 fe          	add    $0xfffffffe,%r14d
  8c:	75 b2                	jne    40 <ScaleARGBCols64_C+0x40>
  8e:	45 85 c0             	test   %r8d,%r8d
  91:	74 23                	je     b6 <ScaleARGBCols64_C+0xb6>
  93:	48 89 c1             	mov    %rax,%rcx
  96:	48 c1 f9 10          	sar    $0x10,%rcx
  9a:	8b 0c 8e             	mov    (%rsi,%rcx,4),%ecx
  9d:	89 0f                	mov    %ecx,(%rdi)
  9f:	4c 01 c8             	add    %r9,%rax
  a2:	48 89 c1             	mov    %rax,%rcx
  a5:	48 c1 f9 10          	sar    $0x10,%rcx
  a9:	8b 0c 8e             	mov    (%rsi,%rcx,4),%ecx
  ac:	89 4f 04             	mov    %ecx,0x4(%rdi)
  af:	48 83 c7 08          	add    $0x8,%rdi
  b3:	4c 01 c8             	add    %r9,%rax
  b6:	f6 c2 01             	test   $0x1,%dl
  b9:	74 09                	je     c4 <ScaleARGBCols64_C+0xc4>
  bb:	48 c1 f8 10          	sar    $0x10,%rax
  bf:	8b 04 86             	mov    (%rsi,%rax,4),%eax
  c2:	89 07                	mov    %eax,(%rdi)
  c4:	5b                   	pop    %rbx
  c5:	41 5e                	pop    %r14
  c7:	5d                   	pop    %rbp
  c8:	c3                   	retq   

Disassembly of section .text.ScaleARGBColsUp2_C:

0000000000000000 <ScaleARGBColsUp2_C>:
   0:	55                   	push   %rbp
   1:	48 89 e5             	mov    %rsp,%rbp
   4:	83 fa 02             	cmp    $0x2,%edx
   7:	7c 7c                	jl     85 <ScaleARGBColsUp2_C+0x85>
   9:	44 8d 42 fe          	lea    -0x2(%rdx),%r8d
   d:	44 89 c1             	mov    %r8d,%ecx
  10:	d1 e9                	shr    %ecx
  12:	83 c1 01             	add    $0x1,%ecx
  15:	41 89 c9             	mov    %ecx,%r9d
  18:	41 83 e1 03          	and    $0x3,%r9d
  1c:	41 83 f8 06          	cmp    $0x6,%r8d
  20:	72 3d                	jb     5f <ScaleARGBColsUp2_C+0x5f>
  22:	44 29 c9             	sub    %r9d,%ecx
  25:	66 2e 0f 1f 84 00 00 	nopw   %cs:0x0(%rax,%rax,1)
  2c:	00 00 00 
  2f:	90                   	nop
  30:	8b 06                	mov    (%rsi),%eax
  32:	89 07                	mov    %eax,(%rdi)
  34:	89 47 04             	mov    %eax,0x4(%rdi)
  37:	8b 46 04             	mov    0x4(%rsi),%eax
  3a:	89 47 08             	mov    %eax,0x8(%rdi)
  3d:	89 47 0c             	mov    %eax,0xc(%rdi)
  40:	8b 46 08             	mov    0x8(%rsi),%eax
  43:	89 47 10             	mov    %eax,0x10(%rdi)
  46:	89 47 14             	mov    %eax,0x14(%rdi)
  49:	8b 46 0c             	mov    0xc(%rsi),%eax
  4c:	89 47 18             	mov    %eax,0x18(%rdi)
  4f:	89 47 1c             	mov    %eax,0x1c(%rdi)
  52:	48 83 c6 10          	add    $0x10,%rsi
  56:	48 83 c7 20          	add    $0x20,%rdi
  5a:	83 c1 fc             	add    $0xfffffffc,%ecx
  5d:	75 d1                	jne    30 <ScaleARGBColsUp2_C+0x30>
  5f:	45 85 c9             	test   %r9d,%r9d
  62:	74 21                	je     85 <ScaleARGBColsUp2_C+0x85>
  64:	66 2e 0f 1f 84 00 00 	nopw   %cs:0x0(%rax,%rax,1)
  6b:	00 00 00 
  6e:	66 90                	xchg   %ax,%ax
  70:	8b 06                	mov    (%rsi),%eax
  72:	89 07                	mov    %eax,(%rdi)
  74:	89 47 04             	mov    %eax,0x4(%rdi)
  77:	48 83 c6 04          	add    $0x4,%rsi
  7b:	48 83 c7 08          	add    $0x8,%rdi
  7f:	41 83 c1 ff          	add    $0xffffffff,%r9d
  83:	75 eb                	jne    70 <ScaleARGBColsUp2_C+0x70>
  85:	f6 c2 01             	test   $0x1,%dl
  88:	74 04                	je     8e <ScaleARGBColsUp2_C+0x8e>
  8a:	8b 06                	mov    (%rsi),%eax
  8c:	89 07                	mov    %eax,(%rdi)
  8e:	5d                   	pop    %rbp
  8f:	c3                   	retq   

Disassembly of section .text.ScaleARGBFilterCols_C:

0000000000000000 <ScaleARGBFilterCols_C>:
   0:	55                   	push   %rbp
   1:	48 89 e5             	mov    %rsp,%rbp
   4:	41 57                	push   %r15
   6:	41 56                	push   %r14
   8:	41 55                	push   %r13
   a:	41 54                	push   %r12
   c:	53                   	push   %rbx
   d:	41 89 cd             	mov    %ecx,%r13d
  10:	41 89 d1             	mov    %edx,%r9d
  13:	41 83 c1 ff          	add    $0xffffffff,%r9d
  17:	0f 8e 67 01 00 00    	jle    184 <ScaleARGBFilterCols_C+0x184>
  1d:	89 55 d4             	mov    %edx,-0x2c(%rbp)
  20:	45 31 d2             	xor    %r10d,%r10d
  23:	66 2e 0f 1f 84 00 00 	nopw   %cs:0x0(%rax,%rax,1)
  2a:	00 00 00 
  2d:	0f 1f 00             	nopl   (%rax)
  30:	44 89 e8             	mov    %r13d,%eax
  33:	c1 f8 10             	sar    $0x10,%eax
  36:	45 89 ec             	mov    %r13d,%r12d
  39:	41 c1 ec 09          	shr    $0x9,%r12d
  3d:	41 83 e4 7f          	and    $0x7f,%r12d
  41:	48 98                	cltq   
  43:	8b 0c 86             	mov    (%rsi,%rax,4),%ecx
  46:	8b 54 86 04          	mov    0x4(%rsi,%rax,4),%edx
  4a:	41 89 cb             	mov    %ecx,%r11d
  4d:	41 89 ce             	mov    %ecx,%r14d
  50:	41 c1 eb 18          	shr    $0x18,%r11d
  54:	41 89 d7             	mov    %edx,%r15d
  57:	0f b6 c6             	movzbl %dh,%eax
  5a:	0f b6 ca             	movzbl %dl,%ecx
  5d:	c1 ea 18             	shr    $0x18,%edx
  60:	41 0f af d4          	imul   %r12d,%edx
  64:	41 c1 ef 10          	shr    $0x10,%r15d
  68:	45 0f b6 ff          	movzbl %r15b,%r15d
  6c:	45 0f af fc          	imul   %r12d,%r15d
  70:	41 0f af c4          	imul   %r12d,%eax
  74:	41 0f af cc          	imul   %r12d,%ecx
  78:	41 83 f4 7f          	xor    $0x7f,%r12d
  7c:	45 0f af dc          	imul   %r12d,%r11d
  80:	44 01 da             	add    %r11d,%edx
  83:	44 89 f3             	mov    %r14d,%ebx
  86:	c1 eb 10             	shr    $0x10,%ebx
  89:	0f b6 db             	movzbl %bl,%ebx
  8c:	41 0f af dc          	imul   %r12d,%ebx
  90:	41 01 df             	add    %ebx,%r15d
  93:	44 89 f3             	mov    %r14d,%ebx
  96:	0f b6 df             	movzbl %bh,%ebx
  99:	45 0f b6 de          	movzbl %r14b,%r11d
  9d:	83 e2 80             	and    $0xffffff80,%edx
  a0:	c1 e2 11             	shl    $0x11,%edx
  a3:	41 c1 e7 09          	shl    $0x9,%r15d
  a7:	41 81 e7 00 00 ff 01 	and    $0x1ff0000,%r15d
  ae:	41 0f af dc          	imul   %r12d,%ebx
  b2:	01 d8                	add    %ebx,%eax
  b4:	01 c0                	add    %eax,%eax
  b6:	25 00 ff 01 00       	and    $0x1ff00,%eax
  bb:	45 0f af dc          	imul   %r12d,%r11d
  bf:	44 01 d9             	add    %r11d,%ecx
  c2:	c1 e9 07             	shr    $0x7,%ecx
  c5:	09 d1                	or     %edx,%ecx
  c7:	44 09 f9             	or     %r15d,%ecx
  ca:	09 c1                	or     %eax,%ecx
  cc:	89 0f                	mov    %ecx,(%rdi)
  ce:	45 01 c5             	add    %r8d,%r13d
  d1:	44 89 e8             	mov    %r13d,%eax
  d4:	c1 f8 10             	sar    $0x10,%eax
  d7:	45 89 ec             	mov    %r13d,%r12d
  da:	41 c1 ec 09          	shr    $0x9,%r12d
  de:	41 83 e4 7f          	and    $0x7f,%r12d
  e2:	48 98                	cltq   
  e4:	44 8b 34 86          	mov    (%rsi,%rax,4),%r14d
  e8:	8b 54 86 04          	mov    0x4(%rsi,%rax,4),%edx
  ec:	45 89 f3             	mov    %r14d,%r11d
  ef:	41 c1 eb 18          	shr    $0x18,%r11d
  f3:	41 89 d7             	mov    %edx,%r15d
  f6:	0f b6 c6             	movzbl %dh,%eax
  f9:	0f b6 da             	movzbl %dl,%ebx
  fc:	c1 ea 18             	shr    $0x18,%edx
  ff:	41 0f af d4          	imul   %r12d,%edx
 103:	41 c1 ef 10          	shr    $0x10,%r15d
 107:	45 0f b6 ff          	movzbl %r15b,%r15d
 10b:	45 0f af fc          	imul   %r12d,%r15d
 10f:	41 0f af c4          	imul   %r12d,%eax
 113:	41 0f af dc          	imul   %r12d,%ebx
 117:	41 83 f4 7f          	xor    $0x7f,%r12d
 11b:	45 0f af dc          	imul   %r12d,%r11d
 11f:	44 01 da             	add    %r11d,%edx
 122:	44 89 f1             	mov    %r14d,%ecx
 125:	c1 e9 10             	shr    $0x10,%ecx
 128:	0f b6 c9             	movzbl %cl,%ecx
 12b:	41 0f af cc          	imul   %r12d,%ecx
 12f:	41 01 cf             	add    %ecx,%r15d
 132:	44 89 f1             	mov    %r14d,%ecx
 135:	0f b6 cd             	movzbl %ch,%ecx
 138:	41 0f af cc          	imul   %r12d,%ecx
 13c:	01 c8                	add    %ecx,%eax
 13e:	41 0f b6 ce          	movzbl %r14b,%ecx
 142:	41 0f af cc          	imul   %r12d,%ecx
 146:	01 cb                	add    %ecx,%ebx
 148:	83 e2 80             	and    $0xffffff80,%edx
 14b:	c1 e2 11             	shl    $0x11,%edx
 14e:	c1 eb 07             	shr    $0x7,%ebx
 151:	09 d3                	or     %edx,%ebx
 153:	41 c1 e7 09          	shl    $0x9,%r15d
 157:	41 81 e7 00 00 ff 01 	and    $0x1ff0000,%r15d
 15e:	44 09 fb             	or     %r15d,%ebx
 161:	01 c0                	add    %eax,%eax
 163:	25 00 ff 01 00       	and    $0x1ff00,%eax
 168:	09 c3                	or     %eax,%ebx
 16a:	89 5f 04             	mov    %ebx,0x4(%rdi)
 16d:	45 01 c5             	add    %r8d,%r13d
 170:	48 83 c7 08          	add    $0x8,%rdi
 174:	41 83 c2 02          	add    $0x2,%r10d
 178:	45 39 ca             	cmp    %r9d,%r10d
 17b:	0f 8c af fe ff ff    	jl     30 <ScaleARGBFilterCols_C+0x30>
 181:	8b 55 d4             	mov    -0x2c(%rbp),%edx
 184:	f6 c2 01             	test   $0x1,%dl
 187:	0f 84 95 00 00 00    	je     222 <ScaleARGBFilterCols_C+0x222>
 18d:	44 89 e8             	mov    %r13d,%eax
 190:	c1 f8 10             	sar    $0x10,%eax
 193:	41 c1 ed 09          	shr    $0x9,%r13d
 197:	41 83 e5 7f          	and    $0x7f,%r13d
 19b:	48 98                	cltq   
 19d:	8b 14 86             	mov    (%rsi,%rax,4),%edx
 1a0:	8b 44 86 04          	mov    0x4(%rsi,%rax,4),%eax
 1a4:	41 89 d0             	mov    %edx,%r8d
 1a7:	0f b6 ce             	movzbl %dh,%ecx
 1aa:	44 0f b6 ca          	movzbl %dl,%r9d
 1ae:	89 d6                	mov    %edx,%esi
 1b0:	c1 ee 18             	shr    $0x18,%esi
 1b3:	45 89 eb             	mov    %r13d,%r11d
 1b6:	41 83 f3 7f          	xor    $0x7f,%r11d
 1ba:	41 0f af f3          	imul   %r11d,%esi
 1be:	41 89 c2             	mov    %eax,%r10d
 1c1:	0f b6 d4             	movzbl %ah,%edx
 1c4:	0f b6 d8             	movzbl %al,%ebx
 1c7:	c1 e8 18             	shr    $0x18,%eax
 1ca:	41 0f af c5          	imul   %r13d,%eax
 1ce:	01 f0                	add    %esi,%eax
 1d0:	41 c1 e8 10          	shr    $0x10,%r8d
 1d4:	45 0f b6 c0          	movzbl %r8b,%r8d
 1d8:	45 0f af c3          	imul   %r11d,%r8d
 1dc:	41 c1 ea 10          	shr    $0x10,%r10d
 1e0:	41 0f b6 f2          	movzbl %r10b,%esi
 1e4:	41 0f af f5          	imul   %r13d,%esi
 1e8:	44 01 c6             	add    %r8d,%esi
 1eb:	83 e0 80             	and    $0xffffff80,%eax
 1ee:	c1 e0 11             	shl    $0x11,%eax
 1f1:	c1 e6 09             	shl    $0x9,%esi
 1f4:	81 e6 00 00 ff 01    	and    $0x1ff0000,%esi
 1fa:	41 0f af cb          	imul   %r11d,%ecx
 1fe:	41 0f af d5          	imul   %r13d,%edx
 202:	01 ca                	add    %ecx,%edx
 204:	01 d2                	add    %edx,%edx
 206:	81 e2 00 ff 01 00    	and    $0x1ff00,%edx
 20c:	45 0f af cb          	imul   %r11d,%r9d
 210:	41 0f af dd          	imul   %r13d,%ebx
 214:	44 01 cb             	add    %r9d,%ebx
 217:	c1 eb 07             	shr    $0x7,%ebx
 21a:	09 c3                	or     %eax,%ebx
 21c:	09 f3                	or     %esi,%ebx
 21e:	09 d3                	or     %edx,%ebx
 220:	89 1f                	mov    %ebx,(%rdi)
 222:	5b                   	pop    %rbx
 223:	41 5c                	pop    %r12
 225:	41 5d                	pop    %r13
 227:	41 5e                	pop    %r14
 229:	41 5f                	pop    %r15
 22b:	5d                   	pop    %rbp
 22c:	c3                   	retq   

Disassembly of section .text.ScaleARGBFilterCols64_C:

0000000000000000 <ScaleARGBFilterCols64_C>:
   0:	55                   	push   %rbp
   1:	48 89 e5             	mov    %rsp,%rbp
   4:	41 57                	push   %r15
   6:	41 56                	push   %r14
   8:	41 55                	push   %r13
   a:	41 54                	push   %r12
   c:	53                   	push   %rbx
   d:	4c 63 d9             	movslq %ecx,%r11
  10:	41 89 d1             	mov    %edx,%r9d
  13:	41 83 c1 ff          	add    $0xffffffff,%r9d
  17:	0f 8e 65 01 00 00    	jle    182 <ScaleARGBFilterCols64_C+0x182>
  1d:	89 55 d4             	mov    %edx,-0x2c(%rbp)
  20:	4d 63 c0             	movslq %r8d,%r8
  23:	45 31 d2             	xor    %r10d,%r10d
  26:	66 2e 0f 1f 84 00 00 	nopw   %cs:0x0(%rax,%rax,1)
  2d:	00 00 00 
  30:	4c 89 d8             	mov    %r11,%rax
  33:	48 c1 f8 10          	sar    $0x10,%rax
  37:	45 89 dd             	mov    %r11d,%r13d
  3a:	41 c1 ed 09          	shr    $0x9,%r13d
  3e:	41 83 e5 7f          	and    $0x7f,%r13d
  42:	8b 0c 86             	mov    (%rsi,%rax,4),%ecx
  45:	8b 54 86 04          	mov    0x4(%rsi,%rax,4),%edx
  49:	41 89 cc             	mov    %ecx,%r12d
  4c:	41 89 ce             	mov    %ecx,%r14d
  4f:	41 c1 ec 18          	shr    $0x18,%r12d
  53:	41 89 d7             	mov    %edx,%r15d
  56:	0f b6 c6             	movzbl %dh,%eax
  59:	0f b6 ca             	movzbl %dl,%ecx
  5c:	c1 ea 18             	shr    $0x18,%edx
  5f:	41 0f af d5          	imul   %r13d,%edx
  63:	41 c1 ef 10          	shr    $0x10,%r15d
  67:	45 0f b6 ff          	movzbl %r15b,%r15d
  6b:	45 0f af fd          	imul   %r13d,%r15d
  6f:	41 0f af c5          	imul   %r13d,%eax
  73:	41 0f af cd          	imul   %r13d,%ecx
  77:	41 83 f5 7f          	xor    $0x7f,%r13d
  7b:	45 0f af e5          	imul   %r13d,%r12d
  7f:	44 01 e2             	add    %r12d,%edx
  82:	44 89 f3             	mov    %r14d,%ebx
  85:	c1 eb 10             	shr    $0x10,%ebx
  88:	0f b6 db             	movzbl %bl,%ebx
  8b:	41 0f af dd          	imul   %r13d,%ebx
  8f:	41 01 df             	add    %ebx,%r15d
  92:	44 89 f3             	mov    %r14d,%ebx
  95:	0f b6 df             	movzbl %bh,%ebx
  98:	45 0f b6 e6          	movzbl %r14b,%r12d
  9c:	83 e2 80             	and    $0xffffff80,%edx
  9f:	c1 e2 11             	shl    $0x11,%edx
  a2:	41 c1 e7 09          	shl    $0x9,%r15d
  a6:	41 81 e7 00 00 ff 01 	and    $0x1ff0000,%r15d
  ad:	41 0f af dd          	imul   %r13d,%ebx
  b1:	01 d8                	add    %ebx,%eax
  b3:	01 c0                	add    %eax,%eax
  b5:	25 00 ff 01 00       	and    $0x1ff00,%eax
  ba:	45 0f af e5          	imul   %r13d,%r12d
  be:	44 01 e1             	add    %r12d,%ecx
  c1:	c1 e9 07             	shr    $0x7,%ecx
  c4:	09 d1                	or     %edx,%ecx
  c6:	44 09 f9             	or     %r15d,%ecx
  c9:	09 c1                	or     %eax,%ecx
  cb:	89 0f                	mov    %ecx,(%rdi)
  cd:	4d 01 c3             	add    %r8,%r11
  d0:	4c 89 d8             	mov    %r11,%rax
  d3:	48 c1 f8 10          	sar    $0x10,%rax
  d7:	45 89 dd             	mov    %r11d,%r13d
  da:	41 c1 ed 09          	shr    $0x9,%r13d
  de:	41 83 e5 7f          	and    $0x7f,%r13d
  e2:	44 8b 34 86          	mov    (%rsi,%rax,4),%r14d
  e6:	8b 54 86 04          	mov    0x4(%rsi,%rax,4),%edx
  ea:	45 89 f4             	mov    %r14d,%r12d
  ed:	41 c1 ec 18          	shr    $0x18,%r12d
  f1:	41 89 d7             	mov    %edx,%r15d
  f4:	0f b6 c6             	movzbl %dh,%eax
  f7:	0f b6 da             	movzbl %dl,%ebx
  fa:	c1 ea 18             	shr    $0x18,%edx
  fd:	41 0f af d5          	imul   %r13d,%edx
 101:	41 c1 ef 10          	shr    $0x10,%r15d
 105:	45 0f b6 ff          	movzbl %r15b,%r15d
 109:	45 0f af fd          	imul   %r13d,%r15d
 10d:	41 0f af c5          	imul   %r13d,%eax
 111:	41 0f af dd          	imul   %r13d,%ebx
 115:	41 83 f5 7f          	xor    $0x7f,%r13d
 119:	45 0f af e5          	imul   %r13d,%r12d
 11d:	44 01 e2             	add    %r12d,%edx
 120:	44 89 f1             	mov    %r14d,%ecx
 123:	c1 e9 10             	shr    $0x10,%ecx
 126:	0f b6 c9             	movzbl %cl,%ecx
 129:	41 0f af cd          	imul   %r13d,%ecx
 12d:	41 01 cf             	add    %ecx,%r15d
 130:	44 89 f1             	mov    %r14d,%ecx
 133:	0f b6 cd             	movzbl %ch,%ecx
 136:	41 0f af cd          	imul   %r13d,%ecx
 13a:	01 c8                	add    %ecx,%eax
 13c:	41 0f b6 ce          	movzbl %r14b,%ecx
 140:	41 0f af cd          	imul   %r13d,%ecx
 144:	01 cb                	add    %ecx,%ebx
 146:	83 e2 80             	and    $0xffffff80,%edx
 149:	c1 e2 11             	shl    $0x11,%edx
 14c:	c1 eb 07             	shr    $0x7,%ebx
 14f:	09 d3                	or     %edx,%ebx
 151:	41 c1 e7 09          	shl    $0x9,%r15d
 155:	41 81 e7 00 00 ff 01 	and    $0x1ff0000,%r15d
 15c:	44 09 fb             	or     %r15d,%ebx
 15f:	01 c0                	add    %eax,%eax
 161:	25 00 ff 01 00       	and    $0x1ff00,%eax
 166:	09 c3                	or     %eax,%ebx
 168:	89 5f 04             	mov    %ebx,0x4(%rdi)
 16b:	4d 01 c3             	add    %r8,%r11
 16e:	48 83 c7 08          	add    $0x8,%rdi
 172:	41 83 c2 02          	add    $0x2,%r10d
 176:	45 39 ca             	cmp    %r9d,%r10d
 179:	0f 8c b1 fe ff ff    	jl     30 <ScaleARGBFilterCols64_C+0x30>
 17f:	8b 55 d4             	mov    -0x2c(%rbp),%edx
 182:	f6 c2 01             	test   $0x1,%dl
 185:	0f 84 94 00 00 00    	je     21f <ScaleARGBFilterCols64_C+0x21f>
 18b:	4c 89 d8             	mov    %r11,%rax
 18e:	48 c1 f8 10          	sar    $0x10,%rax
 192:	41 c1 eb 09          	shr    $0x9,%r11d
 196:	41 83 e3 7f          	and    $0x7f,%r11d
 19a:	8b 0c 86             	mov    (%rsi,%rax,4),%ecx
 19d:	8b 44 86 04          	mov    0x4(%rsi,%rax,4),%eax
 1a1:	41 89 c8             	mov    %ecx,%r8d
 1a4:	0f b6 f5             	movzbl %ch,%esi
 1a7:	44 0f b6 c9          	movzbl %cl,%r9d
 1ab:	89 ca                	mov    %ecx,%edx
 1ad:	c1 ea 18             	shr    $0x18,%edx
 1b0:	45 89 de             	mov    %r11d,%r14d
 1b3:	41 83 f6 7f          	xor    $0x7f,%r14d
 1b7:	41 0f af d6          	imul   %r14d,%edx
 1bb:	41 89 c2             	mov    %eax,%r10d
 1be:	0f b6 cc             	movzbl %ah,%ecx
 1c1:	0f b6 d8             	movzbl %al,%ebx
 1c4:	c1 e8 18             	shr    $0x18,%eax
 1c7:	41 0f af c3          	imul   %r11d,%eax
 1cb:	01 d0                	add    %edx,%eax
 1cd:	41 c1 e8 10          	shr    $0x10,%r8d
 1d1:	45 0f b6 c0          	movzbl %r8b,%r8d
 1d5:	45 0f af c6          	imul   %r14d,%r8d
 1d9:	41 c1 ea 10          	shr    $0x10,%r10d
 1dd:	41 0f b6 d2          	movzbl %r10b,%edx
 1e1:	41 0f af d3          	imul   %r11d,%edx
 1e5:	44 01 c2             	add    %r8d,%edx
 1e8:	83 e0 80             	and    $0xffffff80,%eax
 1eb:	c1 e0 11             	shl    $0x11,%eax
 1ee:	c1 e2 09             	shl    $0x9,%edx
 1f1:	81 e2 00 00 ff 01    	and    $0x1ff0000,%edx
 1f7:	41 0f af f6          	imul   %r14d,%esi
 1fb:	41 0f af cb          	imul   %r11d,%ecx
 1ff:	01 f1                	add    %esi,%ecx
 201:	01 c9                	add    %ecx,%ecx
 203:	81 e1 00 ff 01 00    	and    $0x1ff00,%ecx
 209:	45 0f af ce          	imul   %r14d,%r9d
 20d:	41 0f af db          	imul   %r11d,%ebx
 211:	44 01 cb             	add    %r9d,%ebx
 214:	c1 eb 07             	shr    $0x7,%ebx
 217:	09 c3                	or     %eax,%ebx
 219:	09 d3                	or     %edx,%ebx
 21b:	09 cb                	or     %ecx,%ebx
 21d:	89 1f                	mov    %ebx,(%rdi)
 21f:	5b                   	pop    %rbx
 220:	41 5c                	pop    %r12
 222:	41 5d                	pop    %r13
 224:	41 5e                	pop    %r14
 226:	41 5f                	pop    %r15
 228:	5d                   	pop    %rbp
 229:	c3                   	retq   

Disassembly of section .text.ScalePlaneVertical:

0000000000000000 <ScalePlaneVertical>:
   0:	55                   	push   %rbp
   1:	48 89 e5             	mov    %rsp,%rbp
   4:	41 57                	push   %r15
   6:	41 56                	push   %r14
   8:	41 55                	push   %r13
   a:	41 54                	push   %r12
   c:	53                   	push   %rbx
   d:	48 83 ec 28          	sub    $0x28,%rsp
  11:	4d 89 cf             	mov    %r9,%r15
  14:	44 89 45 c8          	mov    %r8d,-0x38(%rbp)
  18:	41 89 c8             	mov    %ecx,%r8d
  1b:	41 89 d6             	mov    %edx,%r14d
  1e:	89 f1                	mov    %esi,%ecx
  20:	89 f8                	mov    %edi,%eax
  22:	c1 e0 10             	shl    $0x10,%eax
  25:	05 ff ff fe ff       	add    $0xfffeffff,%eax
  2a:	31 db                	xor    %ebx,%ebx
  2c:	83 ff 01             	cmp    $0x1,%edi
  2f:	0f 4f d8             	cmovg  %eax,%ebx
  32:	8b 55 30             	mov    0x30(%rbp),%edx
  35:	48 8b 35 00 00 00 00 	mov    0x0(%rip),%rsi        # 3c <ScalePlaneVertical+0x3c>
  3c:	8b 06                	mov    (%rsi),%eax
  3e:	85 c0                	test   %eax,%eax
  40:	75 21                	jne    63 <ScalePlaneVertical+0x63>
  42:	4d 89 fd             	mov    %r15,%r13
  45:	41 89 cc             	mov    %ecx,%r12d
  48:	45 89 c7             	mov    %r8d,%r15d
  4b:	e8 00 00 00 00       	callq  50 <ScalePlaneVertical+0x50>
  50:	48 8b 35 00 00 00 00 	mov    0x0(%rip),%rsi        # 57 <ScalePlaneVertical+0x57>
  57:	8b 55 30             	mov    0x30(%rbp),%edx
  5a:	45 89 f8             	mov    %r15d,%r8d
  5d:	44 89 e1             	mov    %r12d,%ecx
  60:	4d 89 ef             	mov    %r13,%r15
  63:	0f af ca             	imul   %edx,%ecx
  66:	a8 40                	test   $0x40,%al
  68:	75 09                	jne    73 <ScalePlaneVertical+0x73>
  6a:	4c 8b 15 00 00 00 00 	mov    0x0(%rip),%r10        # 71 <ScalePlaneVertical+0x71>
  71:	eb 15                	jmp    88 <ScalePlaneVertical+0x88>
  73:	f6 c1 0f             	test   $0xf,%cl
  76:	75 09                	jne    81 <ScalePlaneVertical+0x81>
  78:	4c 8b 15 00 00 00 00 	mov    0x0(%rip),%r10        # 7f <ScalePlaneVertical+0x7f>
  7f:	eb 07                	jmp    88 <ScalePlaneVertical+0x88>
  81:	4c 8b 15 00 00 00 00 	mov    0x0(%rip),%r10        # 88 <ScalePlaneVertical+0x88>
  88:	8b 06                	mov    (%rsi),%eax
  8a:	85 c0                	test   %eax,%eax
  8c:	0f 84 9e 00 00 00    	je     130 <ScalePlaneVertical+0x130>
  92:	a9 00 04 00 00       	test   $0x400,%eax
  97:	0f 85 cb 00 00 00    	jne    168 <ScalePlaneVertical+0x168>
  9d:	45 85 f6             	test   %r14d,%r14d
  a0:	0f 8e 7b 00 00 00    	jle    121 <ScalePlaneVertical+0x121>
  a6:	89 de                	mov    %ebx,%esi
  a8:	8b 45 18             	mov    0x18(%rbp),%eax
  ab:	c1 f8 10             	sar    $0x10,%eax
  ae:	0f af c2             	imul   %edx,%eax
  b1:	48 98                	cltq   
  b3:	8b 5d 20             	mov    0x20(%rbp),%ebx
  b6:	4c 8b 65 10          	mov    0x10(%rbp),%r12
  ba:	49 01 c7             	add    %rax,%r15
  bd:	49 63 c0             	movslq %r8d,%rax
  c0:	48 89 45 c0          	mov    %rax,-0x40(%rbp)
  c4:	48 63 45 c8          	movslq -0x38(%rbp),%rax
  c8:	48 89 45 c8          	mov    %rax,-0x38(%rbp)
  cc:	89 75 bc             	mov    %esi,-0x44(%rbp)
  cf:	90                   	nop
  d0:	44 89 75 d4          	mov    %r14d,-0x2c(%rbp)
  d4:	39 f3                	cmp    %esi,%ebx
  d6:	0f 4f de             	cmovg  %esi,%ebx
  d9:	89 d8                	mov    %ebx,%eax
  db:	c1 f8 10             	sar    $0x10,%eax
  de:	8b 55 38             	mov    0x38(%rbp),%edx
  e1:	85 d2                	test   %edx,%edx
  e3:	0f b6 f7             	movzbl %bh,%esi
  e6:	0f 44 f2             	cmove  %edx,%esi
  e9:	41 89 f0             	mov    %esi,%r8d
  ec:	48 8b 55 c0          	mov    -0x40(%rbp),%rdx
  f0:	89 d6                	mov    %edx,%esi
  f2:	0f af f0             	imul   %eax,%esi
  f5:	48 63 f6             	movslq %esi,%rsi
  f8:	4c 01 fe             	add    %r15,%rsi
  fb:	4c 89 e7             	mov    %r12,%rdi
  fe:	41 89 cd             	mov    %ecx,%r13d
 101:	4d 89 d6             	mov    %r10,%r14
 104:	41 ff d2             	callq  *%r10
 107:	8b 75 bc             	mov    -0x44(%rbp),%esi
 10a:	4d 89 f2             	mov    %r14,%r10
 10d:	44 8b 75 d4          	mov    -0x2c(%rbp),%r14d
 111:	44 89 e9             	mov    %r13d,%ecx
 114:	4c 03 65 c8          	add    -0x38(%rbp),%r12
 118:	03 5d 28             	add    0x28(%rbp),%ebx
 11b:	41 83 c6 ff          	add    $0xffffffff,%r14d
 11f:	75 af                	jne    d0 <ScalePlaneVertical+0xd0>
 121:	48 83 c4 28          	add    $0x28,%rsp
 125:	5b                   	pop    %rbx
 126:	41 5c                	pop    %r12
 128:	41 5d                	pop    %r13
 12a:	41 5e                	pop    %r14
 12c:	41 5f                	pop    %r15
 12e:	5d                   	pop    %rbp
 12f:	c3                   	retq   
 130:	4c 89 7d c0          	mov    %r15,-0x40(%rbp)
 134:	41 89 cc             	mov    %ecx,%r12d
 137:	45 89 c5             	mov    %r8d,%r13d
 13a:	44 89 75 d4          	mov    %r14d,-0x2c(%rbp)
 13e:	4d 89 d6             	mov    %r10,%r14
 141:	41 89 d7             	mov    %edx,%r15d
 144:	e8 00 00 00 00       	callq  149 <ScalePlaneVertical+0x149>
 149:	44 89 fa             	mov    %r15d,%edx
 14c:	4d 89 f2             	mov    %r14,%r10
 14f:	44 8b 75 d4          	mov    -0x2c(%rbp),%r14d
 153:	45 89 e8             	mov    %r13d,%r8d
 156:	44 89 e1             	mov    %r12d,%ecx
 159:	4c 8b 7d c0          	mov    -0x40(%rbp),%r15
 15d:	a9 00 04 00 00       	test   $0x400,%eax
 162:	0f 84 35 ff ff ff    	je     9d <ScalePlaneVertical+0x9d>
 168:	f6 c1 1f             	test   $0x1f,%cl
 16b:	75 12                	jne    17f <ScalePlaneVertical+0x17f>
 16d:	4c 8b 15 00 00 00 00 	mov    0x0(%rip),%r10        # 174 <ScalePlaneVertical+0x174>
 174:	45 85 f6             	test   %r14d,%r14d
 177:	0f 8f 29 ff ff ff    	jg     a6 <ScalePlaneVertical+0xa6>
 17d:	eb a2                	jmp    121 <ScalePlaneVertical+0x121>
 17f:	4c 8b 15 00 00 00 00 	mov    0x0(%rip),%r10        # 186 <ScalePlaneVertical+0x186>
 186:	45 85 f6             	test   %r14d,%r14d
 189:	0f 8f 17 ff ff ff    	jg     a6 <ScalePlaneVertical+0xa6>
 18f:	eb 90                	jmp    121 <ScalePlaneVertical+0x121>

Disassembly of section .text.ScalePlaneVertical_16:

0000000000000000 <ScalePlaneVertical_16>:
   0:	55                   	push   %rbp
   1:	48 89 e5             	mov    %rsp,%rbp
   4:	41 57                	push   %r15
   6:	41 56                	push   %r14
   8:	41 55                	push   %r13
   a:	41 54                	push   %r12
   c:	53                   	push   %rbx
   d:	48 83 ec 18          	sub    $0x18,%rsp
  11:	89 75 d4             	mov    %esi,-0x2c(%rbp)
  14:	89 f8                	mov    %edi,%eax
  16:	c1 e0 10             	shl    $0x10,%eax
  19:	05 ff ff fe ff       	add    $0xfffeffff,%eax
  1e:	45 31 ed             	xor    %r13d,%r13d
  21:	83 ff 01             	cmp    $0x1,%edi
  24:	44 0f 4f e8          	cmovg  %eax,%r13d
  28:	85 d2                	test   %edx,%edx
  2a:	0f 8e 86 00 00 00    	jle    b6 <ScalePlaneVertical_16+0xb6>
  30:	41 89 d7             	mov    %edx,%r15d
  33:	8b 5d 20             	mov    0x20(%rbp),%ebx
  36:	4c 8b 75 10          	mov    0x10(%rbp),%r14
  3a:	8b 45 18             	mov    0x18(%rbp),%eax
  3d:	8b 55 30             	mov    0x30(%rbp),%edx
  40:	8b 75 d4             	mov    -0x2c(%rbp),%esi
  43:	0f af f2             	imul   %edx,%esi
  46:	89 75 d4             	mov    %esi,-0x2c(%rbp)
  49:	c1 f8 10             	sar    $0x10,%eax
  4c:	0f af c2             	imul   %edx,%eax
  4f:	48 98                	cltq   
  51:	49 8d 04 41          	lea    (%r9,%rax,2),%rax
  55:	48 89 45 c0          	mov    %rax,-0x40(%rbp)
  59:	4c 63 e1             	movslq %ecx,%r12
  5c:	49 63 c0             	movslq %r8d,%rax
  5f:	48 01 c0             	add    %rax,%rax
  62:	48 89 45 c8          	mov    %rax,-0x38(%rbp)
  66:	66 2e 0f 1f 84 00 00 	nopw   %cs:0x0(%rax,%rax,1)
  6d:	00 00 00 
  70:	44 39 eb             	cmp    %r13d,%ebx
  73:	41 0f 4f dd          	cmovg  %r13d,%ebx
  77:	89 d8                	mov    %ebx,%eax
  79:	c1 f8 10             	sar    $0x10,%eax
  7c:	8b 4d 38             	mov    0x38(%rbp),%ecx
  7f:	85 c9                	test   %ecx,%ecx
  81:	0f b6 d7             	movzbl %bh,%edx
  84:	0f 44 d1             	cmove  %ecx,%edx
  87:	41 89 d0             	mov    %edx,%r8d
  8a:	44 89 e1             	mov    %r12d,%ecx
  8d:	0f af c8             	imul   %eax,%ecx
  90:	48 63 c1             	movslq %ecx,%rax
  93:	48 8b 4d c0          	mov    -0x40(%rbp),%rcx
  97:	48 8d 34 41          	lea    (%rcx,%rax,2),%rsi
  9b:	4c 89 f7             	mov    %r14,%rdi
  9e:	4c 89 e2             	mov    %r12,%rdx
  a1:	8b 4d d4             	mov    -0x2c(%rbp),%ecx
  a4:	e8 00 00 00 00       	callq  a9 <ScalePlaneVertical_16+0xa9>
  a9:	03 5d 28             	add    0x28(%rbp),%ebx
  ac:	4c 03 75 c8          	add    -0x38(%rbp),%r14
  b0:	41 83 c7 ff          	add    $0xffffffff,%r15d
  b4:	75 ba                	jne    70 <ScalePlaneVertical_16+0x70>
  b6:	48 83 c4 18          	add    $0x18,%rsp
  ba:	5b                   	pop    %rbx
  bb:	41 5c                	pop    %r12
  bd:	41 5d                	pop    %r13
  bf:	41 5e                	pop    %r14
  c1:	41 5f                	pop    %r15
  c3:	5d                   	pop    %rbp
  c4:	c3                   	retq   

Disassembly of section .text.ScaleFilterReduce:

0000000000000000 <ScaleFilterReduce>:
   0:	55                   	push   %rbp
   1:	48 89 e5             	mov    %rsp,%rbp
   4:	89 f8                	mov    %edi,%eax
   6:	f7 d8                	neg    %eax
   8:	0f 4c c7             	cmovl  %edi,%eax
   b:	89 f7                	mov    %esi,%edi
   d:	f7 df                	neg    %edi
   f:	0f 4c fe             	cmovl  %esi,%edi
  12:	41 83 f8 02          	cmp    $0x2,%r8d
  16:	74 1a                	je     32 <ScaleFilterReduce+0x32>
  18:	41 83 f8 03          	cmp    $0x3,%r8d
  1c:	75 44                	jne    62 <ScaleFilterReduce+0x62>
  1e:	8d 34 12             	lea    (%rdx,%rdx,1),%esi
  21:	41 b8 03 00 00 00    	mov    $0x3,%r8d
  27:	39 c6                	cmp    %eax,%esi
  29:	7c 5b                	jl     86 <ScaleFilterReduce+0x86>
  2b:	8d 34 09             	lea    (%rcx,%rcx,1),%esi
  2e:	39 fe                	cmp    %edi,%esi
  30:	7c 54                	jl     86 <ScaleFilterReduce+0x86>
  32:	83 ff 01             	cmp    $0x1,%edi
  35:	40 0f 94 c6          	sete   %sil
  39:	39 cf                	cmp    %ecx,%edi
  3b:	41 0f 94 c1          	sete   %r9b
  3f:	8d 0c 49             	lea    (%rcx,%rcx,2),%ecx
  42:	39 f9                	cmp    %edi,%ecx
  44:	0f 94 c1             	sete   %cl
  47:	45 31 c0             	xor    %r8d,%r8d
  4a:	83 f8 01             	cmp    $0x1,%eax
  4d:	74 37                	je     86 <ScaleFilterReduce+0x86>
  4f:	41 08 c9             	or     %cl,%r9b
  52:	44 08 ce             	or     %r9b,%sil
  55:	40 0f b6 ce          	movzbl %sil,%ecx
  59:	41 b8 02 00 00 00    	mov    $0x2,%r8d
  5f:	41 29 c8             	sub    %ecx,%r8d
  62:	41 83 f8 01          	cmp    $0x1,%r8d
  66:	75 1e                	jne    86 <ScaleFilterReduce+0x86>
  68:	83 f8 01             	cmp    $0x1,%eax
  6b:	40 0f 95 c6          	setne  %sil
  6f:	39 d0                	cmp    %edx,%eax
  71:	0f 95 c1             	setne  %cl
  74:	8d 14 52             	lea    (%rdx,%rdx,2),%edx
  77:	39 c2                	cmp    %eax,%edx
  79:	0f 95 c0             	setne  %al
  7c:	20 c8                	and    %cl,%al
  7e:	40 20 f0             	and    %sil,%al
  81:	0f b6 c0             	movzbl %al,%eax
  84:	5d                   	pop    %rbp
  85:	c3                   	retq   
  86:	44 89 c0             	mov    %r8d,%eax
  89:	5d                   	pop    %rbp
  8a:	c3                   	retq   

Disassembly of section .text.FixedDiv_C:

0000000000000000 <FixedDiv_C>:
   0:	55                   	push   %rbp
   1:	48 89 e5             	mov    %rsp,%rbp
   4:	48 63 c7             	movslq %edi,%rax
   7:	48 c1 e0 10          	shl    $0x10,%rax
   b:	48 63 ce             	movslq %esi,%rcx
   e:	48 99                	cqto   
  10:	48 f7 f9             	idiv   %rcx
  13:	5d                   	pop    %rbp
  14:	c3                   	retq   

Disassembly of section .text.FixedDiv1_C:

0000000000000000 <FixedDiv1_C>:
   0:	55                   	push   %rbp
   1:	48 89 e5             	mov    %rsp,%rbp
   4:	48 63 c7             	movslq %edi,%rax
   7:	48 c1 e0 10          	shl    $0x10,%rax
   b:	48 05 ff ff fe ff    	add    $0xfffffffffffeffff,%rax
  11:	83 c6 ff             	add    $0xffffffff,%esi
  14:	48 63 ce             	movslq %esi,%rcx
  17:	48 99                	cqto   
  19:	48 f7 f9             	idiv   %rcx
  1c:	5d                   	pop    %rbp
  1d:	c3                   	retq   

Disassembly of section .text.ScaleSlope:

0000000000000000 <ScaleSlope>:
   0:	55                   	push   %rbp
   1:	48 89 e5             	mov    %rsp,%rbp
   4:	41 57                	push   %r15
   6:	41 56                	push   %r14
   8:	41 55                	push   %r13
   a:	41 54                	push   %r12
   c:	53                   	push   %rbx
   d:	50                   	push   %rax
   e:	4d 89 ce             	mov    %r9,%r14
  11:	41 89 f4             	mov    %esi,%r12d
  14:	41 89 ff             	mov    %edi,%r15d
  17:	83 fa 01             	cmp    $0x1,%edx
  1a:	41 89 d5             	mov    %edx,%r13d
  1d:	44 0f 44 ef          	cmove  %edi,%r13d
  21:	81 ff ff 7f 00 00    	cmp    $0x7fff,%edi
  27:	44 0f 4e ea          	cmovle %edx,%r13d
  2b:	83 f9 01             	cmp    $0x1,%ecx
  2e:	89 cb                	mov    %ecx,%ebx
  30:	0f 44 de             	cmove  %esi,%ebx
  33:	81 fe ff 7f 00 00    	cmp    $0x7fff,%esi
  39:	0f 4e d9             	cmovle %ecx,%ebx
  3c:	41 83 f8 01          	cmp    $0x1,%r8d
  40:	74 45                	je     87 <ScaleSlope+0x87>
  42:	41 83 f8 02          	cmp    $0x2,%r8d
  46:	74 70                	je     b8 <ScaleSlope+0xb8>
  48:	41 83 f8 03          	cmp    $0x3,%r8d
  4c:	0f 85 93 00 00 00    	jne    e5 <ScaleSlope+0xe5>
  52:	44 89 ff             	mov    %r15d,%edi
  55:	f7 df                	neg    %edi
  57:	41 0f 4c ff          	cmovl  %r15d,%edi
  5b:	44 89 ee             	mov    %r13d,%esi
  5e:	e8 00 00 00 00       	callq  63 <ScaleSlope+0x63>
  63:	48 8b 4d 18          	mov    0x18(%rbp),%rcx
  67:	89 01                	mov    %eax,(%rcx)
  69:	44 89 e7             	mov    %r12d,%edi
  6c:	89 de                	mov    %ebx,%esi
  6e:	e8 00 00 00 00       	callq  73 <ScaleSlope+0x73>
  73:	48 8b 4d 20          	mov    0x20(%rbp),%rcx
  77:	89 01                	mov    %eax,(%rcx)
  79:	41 c7 06 00 00 00 00 	movl   $0x0,(%r14)
  80:	31 c0                	xor    %eax,%eax
  82:	e9 73 01 00 00       	jmpq   1fa <ScaleSlope+0x1fa>
  87:	44 89 ff             	mov    %r15d,%edi
  8a:	f7 df                	neg    %edi
  8c:	41 0f 4c ff          	cmovl  %r15d,%edi
  90:	41 39 fd             	cmp    %edi,%r13d
  93:	0f 8e 83 00 00 00    	jle    11c <ScaleSlope+0x11c>
  99:	41 83 fd 02          	cmp    $0x2,%r13d
  9d:	0f 8c 45 01 00 00    	jl     1e8 <ScaleSlope+0x1e8>
  a3:	44 89 ee             	mov    %r13d,%esi
  a6:	e8 00 00 00 00       	callq  ab <ScaleSlope+0xab>
  ab:	48 8b 4d 18          	mov    0x18(%rbp),%rcx
  af:	89 01                	mov    %eax,(%rcx)
  b1:	31 c9                	xor    %ecx,%ecx
  b3:	e9 2d 01 00 00       	jmpq   1e5 <ScaleSlope+0x1e5>
  b8:	44 89 ff             	mov    %r15d,%edi
  bb:	f7 df                	neg    %edi
  bd:	41 0f 4c ff          	cmovl  %r15d,%edi
  c1:	41 39 fd             	cmp    %edi,%r13d
  c4:	7e 7a                	jle    140 <ScaleSlope+0x140>
  c6:	41 83 fd 02          	cmp    $0x2,%r13d
  ca:	0f 8c bd 00 00 00    	jl     18d <ScaleSlope+0x18d>
  d0:	44 89 ee             	mov    %r13d,%esi
  d3:	e8 00 00 00 00       	callq  d8 <ScaleSlope+0xd8>
  d8:	48 8b 4d 18          	mov    0x18(%rbp),%rcx
  dc:	89 01                	mov    %eax,(%rcx)
  de:	31 c9                	xor    %ecx,%ecx
  e0:	e9 a5 00 00 00       	jmpq   18a <ScaleSlope+0x18a>
  e5:	4c 89 75 d0          	mov    %r14,-0x30(%rbp)
  e9:	44 89 ff             	mov    %r15d,%edi
  ec:	f7 df                	neg    %edi
  ee:	41 0f 4c ff          	cmovl  %r15d,%edi
  f2:	44 89 ee             	mov    %r13d,%esi
  f5:	e8 00 00 00 00       	callq  fa <ScaleSlope+0xfa>
  fa:	4c 8b 75 18          	mov    0x18(%rbp),%r14
  fe:	41 89 06             	mov    %eax,(%r14)
 101:	44 89 e7             	mov    %r12d,%edi
 104:	89 de                	mov    %ebx,%esi
 106:	e8 00 00 00 00       	callq  10b <ScaleSlope+0x10b>
 10b:	48 8b 4d 20          	mov    0x20(%rbp),%rcx
 10f:	89 01                	mov    %eax,(%rcx)
 111:	41 8b 06             	mov    (%r14),%eax
 114:	85 c0                	test   %eax,%eax
 116:	78 45                	js     15d <ScaleSlope+0x15d>
 118:	d1 e8                	shr    %eax
 11a:	eb 47                	jmp    163 <ScaleSlope+0x163>
 11c:	44 89 ee             	mov    %r13d,%esi
 11f:	e8 00 00 00 00       	callq  124 <ScaleSlope+0x124>
 124:	48 8b 4d 18          	mov    0x18(%rbp),%rcx
 128:	89 01                	mov    %eax,(%rcx)
 12a:	85 c0                	test   %eax,%eax
 12c:	0f 88 a8 00 00 00    	js     1da <ScaleSlope+0x1da>
 132:	d1 e8                	shr    %eax
 134:	05 00 80 ff ff       	add    $0xffff8000,%eax
 139:	89 c1                	mov    %eax,%ecx
 13b:	e9 a5 00 00 00       	jmpq   1e5 <ScaleSlope+0x1e5>
 140:	44 89 ee             	mov    %r13d,%esi
 143:	e8 00 00 00 00       	callq  148 <ScaleSlope+0x148>
 148:	48 8b 4d 18          	mov    0x18(%rbp),%rcx
 14c:	89 01                	mov    %eax,(%rcx)
 14e:	85 c0                	test   %eax,%eax
 150:	78 2d                	js     17f <ScaleSlope+0x17f>
 152:	d1 e8                	shr    %eax
 154:	05 00 80 ff ff       	add    $0xffff8000,%eax
 159:	89 c1                	mov    %eax,%ecx
 15b:	eb 2d                	jmp    18a <ScaleSlope+0x18a>
 15d:	f7 d8                	neg    %eax
 15f:	d1 f8                	sar    %eax
 161:	f7 d8                	neg    %eax
 163:	4c 8b 75 d0          	mov    -0x30(%rbp),%r14
 167:	41 89 06             	mov    %eax,(%r14)
 16a:	8b 01                	mov    (%rcx),%eax
 16c:	85 c0                	test   %eax,%eax
 16e:	78 07                	js     177 <ScaleSlope+0x177>
 170:	d1 e8                	shr    %eax
 172:	e9 83 00 00 00       	jmpq   1fa <ScaleSlope+0x1fa>
 177:	f7 d8                	neg    %eax
 179:	d1 f8                	sar    %eax
 17b:	f7 d8                	neg    %eax
 17d:	eb 7b                	jmp    1fa <ScaleSlope+0x1fa>
 17f:	f7 d8                	neg    %eax
 181:	d1 f8                	sar    %eax
 183:	b9 00 80 00 00       	mov    $0x8000,%ecx
 188:	29 c1                	sub    %eax,%ecx
 18a:	41 89 0e             	mov    %ecx,(%r14)
 18d:	44 39 e3             	cmp    %r12d,%ebx
 190:	7e 19                	jle    1ab <ScaleSlope+0x1ab>
 192:	83 fb 02             	cmp    $0x2,%ebx
 195:	7c 69                	jl     200 <ScaleSlope+0x200>
 197:	44 89 e7             	mov    %r12d,%edi
 19a:	89 de                	mov    %ebx,%esi
 19c:	e8 00 00 00 00       	callq  1a1 <ScaleSlope+0x1a1>
 1a1:	48 8b 4d 20          	mov    0x20(%rbp),%rcx
 1a5:	89 01                	mov    %eax,(%rcx)
 1a7:	31 c0                	xor    %eax,%eax
 1a9:	eb 4f                	jmp    1fa <ScaleSlope+0x1fa>
 1ab:	44 89 e7             	mov    %r12d,%edi
 1ae:	89 de                	mov    %ebx,%esi
 1b0:	e8 00 00 00 00       	callq  1b5 <ScaleSlope+0x1b5>
 1b5:	89 c1                	mov    %eax,%ecx
 1b7:	48 8b 45 20          	mov    0x20(%rbp),%rax
 1bb:	89 08                	mov    %ecx,(%rax)
 1bd:	85 c9                	test   %ecx,%ecx
 1bf:	78 0c                	js     1cd <ScaleSlope+0x1cd>
 1c1:	d1 e9                	shr    %ecx
 1c3:	81 c1 00 80 ff ff    	add    $0xffff8000,%ecx
 1c9:	89 c8                	mov    %ecx,%eax
 1cb:	eb 2d                	jmp    1fa <ScaleSlope+0x1fa>
 1cd:	f7 d9                	neg    %ecx
 1cf:	d1 f9                	sar    %ecx
 1d1:	b8 00 80 00 00       	mov    $0x8000,%eax
 1d6:	29 c8                	sub    %ecx,%eax
 1d8:	eb 20                	jmp    1fa <ScaleSlope+0x1fa>
 1da:	f7 d8                	neg    %eax
 1dc:	d1 f8                	sar    %eax
 1de:	b9 00 80 00 00       	mov    $0x8000,%ecx
 1e3:	29 c1                	sub    %eax,%ecx
 1e5:	41 89 0e             	mov    %ecx,(%r14)
 1e8:	44 89 e7             	mov    %r12d,%edi
 1eb:	89 de                	mov    %ebx,%esi
 1ed:	e8 00 00 00 00       	callq  1f2 <ScaleSlope+0x1f2>
 1f2:	48 8b 4d 20          	mov    0x20(%rbp),%rcx
 1f6:	89 01                	mov    %eax,(%rcx)
 1f8:	d1 f8                	sar    %eax
 1fa:	48 8b 4d 10          	mov    0x10(%rbp),%rcx
 1fe:	89 01                	mov    %eax,(%rcx)
 200:	45 85 ff             	test   %r15d,%r15d
 203:	79 11                	jns    216 <ScaleSlope+0x216>
 205:	41 83 c5 ff          	add    $0xffffffff,%r13d
 209:	48 8b 45 18          	mov    0x18(%rbp),%rax
 20d:	44 0f af 28          	imul   (%rax),%r13d
 211:	45 01 2e             	add    %r13d,(%r14)
 214:	f7 18                	negl   (%rax)
 216:	48 83 c4 08          	add    $0x8,%rsp
 21a:	5b                   	pop    %rbx
 21b:	41 5c                	pop    %r12
 21d:	41 5d                	pop    %r13
 21f:	41 5e                	pop    %r14
 221:	41 5f                	pop    %r15
 223:	5d                   	pop    %rbp
 224:	c3                   	retq   

Disassembly of section .text.ScaleRowUp2_16_C:

0000000000000000 <ScaleRowUp2_16_C>:
   0:	55                   	push   %rbp
   1:	48 89 e5             	mov    %rsp,%rbp
   4:	41 57                	push   %r15
   6:	41 56                	push   %r14
   8:	41 54                	push   %r12
   a:	53                   	push   %rbx
   b:	4c 8d 0c 77          	lea    (%rdi,%rsi,2),%r9
   f:	41 89 c8             	mov    %ecx,%r8d
  12:	41 83 c0 ff          	add    $0xffffffff,%r8d
  16:	0f 8e 78 02 00 00    	jle    294 <ScaleRowUp2_16_C+0x294>
  1c:	8d 41 fe             	lea    -0x2(%rcx),%eax
  1f:	d1 e8                	shr    %eax
  21:	44 8d 70 01          	lea    0x1(%rax),%r14d
  25:	45 31 d2             	xor    %r10d,%r10d
  28:	41 83 fe 08          	cmp    $0x8,%r14d
  2c:	0f 82 c1 01 00 00    	jb     1f3 <ScaleRowUp2_16_C+0x1f3>
  32:	4c 8d 1c 82          	lea    (%rdx,%rax,4),%r11
  36:	49 83 c3 04          	add    $0x4,%r11
  3a:	48 8d 1c 30          	lea    (%rax,%rsi,1),%rbx
  3e:	48 8d 1c 5f          	lea    (%rdi,%rbx,2),%rbx
  42:	48 83 c3 04          	add    $0x4,%rbx
  46:	48 8d 04 47          	lea    (%rdi,%rax,2),%rax
  4a:	48 83 c0 04          	add    $0x4,%rax
  4e:	48 39 d3             	cmp    %rdx,%rbx
  51:	41 0f 97 c7          	seta   %r15b
  55:	4d 39 d9             	cmp    %r11,%r9
  58:	0f 92 c3             	setb   %bl
  5b:	48 39 d0             	cmp    %rdx,%rax
  5e:	0f 97 c0             	seta   %al
  61:	49 39 fb             	cmp    %rdi,%r11
  64:	41 0f 97 c3          	seta   %r11b
  68:	41 84 df             	test   %bl,%r15b
  6b:	0f 85 82 01 00 00    	jne    1f3 <ScaleRowUp2_16_C+0x1f3>
  71:	44 20 d8             	and    %r11b,%al
  74:	0f 85 79 01 00 00    	jne    1f3 <ScaleRowUp2_16_C+0x1f3>
  7a:	45 89 f7             	mov    %r14d,%r15d
  7d:	41 83 e7 f8          	and    $0xfffffff8,%r15d
  81:	4e 8d 24 7f          	lea    (%rdi,%r15,2),%r12
  85:	4e 8d 1c ba          	lea    (%rdx,%r15,4),%r11
  89:	4f 8d 0c 79          	lea    (%r9,%r15,2),%r9
  8d:	47 8d 14 3f          	lea    (%r15,%r15,1),%r10d
  91:	48 8d 34 77          	lea    (%rdi,%rsi,2),%rsi
  95:	48 83 c6 02          	add    $0x2,%rsi
  99:	31 db                	xor    %ebx,%ebx
  9b:	66 45 0f ef c9       	pxor   %xmm9,%xmm9
  a0:	66 44 0f 6f 05 00 00 	movdqa 0x0(%rip),%xmm8        # a9 <ScaleRowUp2_16_C+0xa9>
  a7:	00 00 
  a9:	0f 1f 80 00 00 00 00 	nopl   0x0(%rax)
  b0:	f3 0f 6f 2c 5f       	movdqu (%rdi,%rbx,2),%xmm5
  b5:	f3 0f 6f 54 5f 02    	movdqu 0x2(%rdi,%rbx,2),%xmm2
  bb:	f3 44 0f 6f 54 5e fe 	movdqu -0x2(%rsi,%rbx,2),%xmm10
  c2:	f3 44 0f 6f 1c 5e    	movdqu (%rsi,%rbx,2),%xmm11
  c8:	66 0f 6f f5          	movdqa %xmm5,%xmm6
  cc:	66 41 0f 61 f1       	punpcklwd %xmm9,%xmm6
  d1:	66 41 0f 69 e9       	punpckhwd %xmm9,%xmm5
  d6:	66 41 0f 6f fb       	movdqa %xmm11,%xmm7
  db:	66 41 0f 69 f9       	punpckhwd %xmm9,%xmm7
  e0:	66 0f fe fd          	paddd  %xmm5,%xmm7
  e4:	66 0f 72 f5 03       	pslld  $0x3,%xmm5
  e9:	66 45 0f 61 d9       	punpcklwd %xmm9,%xmm11
  ee:	66 44 0f fe de       	paddd  %xmm6,%xmm11
  f3:	66 0f 6f ce          	movdqa %xmm6,%xmm1
  f7:	66 0f 72 f1 03       	pslld  $0x3,%xmm1
  fc:	66 0f 6f f2          	movdqa %xmm2,%xmm6
 100:	66 41 0f 61 f1       	punpcklwd %xmm9,%xmm6
 105:	66 41 0f 69 d1       	punpckhwd %xmm9,%xmm2
 10a:	66 41 0f 6f c2       	movdqa %xmm10,%xmm0
 10f:	66 41 0f 61 c1       	punpcklwd %xmm9,%xmm0
 114:	66 45 0f 69 d1       	punpckhwd %xmm9,%xmm10
 119:	66 44 0f fe d2       	paddd  %xmm2,%xmm10
 11e:	66 0f fe c6          	paddd  %xmm6,%xmm0
 122:	66 0f 6f d8          	movdqa %xmm0,%xmm3
 126:	66 0f fe d8          	paddd  %xmm0,%xmm3
 12a:	66 0f fe d8          	paddd  %xmm0,%xmm3
 12e:	66 41 0f 6f e2       	movdqa %xmm10,%xmm4
 133:	66 41 0f fe e2       	paddd  %xmm10,%xmm4
 138:	66 41 0f fe e2       	paddd  %xmm10,%xmm4
 13d:	66 41 0f fe cb       	paddd  %xmm11,%xmm1
 142:	66 0f fe ef          	paddd  %xmm7,%xmm5
 146:	66 41 0f fe c8       	paddd  %xmm8,%xmm1
 14b:	66 0f fe cb          	paddd  %xmm3,%xmm1
 14f:	66 41 0f fe e8       	paddd  %xmm8,%xmm5
 154:	66 0f fe ec          	paddd  %xmm4,%xmm5
 158:	66 0f 72 f5 0c       	pslld  $0xc,%xmm5
 15d:	66 0f 72 e5 10       	psrad  $0x10,%xmm5
 162:	66 0f 72 f1 0c       	pslld  $0xc,%xmm1
 167:	66 0f 72 e1 10       	psrad  $0x10,%xmm1
 16c:	66 0f 6b cd          	packssdw %xmm5,%xmm1
 170:	66 0f 72 f2 03       	pslld  $0x3,%xmm2
 175:	66 0f 72 f6 03       	pslld  $0x3,%xmm6
 17a:	66 41 0f 6f db       	movdqa %xmm11,%xmm3
 17f:	66 41 0f fe db       	paddd  %xmm11,%xmm3
 184:	66 41 0f fe db       	paddd  %xmm11,%xmm3
 189:	66 0f 6f e7          	movdqa %xmm7,%xmm4
 18d:	66 0f fe e7          	paddd  %xmm7,%xmm4
 191:	66 0f fe e7          	paddd  %xmm7,%xmm4
 195:	66 0f fe f0          	paddd  %xmm0,%xmm6
 199:	66 41 0f fe d2       	paddd  %xmm10,%xmm2
 19e:	66 41 0f fe f0       	paddd  %xmm8,%xmm6
 1a3:	66 0f fe f3          	paddd  %xmm3,%xmm6
 1a7:	66 41 0f fe d0       	paddd  %xmm8,%xmm2
 1ac:	66 0f fe d4          	paddd  %xmm4,%xmm2
 1b0:	66 0f 72 f2 0c       	pslld  $0xc,%xmm2
 1b5:	66 0f 72 e2 10       	psrad  $0x10,%xmm2
 1ba:	66 0f 72 f6 0c       	pslld  $0xc,%xmm6
 1bf:	66 0f 72 e6 10       	psrad  $0x10,%xmm6
 1c4:	66 0f 6b f2          	packssdw %xmm2,%xmm6
 1c8:	66 0f 6f c1          	movdqa %xmm1,%xmm0
 1cc:	66 0f 61 c6          	punpcklwd %xmm6,%xmm0
 1d0:	66 0f 69 ce          	punpckhwd %xmm6,%xmm1
 1d4:	f3 0f 7f 4c 9a 10    	movdqu %xmm1,0x10(%rdx,%rbx,4)
 1da:	f3 0f 7f 04 9a       	movdqu %xmm0,(%rdx,%rbx,4)
 1df:	48 83 c3 08          	add    $0x8,%rbx
 1e3:	49 39 df             	cmp    %rbx,%r15
 1e6:	0f 85 c4 fe ff ff    	jne    b0 <ScaleRowUp2_16_C+0xb0>
 1ec:	4d 39 f7             	cmp    %r14,%r15
 1ef:	75 0f                	jne    200 <ScaleRowUp2_16_C+0x200>
 1f1:	eb 68                	jmp    25b <ScaleRowUp2_16_C+0x25b>
 1f3:	49 89 fc             	mov    %rdi,%r12
 1f6:	49 89 d3             	mov    %rdx,%r11
 1f9:	0f 1f 80 00 00 00 00 	nopl   0x0(%rax)
 200:	45 0f b7 34 24       	movzwl (%r12),%r14d
 205:	41 0f b7 74 24 02    	movzwl 0x2(%r12),%esi
 20b:	49 83 c4 02          	add    $0x2,%r12
 20f:	41 0f b7 39          	movzwl (%r9),%edi
 213:	41 0f b7 59 02       	movzwl 0x2(%r9),%ebx
 218:	49 83 c1 02          	add    $0x2,%r9
 21c:	43 8d 04 f6          	lea    (%r14,%r14,8),%eax
 220:	8d 14 37             	lea    (%rdi,%rsi,1),%edx
 223:	8d 14 52             	lea    (%rdx,%rdx,2),%edx
 226:	01 d8                	add    %ebx,%eax
 228:	8d 04 10             	lea    (%rax,%rdx,1),%eax
 22b:	83 c0 08             	add    $0x8,%eax
 22e:	c1 e8 04             	shr    $0x4,%eax
 231:	66 41 89 03          	mov    %ax,(%r11)
 235:	8d 04 f6             	lea    (%rsi,%rsi,8),%eax
 238:	44 01 f3             	add    %r14d,%ebx
 23b:	8d 14 5b             	lea    (%rbx,%rbx,2),%edx
 23e:	01 f8                	add    %edi,%eax
 240:	8d 04 10             	lea    (%rax,%rdx,1),%eax
 243:	83 c0 08             	add    $0x8,%eax
 246:	c1 e8 04             	shr    $0x4,%eax
 249:	66 41 89 43 02       	mov    %ax,0x2(%r11)
 24e:	49 83 c3 04          	add    $0x4,%r11
 252:	41 83 c2 02          	add    $0x2,%r10d
 256:	45 39 c2             	cmp    %r8d,%r10d
 259:	7c a5                	jl     200 <ScaleRowUp2_16_C+0x200>
 25b:	f6 c1 01             	test   $0x1,%cl
 25e:	74 2b                	je     28b <ScaleRowUp2_16_C+0x28b>
 260:	41 0f b7 04 24       	movzwl (%r12),%eax
 265:	41 0f b7 4c 24 02    	movzwl 0x2(%r12),%ecx
 26b:	41 0f b7 11          	movzwl (%r9),%edx
 26f:	01 ca                	add    %ecx,%edx
 271:	41 0f b7 49 02       	movzwl 0x2(%r9),%ecx
 276:	8d 04 c0             	lea    (%rax,%rax,8),%eax
 279:	01 c8                	add    %ecx,%eax
 27b:	8d 0c 52             	lea    (%rdx,%rdx,2),%ecx
 27e:	8d 04 08             	lea    (%rax,%rcx,1),%eax
 281:	83 c0 08             	add    $0x8,%eax
 284:	c1 e8 04             	shr    $0x4,%eax
 287:	66 41 89 03          	mov    %ax,(%r11)
 28b:	5b                   	pop    %rbx
 28c:	41 5c                	pop    %r12
 28e:	41 5e                	pop    %r14
 290:	41 5f                	pop    %r15
 292:	5d                   	pop    %rbp
 293:	c3                   	retq   
 294:	49 89 d3             	mov    %rdx,%r11
 297:	49 89 fc             	mov    %rdi,%r12
 29a:	f6 c1 01             	test   $0x1,%cl
 29d:	75 c1                	jne    260 <ScaleRowUp2_16_C+0x260>
 29f:	eb ea                	jmp    28b <ScaleRowUp2_16_C+0x28b>
