
out/Release/obj/libyuv_internal/scale_common.o:     file format elf64-x86-64


Disassembly of section .text.ScaleRowDown2_C:

0000000000000000 <ScaleRowDown2_C>:
   0:	83 f9 02             	cmp    $0x2,%ecx
   3:	7d 0a                	jge    f <ScaleRowDown2_C+0xf>
   5:	f6 c1 01             	test   $0x1,%cl
   8:	0f 85 e0 00 00 00    	jne    ee <ScaleRowDown2_C+0xee>
   e:	c3                   	retq   
   f:	41 56                	push   %r14
  11:	53                   	push   %rbx
  12:	8d 71 fe             	lea    -0x2(%rcx),%esi
  15:	41 89 f1             	mov    %esi,%r9d
  18:	41 d1 e9             	shr    %r9d
  1b:	41 89 f0             	mov    %esi,%r8d
  1e:	41 83 e0 fe          	and    $0xfffffffe,%r8d
  22:	45 8d 51 01          	lea    0x1(%r9),%r10d
  26:	41 83 e2 03          	and    $0x3,%r10d
  2a:	49 89 fe             	mov    %rdi,%r14
  2d:	48 89 d0             	mov    %rdx,%rax
  30:	83 fe 06             	cmp    $0x6,%esi
  33:	72 68                	jb     9d <ScaleRowDown2_C+0x9d>
  35:	45 8d 5a ff          	lea    -0x1(%r10),%r11d
  39:	45 29 cb             	sub    %r9d,%r11d
  3c:	49 89 fe             	mov    %rdi,%r14
  3f:	48 89 d0             	mov    %rdx,%rax
  42:	66 2e 0f 1f 84 00 00 	nopw   %cs:0x0(%rax,%rax,1)
  49:	00 00 00 
  4c:	0f 1f 40 00          	nopl   0x0(%rax)
  50:	41 0f b6 5e 01       	movzbl 0x1(%r14),%ebx
  55:	88 18                	mov    %bl,(%rax)
  57:	41 0f b6 5e 03       	movzbl 0x3(%r14),%ebx
  5c:	88 58 01             	mov    %bl,0x1(%rax)
  5f:	41 0f b6 5e 05       	movzbl 0x5(%r14),%ebx
  64:	88 58 02             	mov    %bl,0x2(%rax)
  67:	41 0f b6 5e 07       	movzbl 0x7(%r14),%ebx
  6c:	88 58 03             	mov    %bl,0x3(%rax)
  6f:	41 0f b6 5e 09       	movzbl 0x9(%r14),%ebx
  74:	88 58 04             	mov    %bl,0x4(%rax)
  77:	41 0f b6 5e 0b       	movzbl 0xb(%r14),%ebx
  7c:	88 58 05             	mov    %bl,0x5(%rax)
  7f:	41 0f b6 5e 0d       	movzbl 0xd(%r14),%ebx
  84:	88 58 06             	mov    %bl,0x6(%rax)
  87:	41 0f b6 5e 0f       	movzbl 0xf(%r14),%ebx
  8c:	88 58 07             	mov    %bl,0x7(%rax)
  8f:	48 83 c0 08          	add    $0x8,%rax
  93:	49 83 c6 10          	add    $0x10,%r14
  97:	41 83 c3 04          	add    $0x4,%r11d
  9b:	75 b3                	jne    50 <ScaleRowDown2_C+0x50>
  9d:	49 83 c0 02          	add    $0x2,%r8
  a1:	4e 8d 1c 8d 04 00 00 	lea    0x4(,%r9,4),%r11
  a8:	00 
  a9:	45 85 d2             	test   %r10d,%r10d
  ac:	74 2e                	je     dc <ScaleRowDown2_C+0xdc>
  ae:	41 80 c1 01          	add    $0x1,%r9b
  b2:	45 0f b6 c9          	movzbl %r9b,%r9d
  b6:	41 83 e1 03          	and    $0x3,%r9d
  ba:	31 f6                	xor    %esi,%esi
  bc:	0f 1f 40 00          	nopl   0x0(%rax)
  c0:	41 0f b6 5c b6 01    	movzbl 0x1(%r14,%rsi,4),%ebx
  c6:	88 1c 70             	mov    %bl,(%rax,%rsi,2)
  c9:	41 0f b6 5c b6 03    	movzbl 0x3(%r14,%rsi,4),%ebx
  cf:	88 5c 70 01          	mov    %bl,0x1(%rax,%rsi,2)
  d3:	48 83 c6 01          	add    $0x1,%rsi
  d7:	41 39 f1             	cmp    %esi,%r9d
  da:	75 e4                	jne    c0 <ScaleRowDown2_C+0xc0>
  dc:	4c 01 c2             	add    %r8,%rdx
  df:	4c 01 df             	add    %r11,%rdi
  e2:	5b                   	pop    %rbx
  e3:	41 5e                	pop    %r14
  e5:	f6 c1 01             	test   $0x1,%cl
  e8:	0f 84 20 ff ff ff    	je     e <ScaleRowDown2_C+0xe>
  ee:	8a 47 01             	mov    0x1(%rdi),%al
  f1:	88 02                	mov    %al,(%rdx)
  f3:	c3                   	retq   

Disassembly of section .text.ScaleRowDown2_16_C:

0000000000000000 <ScaleRowDown2_16_C>:
   0:	83 f9 02             	cmp    $0x2,%ecx
   3:	7d 0a                	jge    f <ScaleRowDown2_16_C+0xf>
   5:	f6 c1 01             	test   $0x1,%cl
   8:	0f 85 f4 00 00 00    	jne    102 <ScaleRowDown2_16_C+0x102>
   e:	c3                   	retq   
   f:	41 56                	push   %r14
  11:	53                   	push   %rbx
  12:	8d 71 fe             	lea    -0x2(%rcx),%esi
  15:	41 89 f1             	mov    %esi,%r9d
  18:	41 d1 e9             	shr    %r9d
  1b:	41 89 f0             	mov    %esi,%r8d
  1e:	41 83 e0 fe          	and    $0xfffffffe,%r8d
  22:	45 8d 51 01          	lea    0x1(%r9),%r10d
  26:	41 83 e2 03          	and    $0x3,%r10d
  2a:	49 89 fe             	mov    %rdi,%r14
  2d:	48 89 d0             	mov    %rdx,%rax
  30:	83 fe 06             	cmp    $0x6,%esi
  33:	72 70                	jb     a5 <ScaleRowDown2_16_C+0xa5>
  35:	45 8d 5a ff          	lea    -0x1(%r10),%r11d
  39:	45 29 cb             	sub    %r9d,%r11d
  3c:	49 89 fe             	mov    %rdi,%r14
  3f:	48 89 d0             	mov    %rdx,%rax
  42:	66 2e 0f 1f 84 00 00 	nopw   %cs:0x0(%rax,%rax,1)
  49:	00 00 00 
  4c:	0f 1f 40 00          	nopl   0x0(%rax)
  50:	41 0f b7 76 02       	movzwl 0x2(%r14),%esi
  55:	66 89 30             	mov    %si,(%rax)
  58:	41 0f b7 76 06       	movzwl 0x6(%r14),%esi
  5d:	66 89 70 02          	mov    %si,0x2(%rax)
  61:	41 0f b7 76 0a       	movzwl 0xa(%r14),%esi
  66:	66 89 70 04          	mov    %si,0x4(%rax)
  6a:	41 0f b7 76 0e       	movzwl 0xe(%r14),%esi
  6f:	66 89 70 06          	mov    %si,0x6(%rax)
  73:	41 0f b7 76 12       	movzwl 0x12(%r14),%esi
  78:	66 89 70 08          	mov    %si,0x8(%rax)
  7c:	41 0f b7 76 16       	movzwl 0x16(%r14),%esi
  81:	66 89 70 0a          	mov    %si,0xa(%rax)
  85:	41 0f b7 76 1a       	movzwl 0x1a(%r14),%esi
  8a:	66 89 70 0c          	mov    %si,0xc(%rax)
  8e:	41 0f b7 76 1e       	movzwl 0x1e(%r14),%esi
  93:	66 89 70 0e          	mov    %si,0xe(%rax)
  97:	48 83 c0 10          	add    $0x10,%rax
  9b:	49 83 c6 20          	add    $0x20,%r14
  9f:	41 83 c3 04          	add    $0x4,%r11d
  a3:	75 ab                	jne    50 <ScaleRowDown2_16_C+0x50>
  a5:	49 83 c0 02          	add    $0x2,%r8
  a9:	4e 8d 1c 8d 04 00 00 	lea    0x4(,%r9,4),%r11
  b0:	00 
  b1:	45 85 d2             	test   %r10d,%r10d
  b4:	74 38                	je     ee <ScaleRowDown2_16_C+0xee>
  b6:	41 80 c1 01          	add    $0x1,%r9b
  ba:	45 0f b6 c9          	movzbl %r9b,%r9d
  be:	41 83 e1 03          	and    $0x3,%r9d
  c2:	31 f6                	xor    %esi,%esi
  c4:	66 2e 0f 1f 84 00 00 	nopw   %cs:0x0(%rax,%rax,1)
  cb:	00 00 00 
  ce:	66 90                	xchg   %ax,%ax
  d0:	41 0f b7 5c f6 02    	movzwl 0x2(%r14,%rsi,8),%ebx
  d6:	66 89 1c b0          	mov    %bx,(%rax,%rsi,4)
  da:	41 0f b7 5c f6 06    	movzwl 0x6(%r14,%rsi,8),%ebx
  e0:	66 89 5c b0 02       	mov    %bx,0x2(%rax,%rsi,4)
  e5:	48 83 c6 01          	add    $0x1,%rsi
  e9:	41 39 f1             	cmp    %esi,%r9d
  ec:	75 e2                	jne    d0 <ScaleRowDown2_16_C+0xd0>
  ee:	4a 8d 14 42          	lea    (%rdx,%r8,2),%rdx
  f2:	4a 8d 3c 5f          	lea    (%rdi,%r11,2),%rdi
  f6:	5b                   	pop    %rbx
  f7:	41 5e                	pop    %r14
  f9:	f6 c1 01             	test   $0x1,%cl
  fc:	0f 84 0c ff ff ff    	je     e <ScaleRowDown2_16_C+0xe>
 102:	0f b7 47 02          	movzwl 0x2(%rdi),%eax
 106:	66 89 02             	mov    %ax,(%rdx)
 109:	c3                   	retq   

Disassembly of section .text.ScaleRowDown2Linear_C:

0000000000000000 <ScaleRowDown2Linear_C>:
   0:	83 f9 02             	cmp    $0x2,%ecx
   3:	7d 0a                	jge    f <ScaleRowDown2Linear_C+0xf>
   5:	f6 c1 01             	test   $0x1,%cl
   8:	0f 85 db 00 00 00    	jne    e9 <ScaleRowDown2Linear_C+0xe9>
   e:	c3                   	retq   
   f:	41 56                	push   %r14
  11:	53                   	push   %rbx
  12:	44 8d 41 fe          	lea    -0x2(%rcx),%r8d
  16:	45 89 c1             	mov    %r8d,%r9d
  19:	41 d1 e9             	shr    %r9d
  1c:	41 83 e0 fe          	and    $0xfffffffe,%r8d
  20:	45 8d 51 01          	lea    0x1(%r9),%r10d
  24:	41 83 e2 01          	and    $0x1,%r10d
  28:	48 89 f8             	mov    %rdi,%rax
  2b:	48 89 d6             	mov    %rdx,%rsi
  2e:	45 85 c9             	test   %r9d,%r9d
  31:	74 6d                	je     a0 <ScaleRowDown2Linear_C+0xa0>
  33:	45 8d 5a ff          	lea    -0x1(%r10),%r11d
  37:	45 29 cb             	sub    %r9d,%r11d
  3a:	48 89 f8             	mov    %rdi,%rax
  3d:	48 89 d6             	mov    %rdx,%rsi
  40:	44 0f b6 30          	movzbl (%rax),%r14d
  44:	0f b6 58 01          	movzbl 0x1(%rax),%ebx
  48:	41 8d 1c 1e          	lea    (%r14,%rbx,1),%ebx
  4c:	83 c3 01             	add    $0x1,%ebx
  4f:	d1 eb                	shr    %ebx
  51:	88 1e                	mov    %bl,(%rsi)
  53:	44 0f b6 70 02       	movzbl 0x2(%rax),%r14d
  58:	0f b6 58 03          	movzbl 0x3(%rax),%ebx
  5c:	41 8d 1c 1e          	lea    (%r14,%rbx,1),%ebx
  60:	83 c3 01             	add    $0x1,%ebx
  63:	d1 eb                	shr    %ebx
  65:	88 5e 01             	mov    %bl,0x1(%rsi)
  68:	44 0f b6 70 04       	movzbl 0x4(%rax),%r14d
  6d:	0f b6 58 05          	movzbl 0x5(%rax),%ebx
  71:	41 8d 1c 1e          	lea    (%r14,%rbx,1),%ebx
  75:	83 c3 01             	add    $0x1,%ebx
  78:	d1 eb                	shr    %ebx
  7a:	88 5e 02             	mov    %bl,0x2(%rsi)
  7d:	44 0f b6 70 06       	movzbl 0x6(%rax),%r14d
  82:	0f b6 58 07          	movzbl 0x7(%rax),%ebx
  86:	41 8d 1c 1e          	lea    (%r14,%rbx,1),%ebx
  8a:	83 c3 01             	add    $0x1,%ebx
  8d:	d1 eb                	shr    %ebx
  8f:	88 5e 03             	mov    %bl,0x3(%rsi)
  92:	48 83 c6 04          	add    $0x4,%rsi
  96:	48 83 c0 08          	add    $0x8,%rax
  9a:	41 83 c3 02          	add    $0x2,%r11d
  9e:	75 a0                	jne    40 <ScaleRowDown2Linear_C+0x40>
  a0:	49 83 c0 02          	add    $0x2,%r8
  a4:	4e 8d 0c 8d 04 00 00 	lea    0x4(,%r9,4),%r9
  ab:	00 
  ac:	45 85 d2             	test   %r10d,%r10d
  af:	74 26                	je     d7 <ScaleRowDown2Linear_C+0xd7>
  b1:	44 0f b6 10          	movzbl (%rax),%r10d
  b5:	0f b6 58 01          	movzbl 0x1(%rax),%ebx
  b9:	41 8d 1c 1a          	lea    (%r10,%rbx,1),%ebx
  bd:	83 c3 01             	add    $0x1,%ebx
  c0:	d1 eb                	shr    %ebx
  c2:	88 1e                	mov    %bl,(%rsi)
  c4:	0f b6 58 02          	movzbl 0x2(%rax),%ebx
  c8:	0f b6 40 03          	movzbl 0x3(%rax),%eax
  cc:	8d 04 03             	lea    (%rbx,%rax,1),%eax
  cf:	83 c0 01             	add    $0x1,%eax
  d2:	d1 e8                	shr    %eax
  d4:	88 46 01             	mov    %al,0x1(%rsi)
  d7:	4c 01 c2             	add    %r8,%rdx
  da:	4c 01 cf             	add    %r9,%rdi
  dd:	5b                   	pop    %rbx
  de:	41 5e                	pop    %r14
  e0:	f6 c1 01             	test   $0x1,%cl
  e3:	0f 84 25 ff ff ff    	je     e <ScaleRowDown2Linear_C+0xe>
  e9:	0f b6 07             	movzbl (%rdi),%eax
  ec:	0f b6 4f 01          	movzbl 0x1(%rdi),%ecx
  f0:	8d 04 08             	lea    (%rax,%rcx,1),%eax
  f3:	83 c0 01             	add    $0x1,%eax
  f6:	d1 e8                	shr    %eax
  f8:	88 02                	mov    %al,(%rdx)
  fa:	c3                   	retq   

Disassembly of section .text.ScaleRowDown2Linear_16_C:

0000000000000000 <ScaleRowDown2Linear_16_C>:
   0:	83 f9 02             	cmp    $0x2,%ecx
   3:	7d 0a                	jge    f <ScaleRowDown2Linear_16_C+0xf>
   5:	f6 c1 01             	test   $0x1,%cl
   8:	0f 85 e3 00 00 00    	jne    f1 <ScaleRowDown2Linear_16_C+0xf1>
   e:	c3                   	retq   
   f:	41 56                	push   %r14
  11:	53                   	push   %rbx
  12:	44 8d 41 fe          	lea    -0x2(%rcx),%r8d
  16:	45 89 c1             	mov    %r8d,%r9d
  19:	41 d1 e9             	shr    %r9d
  1c:	41 83 e0 fe          	and    $0xfffffffe,%r8d
  20:	45 8d 51 01          	lea    0x1(%r9),%r10d
  24:	41 83 e2 01          	and    $0x1,%r10d
  28:	48 89 f8             	mov    %rdi,%rax
  2b:	48 89 d6             	mov    %rdx,%rsi
  2e:	45 85 c9             	test   %r9d,%r9d
  31:	74 71                	je     a4 <ScaleRowDown2Linear_16_C+0xa4>
  33:	45 8d 5a ff          	lea    -0x1(%r10),%r11d
  37:	45 29 cb             	sub    %r9d,%r11d
  3a:	48 89 f8             	mov    %rdi,%rax
  3d:	48 89 d6             	mov    %rdx,%rsi
  40:	44 0f b7 30          	movzwl (%rax),%r14d
  44:	0f b7 58 02          	movzwl 0x2(%rax),%ebx
  48:	41 8d 1c 1e          	lea    (%r14,%rbx,1),%ebx
  4c:	83 c3 01             	add    $0x1,%ebx
  4f:	d1 eb                	shr    %ebx
  51:	66 89 1e             	mov    %bx,(%rsi)
  54:	44 0f b7 70 04       	movzwl 0x4(%rax),%r14d
  59:	0f b7 58 06          	movzwl 0x6(%rax),%ebx
  5d:	41 8d 1c 1e          	lea    (%r14,%rbx,1),%ebx
  61:	83 c3 01             	add    $0x1,%ebx
  64:	d1 eb                	shr    %ebx
  66:	66 89 5e 02          	mov    %bx,0x2(%rsi)
  6a:	44 0f b7 70 08       	movzwl 0x8(%rax),%r14d
  6f:	0f b7 58 0a          	movzwl 0xa(%rax),%ebx
  73:	41 8d 1c 1e          	lea    (%r14,%rbx,1),%ebx
  77:	83 c3 01             	add    $0x1,%ebx
  7a:	d1 eb                	shr    %ebx
  7c:	66 89 5e 04          	mov    %bx,0x4(%rsi)
  80:	44 0f b7 70 0c       	movzwl 0xc(%rax),%r14d
  85:	0f b7 58 0e          	movzwl 0xe(%rax),%ebx
  89:	41 8d 1c 1e          	lea    (%r14,%rbx,1),%ebx
  8d:	83 c3 01             	add    $0x1,%ebx
  90:	d1 eb                	shr    %ebx
  92:	66 89 5e 06          	mov    %bx,0x6(%rsi)
  96:	48 83 c6 08          	add    $0x8,%rsi
  9a:	48 83 c0 10          	add    $0x10,%rax
  9e:	41 83 c3 02          	add    $0x2,%r11d
  a2:	75 9c                	jne    40 <ScaleRowDown2Linear_16_C+0x40>
  a4:	49 83 c0 02          	add    $0x2,%r8
  a8:	4e 8d 0c 8d 04 00 00 	lea    0x4(,%r9,4),%r9
  af:	00 
  b0:	45 85 d2             	test   %r10d,%r10d
  b3:	74 28                	je     dd <ScaleRowDown2Linear_16_C+0xdd>
  b5:	44 0f b7 10          	movzwl (%rax),%r10d
  b9:	0f b7 58 02          	movzwl 0x2(%rax),%ebx
  bd:	41 8d 1c 1a          	lea    (%r10,%rbx,1),%ebx
  c1:	83 c3 01             	add    $0x1,%ebx
  c4:	d1 eb                	shr    %ebx
  c6:	66 89 1e             	mov    %bx,(%rsi)
  c9:	0f b7 58 04          	movzwl 0x4(%rax),%ebx
  cd:	0f b7 40 06          	movzwl 0x6(%rax),%eax
  d1:	8d 04 03             	lea    (%rbx,%rax,1),%eax
  d4:	83 c0 01             	add    $0x1,%eax
  d7:	d1 e8                	shr    %eax
  d9:	66 89 46 02          	mov    %ax,0x2(%rsi)
  dd:	4a 8d 14 42          	lea    (%rdx,%r8,2),%rdx
  e1:	4a 8d 3c 4f          	lea    (%rdi,%r9,2),%rdi
  e5:	5b                   	pop    %rbx
  e6:	41 5e                	pop    %r14
  e8:	f6 c1 01             	test   $0x1,%cl
  eb:	0f 84 1d ff ff ff    	je     e <ScaleRowDown2Linear_16_C+0xe>
  f1:	0f b7 07             	movzwl (%rdi),%eax
  f4:	0f b7 4f 02          	movzwl 0x2(%rdi),%ecx
  f8:	8d 04 08             	lea    (%rax,%rcx,1),%eax
  fb:	83 c0 01             	add    $0x1,%eax
  fe:	d1 e8                	shr    %eax
 100:	66 89 02             	mov    %ax,(%rdx)
 103:	c3                   	retq   

Disassembly of section .text.ScaleRowDown2Box_C:

0000000000000000 <ScaleRowDown2Box_C>:
   0:	83 f9 02             	cmp    $0x2,%ecx
   3:	0f 8c 9f 00 00 00    	jl     a8 <ScaleRowDown2Box_C+0xa8>
   9:	55                   	push   %rbp
   a:	53                   	push   %rbx
   b:	44 8d 59 ff          	lea    -0x1(%rcx),%r11d
   f:	44 8d 41 fe          	lea    -0x2(%rcx),%r8d
  13:	44 89 c0             	mov    %r8d,%eax
  16:	d1 e8                	shr    %eax
  18:	41 83 e0 fe          	and    $0xfffffffe,%r8d
  1c:	49 83 c0 02          	add    $0x2,%r8
  20:	4c 8d 0c 85 04 00 00 	lea    0x4(,%rax,4),%r9
  27:	00 
  28:	4c 8d 14 86          	lea    (%rsi,%rax,4),%r10
  2c:	49 83 c2 04          	add    $0x4,%r10
  30:	48 01 fe             	add    %rdi,%rsi
  33:	48 83 c6 03          	add    $0x3,%rsi
  37:	31 c0                	xor    %eax,%eax
  39:	0f 1f 80 00 00 00 00 	nopl   0x0(%rax)
  40:	0f b6 1c 47          	movzbl (%rdi,%rax,2),%ebx
  44:	0f b6 6c 47 01       	movzbl 0x1(%rdi,%rax,2),%ebp
  49:	01 dd                	add    %ebx,%ebp
  4b:	0f b6 5c 46 fd       	movzbl -0x3(%rsi,%rax,2),%ebx
  50:	01 eb                	add    %ebp,%ebx
  52:	0f b6 6c 46 fe       	movzbl -0x2(%rsi,%rax,2),%ebp
  57:	8d 1c 2b             	lea    (%rbx,%rbp,1),%ebx
  5a:	83 c3 02             	add    $0x2,%ebx
  5d:	c1 eb 02             	shr    $0x2,%ebx
  60:	88 1c 02             	mov    %bl,(%rdx,%rax,1)
  63:	0f b6 5c 47 02       	movzbl 0x2(%rdi,%rax,2),%ebx
  68:	0f b6 6c 47 03       	movzbl 0x3(%rdi,%rax,2),%ebp
  6d:	01 dd                	add    %ebx,%ebp
  6f:	0f b6 5c 46 ff       	movzbl -0x1(%rsi,%rax,2),%ebx
  74:	01 eb                	add    %ebp,%ebx
  76:	0f b6 2c 46          	movzbl (%rsi,%rax,2),%ebp
  7a:	8d 1c 2b             	lea    (%rbx,%rbp,1),%ebx
  7d:	83 c3 02             	add    $0x2,%ebx
  80:	c1 eb 02             	shr    $0x2,%ebx
  83:	88 5c 02 01          	mov    %bl,0x1(%rdx,%rax,1)
  87:	48 83 c0 02          	add    $0x2,%rax
  8b:	44 39 d8             	cmp    %r11d,%eax
  8e:	7c b0                	jl     40 <ScaleRowDown2Box_C+0x40>
  90:	4c 01 c2             	add    %r8,%rdx
  93:	49 01 f9             	add    %rdi,%r9
  96:	49 01 fa             	add    %rdi,%r10
  99:	4c 89 cf             	mov    %r9,%rdi
  9c:	4c 89 d6             	mov    %r10,%rsi
  9f:	5b                   	pop    %rbx
  a0:	5d                   	pop    %rbp
  a1:	f6 c1 01             	test   $0x1,%cl
  a4:	75 0a                	jne    b0 <ScaleRowDown2Box_C+0xb0>
  a6:	eb 25                	jmp    cd <ScaleRowDown2Box_C+0xcd>
  a8:	48 01 fe             	add    %rdi,%rsi
  ab:	f6 c1 01             	test   $0x1,%cl
  ae:	74 1d                	je     cd <ScaleRowDown2Box_C+0xcd>
  b0:	0f b6 07             	movzbl (%rdi),%eax
  b3:	0f b6 4f 01          	movzbl 0x1(%rdi),%ecx
  b7:	01 c1                	add    %eax,%ecx
  b9:	0f b6 06             	movzbl (%rsi),%eax
  bc:	01 c8                	add    %ecx,%eax
  be:	0f b6 4e 01          	movzbl 0x1(%rsi),%ecx
  c2:	8d 04 01             	lea    (%rcx,%rax,1),%eax
  c5:	83 c0 02             	add    $0x2,%eax
  c8:	c1 e8 02             	shr    $0x2,%eax
  cb:	88 02                	mov    %al,(%rdx)
  cd:	c3                   	retq   

Disassembly of section .text.ScaleRowDown2Box_Odd_C:

0000000000000000 <ScaleRowDown2Box_Odd_C>:
   0:	83 f9 03             	cmp    $0x3,%ecx
   3:	0f 8c 9f 00 00 00    	jl     a8 <ScaleRowDown2Box_Odd_C+0xa8>
   9:	55                   	push   %rbp
   a:	53                   	push   %rbx
   b:	44 8d 59 fe          	lea    -0x2(%rcx),%r11d
   f:	44 8d 41 fd          	lea    -0x3(%rcx),%r8d
  13:	44 89 c0             	mov    %r8d,%eax
  16:	d1 e8                	shr    %eax
  18:	41 83 e0 fe          	and    $0xfffffffe,%r8d
  1c:	49 83 c0 02          	add    $0x2,%r8
  20:	4c 8d 0c 85 04 00 00 	lea    0x4(,%rax,4),%r9
  27:	00 
  28:	4c 8d 14 86          	lea    (%rsi,%rax,4),%r10
  2c:	49 83 c2 04          	add    $0x4,%r10
  30:	48 01 fe             	add    %rdi,%rsi
  33:	48 83 c6 03          	add    $0x3,%rsi
  37:	31 c0                	xor    %eax,%eax
  39:	0f 1f 80 00 00 00 00 	nopl   0x0(%rax)
  40:	0f b6 1c 47          	movzbl (%rdi,%rax,2),%ebx
  44:	0f b6 6c 47 01       	movzbl 0x1(%rdi,%rax,2),%ebp
  49:	01 dd                	add    %ebx,%ebp
  4b:	0f b6 5c 46 fd       	movzbl -0x3(%rsi,%rax,2),%ebx
  50:	01 eb                	add    %ebp,%ebx
  52:	0f b6 6c 46 fe       	movzbl -0x2(%rsi,%rax,2),%ebp
  57:	8d 1c 2b             	lea    (%rbx,%rbp,1),%ebx
  5a:	83 c3 02             	add    $0x2,%ebx
  5d:	c1 eb 02             	shr    $0x2,%ebx
  60:	88 1c 02             	mov    %bl,(%rdx,%rax,1)
  63:	0f b6 5c 47 02       	movzbl 0x2(%rdi,%rax,2),%ebx
  68:	0f b6 6c 47 03       	movzbl 0x3(%rdi,%rax,2),%ebp
  6d:	01 dd                	add    %ebx,%ebp
  6f:	0f b6 5c 46 ff       	movzbl -0x1(%rsi,%rax,2),%ebx
  74:	01 eb                	add    %ebp,%ebx
  76:	0f b6 2c 46          	movzbl (%rsi,%rax,2),%ebp
  7a:	8d 1c 2b             	lea    (%rbx,%rbp,1),%ebx
  7d:	83 c3 02             	add    $0x2,%ebx
  80:	c1 eb 02             	shr    $0x2,%ebx
  83:	88 5c 02 01          	mov    %bl,0x1(%rdx,%rax,1)
  87:	48 83 c0 02          	add    $0x2,%rax
  8b:	44 39 d8             	cmp    %r11d,%eax
  8e:	7c b0                	jl     40 <ScaleRowDown2Box_Odd_C+0x40>
  90:	4c 01 c2             	add    %r8,%rdx
  93:	49 01 f9             	add    %rdi,%r9
  96:	49 01 fa             	add    %rdi,%r10
  99:	4c 89 cf             	mov    %r9,%rdi
  9c:	4c 89 d6             	mov    %r10,%rsi
  9f:	5b                   	pop    %rbx
  a0:	5d                   	pop    %rbp
  a1:	f6 c1 01             	test   $0x1,%cl
  a4:	74 0a                	je     b0 <ScaleRowDown2Box_Odd_C+0xb0>
  a6:	eb 31                	jmp    d9 <ScaleRowDown2Box_Odd_C+0xd9>
  a8:	48 01 fe             	add    %rdi,%rsi
  ab:	f6 c1 01             	test   $0x1,%cl
  ae:	75 29                	jne    d9 <ScaleRowDown2Box_Odd_C+0xd9>
  b0:	0f b6 07             	movzbl (%rdi),%eax
  b3:	0f b6 4f 01          	movzbl 0x1(%rdi),%ecx
  b7:	01 c1                	add    %eax,%ecx
  b9:	0f b6 06             	movzbl (%rsi),%eax
  bc:	01 c8                	add    %ecx,%eax
  be:	0f b6 4e 01          	movzbl 0x1(%rsi),%ecx
  c2:	8d 04 01             	lea    (%rcx,%rax,1),%eax
  c5:	83 c0 02             	add    $0x2,%eax
  c8:	c1 e8 02             	shr    $0x2,%eax
  cb:	88 02                	mov    %al,(%rdx)
  cd:	48 83 c2 01          	add    $0x1,%rdx
  d1:	48 83 c7 02          	add    $0x2,%rdi
  d5:	48 83 c6 02          	add    $0x2,%rsi
  d9:	0f b6 07             	movzbl (%rdi),%eax
  dc:	0f b6 0e             	movzbl (%rsi),%ecx
  df:	8d 04 08             	lea    (%rax,%rcx,1),%eax
  e2:	83 c0 01             	add    $0x1,%eax
  e5:	d1 e8                	shr    %eax
  e7:	88 02                	mov    %al,(%rdx)
  e9:	c3                   	retq   

Disassembly of section .text.ScaleRowDown2Box_16_C:

0000000000000000 <ScaleRowDown2Box_16_C>:
   0:	83 f9 02             	cmp    $0x2,%ecx
   3:	0f 8c 9e 00 00 00    	jl     a7 <ScaleRowDown2Box_16_C+0xa7>
   9:	55                   	push   %rbp
   a:	53                   	push   %rbx
   b:	44 8d 59 ff          	lea    -0x1(%rcx),%r11d
   f:	44 8d 41 fe          	lea    -0x2(%rcx),%r8d
  13:	44 89 c0             	mov    %r8d,%eax
  16:	d1 e8                	shr    %eax
  18:	41 83 e0 fe          	and    $0xfffffffe,%r8d
  1c:	49 83 c0 02          	add    $0x2,%r8
  20:	4c 8d 0c 85 04 00 00 	lea    0x4(,%rax,4),%r9
  27:	00 
  28:	4c 8d 14 86          	lea    (%rsi,%rax,4),%r10
  2c:	49 83 c2 04          	add    $0x4,%r10
  30:	48 8d 34 77          	lea    (%rdi,%rsi,2),%rsi
  34:	48 83 c6 06          	add    $0x6,%rsi
  38:	31 c0                	xor    %eax,%eax
  3a:	66 0f 1f 44 00 00    	nopw   0x0(%rax,%rax,1)
  40:	0f b7 1c 87          	movzwl (%rdi,%rax,4),%ebx
  44:	0f b7 6c 87 02       	movzwl 0x2(%rdi,%rax,4),%ebp
  49:	01 dd                	add    %ebx,%ebp
  4b:	0f b7 5c 86 fa       	movzwl -0x6(%rsi,%rax,4),%ebx
  50:	01 eb                	add    %ebp,%ebx
  52:	0f b7 6c 86 fc       	movzwl -0x4(%rsi,%rax,4),%ebp
  57:	8d 1c 2b             	lea    (%rbx,%rbp,1),%ebx
  5a:	83 c3 02             	add    $0x2,%ebx
  5d:	c1 eb 02             	shr    $0x2,%ebx
  60:	66 89 1c 42          	mov    %bx,(%rdx,%rax,2)
  64:	0f b7 5c 87 04       	movzwl 0x4(%rdi,%rax,4),%ebx
  69:	0f b7 6c 87 06       	movzwl 0x6(%rdi,%rax,4),%ebp
  6e:	01 dd                	add    %ebx,%ebp
  70:	0f b7 5c 86 fe       	movzwl -0x2(%rsi,%rax,4),%ebx
  75:	01 eb                	add    %ebp,%ebx
  77:	0f b7 2c 86          	movzwl (%rsi,%rax,4),%ebp
  7b:	8d 1c 2b             	lea    (%rbx,%rbp,1),%ebx
  7e:	83 c3 02             	add    $0x2,%ebx
  81:	c1 eb 02             	shr    $0x2,%ebx
  84:	66 89 5c 42 02       	mov    %bx,0x2(%rdx,%rax,2)
  89:	48 83 c0 02          	add    $0x2,%rax
  8d:	44 39 d8             	cmp    %r11d,%eax
  90:	7c ae                	jl     40 <ScaleRowDown2Box_16_C+0x40>
  92:	4a 8d 14 42          	lea    (%rdx,%r8,2),%rdx
  96:	4a 8d 04 57          	lea    (%rdi,%r10,2),%rax
  9a:	4a 8d 3c 4f          	lea    (%rdi,%r9,2),%rdi
  9e:	5b                   	pop    %rbx
  9f:	5d                   	pop    %rbp
  a0:	f6 c1 01             	test   $0x1,%cl
  a3:	75 0b                	jne    b0 <ScaleRowDown2Box_16_C+0xb0>
  a5:	eb 27                	jmp    ce <ScaleRowDown2Box_16_C+0xce>
  a7:	48 8d 04 77          	lea    (%rdi,%rsi,2),%rax
  ab:	f6 c1 01             	test   $0x1,%cl
  ae:	74 1e                	je     ce <ScaleRowDown2Box_16_C+0xce>
  b0:	0f b7 0f             	movzwl (%rdi),%ecx
  b3:	0f b7 77 02          	movzwl 0x2(%rdi),%esi
  b7:	01 ce                	add    %ecx,%esi
  b9:	0f b7 08             	movzwl (%rax),%ecx
  bc:	01 f1                	add    %esi,%ecx
  be:	0f b7 40 02          	movzwl 0x2(%rax),%eax
  c2:	8d 04 08             	lea    (%rax,%rcx,1),%eax
  c5:	83 c0 02             	add    $0x2,%eax
  c8:	c1 e8 02             	shr    $0x2,%eax
  cb:	66 89 02             	mov    %ax,(%rdx)
  ce:	c3                   	retq   

Disassembly of section .text.ScaleRowDown4_C:

0000000000000000 <ScaleRowDown4_C>:
   0:	83 f9 02             	cmp    $0x2,%ecx
   3:	7d 0a                	jge    f <ScaleRowDown4_C+0xf>
   5:	f6 c1 01             	test   $0x1,%cl
   8:	0f 85 e0 00 00 00    	jne    ee <ScaleRowDown4_C+0xee>
   e:	c3                   	retq   
   f:	41 56                	push   %r14
  11:	53                   	push   %rbx
  12:	8d 71 fe             	lea    -0x2(%rcx),%esi
  15:	41 89 f1             	mov    %esi,%r9d
  18:	41 d1 e9             	shr    %r9d
  1b:	41 89 f0             	mov    %esi,%r8d
  1e:	41 83 e0 fe          	and    $0xfffffffe,%r8d
  22:	45 8d 51 01          	lea    0x1(%r9),%r10d
  26:	41 83 e2 03          	and    $0x3,%r10d
  2a:	49 89 fe             	mov    %rdi,%r14
  2d:	48 89 d0             	mov    %rdx,%rax
  30:	83 fe 06             	cmp    $0x6,%esi
  33:	72 68                	jb     9d <ScaleRowDown4_C+0x9d>
  35:	45 8d 5a ff          	lea    -0x1(%r10),%r11d
  39:	45 29 cb             	sub    %r9d,%r11d
  3c:	49 89 fe             	mov    %rdi,%r14
  3f:	48 89 d0             	mov    %rdx,%rax
  42:	66 2e 0f 1f 84 00 00 	nopw   %cs:0x0(%rax,%rax,1)
  49:	00 00 00 
  4c:	0f 1f 40 00          	nopl   0x0(%rax)
  50:	41 0f b6 5e 02       	movzbl 0x2(%r14),%ebx
  55:	88 18                	mov    %bl,(%rax)
  57:	41 0f b6 5e 06       	movzbl 0x6(%r14),%ebx
  5c:	88 58 01             	mov    %bl,0x1(%rax)
  5f:	41 0f b6 5e 0a       	movzbl 0xa(%r14),%ebx
  64:	88 58 02             	mov    %bl,0x2(%rax)
  67:	41 0f b6 5e 0e       	movzbl 0xe(%r14),%ebx
  6c:	88 58 03             	mov    %bl,0x3(%rax)
  6f:	41 0f b6 5e 12       	movzbl 0x12(%r14),%ebx
  74:	88 58 04             	mov    %bl,0x4(%rax)
  77:	41 0f b6 5e 16       	movzbl 0x16(%r14),%ebx
  7c:	88 58 05             	mov    %bl,0x5(%rax)
  7f:	41 0f b6 5e 1a       	movzbl 0x1a(%r14),%ebx
  84:	88 58 06             	mov    %bl,0x6(%rax)
  87:	41 0f b6 5e 1e       	movzbl 0x1e(%r14),%ebx
  8c:	88 58 07             	mov    %bl,0x7(%rax)
  8f:	48 83 c0 08          	add    $0x8,%rax
  93:	49 83 c6 20          	add    $0x20,%r14
  97:	41 83 c3 04          	add    $0x4,%r11d
  9b:	75 b3                	jne    50 <ScaleRowDown4_C+0x50>
  9d:	49 83 c0 02          	add    $0x2,%r8
  a1:	4e 8d 1c cd 08 00 00 	lea    0x8(,%r9,8),%r11
  a8:	00 
  a9:	45 85 d2             	test   %r10d,%r10d
  ac:	74 2e                	je     dc <ScaleRowDown4_C+0xdc>
  ae:	41 80 c1 01          	add    $0x1,%r9b
  b2:	45 0f b6 c9          	movzbl %r9b,%r9d
  b6:	41 83 e1 03          	and    $0x3,%r9d
  ba:	31 f6                	xor    %esi,%esi
  bc:	0f 1f 40 00          	nopl   0x0(%rax)
  c0:	41 0f b6 5c f6 02    	movzbl 0x2(%r14,%rsi,8),%ebx
  c6:	88 1c 70             	mov    %bl,(%rax,%rsi,2)
  c9:	41 0f b6 5c f6 06    	movzbl 0x6(%r14,%rsi,8),%ebx
  cf:	88 5c 70 01          	mov    %bl,0x1(%rax,%rsi,2)
  d3:	48 83 c6 01          	add    $0x1,%rsi
  d7:	41 39 f1             	cmp    %esi,%r9d
  da:	75 e4                	jne    c0 <ScaleRowDown4_C+0xc0>
  dc:	4c 01 c2             	add    %r8,%rdx
  df:	4c 01 df             	add    %r11,%rdi
  e2:	5b                   	pop    %rbx
  e3:	41 5e                	pop    %r14
  e5:	f6 c1 01             	test   $0x1,%cl
  e8:	0f 84 20 ff ff ff    	je     e <ScaleRowDown4_C+0xe>
  ee:	8a 47 02             	mov    0x2(%rdi),%al
  f1:	88 02                	mov    %al,(%rdx)
  f3:	c3                   	retq   

Disassembly of section .text.ScaleRowDown4_16_C:

0000000000000000 <ScaleRowDown4_16_C>:
   0:	83 f9 02             	cmp    $0x2,%ecx
   3:	7d 0a                	jge    f <ScaleRowDown4_16_C+0xf>
   5:	f6 c1 01             	test   $0x1,%cl
   8:	0f 85 f5 00 00 00    	jne    103 <ScaleRowDown4_16_C+0x103>
   e:	c3                   	retq   
   f:	41 56                	push   %r14
  11:	53                   	push   %rbx
  12:	8d 41 fe             	lea    -0x2(%rcx),%eax
  15:	41 89 c1             	mov    %eax,%r9d
  18:	41 d1 e9             	shr    %r9d
  1b:	41 89 c0             	mov    %eax,%r8d
  1e:	41 83 e0 fe          	and    $0xfffffffe,%r8d
  22:	45 8d 51 01          	lea    0x1(%r9),%r10d
  26:	41 83 e2 03          	and    $0x3,%r10d
  2a:	48 89 fe             	mov    %rdi,%rsi
  2d:	49 89 d6             	mov    %rdx,%r14
  30:	83 f8 06             	cmp    $0x6,%eax
  33:	72 70                	jb     a5 <ScaleRowDown4_16_C+0xa5>
  35:	45 8d 5a ff          	lea    -0x1(%r10),%r11d
  39:	45 29 cb             	sub    %r9d,%r11d
  3c:	48 89 fe             	mov    %rdi,%rsi
  3f:	49 89 d6             	mov    %rdx,%r14
  42:	66 2e 0f 1f 84 00 00 	nopw   %cs:0x0(%rax,%rax,1)
  49:	00 00 00 
  4c:	0f 1f 40 00          	nopl   0x0(%rax)
  50:	0f b7 46 04          	movzwl 0x4(%rsi),%eax
  54:	66 41 89 06          	mov    %ax,(%r14)
  58:	0f b7 46 0c          	movzwl 0xc(%rsi),%eax
  5c:	66 41 89 46 02       	mov    %ax,0x2(%r14)
  61:	0f b7 46 14          	movzwl 0x14(%rsi),%eax
  65:	66 41 89 46 04       	mov    %ax,0x4(%r14)
  6a:	0f b7 46 1c          	movzwl 0x1c(%rsi),%eax
  6e:	66 41 89 46 06       	mov    %ax,0x6(%r14)
  73:	0f b7 46 24          	movzwl 0x24(%rsi),%eax
  77:	66 41 89 46 08       	mov    %ax,0x8(%r14)
  7c:	0f b7 46 2c          	movzwl 0x2c(%rsi),%eax
  80:	66 41 89 46 0a       	mov    %ax,0xa(%r14)
  85:	0f b7 46 34          	movzwl 0x34(%rsi),%eax
  89:	66 41 89 46 0c       	mov    %ax,0xc(%r14)
  8e:	0f b7 46 3c          	movzwl 0x3c(%rsi),%eax
  92:	66 41 89 46 0e       	mov    %ax,0xe(%r14)
  97:	49 83 c6 10          	add    $0x10,%r14
  9b:	48 83 c6 40          	add    $0x40,%rsi
  9f:	41 83 c3 04          	add    $0x4,%r11d
  a3:	75 ab                	jne    50 <ScaleRowDown4_16_C+0x50>
  a5:	49 83 c0 02          	add    $0x2,%r8
  a9:	4e 8d 1c cd 08 00 00 	lea    0x8(,%r9,8),%r11
  b0:	00 
  b1:	45 85 d2             	test   %r10d,%r10d
  b4:	74 39                	je     ef <ScaleRowDown4_16_C+0xef>
  b6:	48 83 c6 0c          	add    $0xc,%rsi
  ba:	41 80 c1 01          	add    $0x1,%r9b
  be:	45 0f b6 c9          	movzbl %r9b,%r9d
  c2:	41 83 e1 03          	and    $0x3,%r9d
  c6:	31 c0                	xor    %eax,%eax
  c8:	0f 1f 84 00 00 00 00 	nopl   0x0(%rax,%rax,1)
  cf:	00 
  d0:	0f b7 5e f8          	movzwl -0x8(%rsi),%ebx
  d4:	66 41 89 1c 86       	mov    %bx,(%r14,%rax,4)
  d9:	0f b7 1e             	movzwl (%rsi),%ebx
  dc:	66 41 89 5c 86 02    	mov    %bx,0x2(%r14,%rax,4)
  e2:	48 83 c6 10          	add    $0x10,%rsi
  e6:	48 83 c0 01          	add    $0x1,%rax
  ea:	41 39 c1             	cmp    %eax,%r9d
  ed:	75 e1                	jne    d0 <ScaleRowDown4_16_C+0xd0>
  ef:	4a 8d 14 42          	lea    (%rdx,%r8,2),%rdx
  f3:	4a 8d 3c 5f          	lea    (%rdi,%r11,2),%rdi
  f7:	5b                   	pop    %rbx
  f8:	41 5e                	pop    %r14
  fa:	f6 c1 01             	test   $0x1,%cl
  fd:	0f 84 0b ff ff ff    	je     e <ScaleRowDown4_16_C+0xe>
 103:	0f b7 47 04          	movzwl 0x4(%rdi),%eax
 107:	66 89 02             	mov    %ax,(%rdx)
 10a:	c3                   	retq   

Disassembly of section .text.ScaleRowDown4Box_C:

0000000000000000 <ScaleRowDown4Box_C>:
   0:	83 f9 02             	cmp    $0x2,%ecx
   3:	7d 0a                	jge    f <ScaleRowDown4Box_C+0xf>
   5:	f6 c1 01             	test   $0x1,%cl
   8:	0f 85 65 01 00 00    	jne    173 <ScaleRowDown4Box_C+0x173>
   e:	c3                   	retq   
   f:	55                   	push   %rbp
  10:	41 57                	push   %r15
  12:	41 56                	push   %r14
  14:	41 54                	push   %r12
  16:	53                   	push   %rbx
  17:	44 8d 49 ff          	lea    -0x1(%rcx),%r9d
  1b:	4c 8d 1c 36          	lea    (%rsi,%rsi,1),%r11
  1f:	49 83 c3 01          	add    $0x1,%r11
  23:	44 8d 41 fe          	lea    -0x2(%rcx),%r8d
  27:	44 89 c0             	mov    %r8d,%eax
  2a:	d1 e8                	shr    %eax
  2c:	41 83 e0 fe          	and    $0xfffffffe,%r8d
  30:	49 83 c0 02          	add    $0x2,%r8
  34:	4c 8d 14 c5 08 00 00 	lea    0x8(,%rax,8),%r10
  3b:	00 
  3c:	48 8d 47 07          	lea    0x7(%rdi),%rax
  40:	49 83 c3 ff          	add    $0xffffffffffffffff,%r11
  44:	4c 8d 3c 76          	lea    (%rsi,%rsi,2),%r15
  48:	45 31 f6             	xor    %r14d,%r14d
  4b:	49 89 d4             	mov    %rdx,%r12
  4e:	66 90                	xchg   %ax,%ax
  50:	0f b6 58 f9          	movzbl -0x7(%rax),%ebx
  54:	0f b6 68 fa          	movzbl -0x6(%rax),%ebp
  58:	01 dd                	add    %ebx,%ebp
  5a:	0f b6 58 fb          	movzbl -0x5(%rax),%ebx
  5e:	01 eb                	add    %ebp,%ebx
  60:	0f b6 68 fc          	movzbl -0x4(%rax),%ebp
  64:	01 dd                	add    %ebx,%ebp
  66:	0f b6 5c 30 f9       	movzbl -0x7(%rax,%rsi,1),%ebx
  6b:	01 eb                	add    %ebp,%ebx
  6d:	0f b6 6c 30 fa       	movzbl -0x6(%rax,%rsi,1),%ebp
  72:	01 dd                	add    %ebx,%ebp
  74:	0f b6 5c 30 fb       	movzbl -0x5(%rax,%rsi,1),%ebx
  79:	01 eb                	add    %ebp,%ebx
  7b:	0f b6 6c 30 fc       	movzbl -0x4(%rax,%rsi,1),%ebp
  80:	01 dd                	add    %ebx,%ebp
  82:	42 0f b6 5c 18 f9    	movzbl -0x7(%rax,%r11,1),%ebx
  88:	01 eb                	add    %ebp,%ebx
  8a:	42 0f b6 6c 18 fa    	movzbl -0x6(%rax,%r11,1),%ebp
  90:	01 dd                	add    %ebx,%ebp
  92:	42 0f b6 5c 18 fb    	movzbl -0x5(%rax,%r11,1),%ebx
  98:	01 eb                	add    %ebp,%ebx
  9a:	42 0f b6 6c 18 fc    	movzbl -0x4(%rax,%r11,1),%ebp
  a0:	01 dd                	add    %ebx,%ebp
  a2:	42 0f b6 5c 38 f9    	movzbl -0x7(%rax,%r15,1),%ebx
  a8:	01 eb                	add    %ebp,%ebx
  aa:	42 0f b6 6c 38 fa    	movzbl -0x6(%rax,%r15,1),%ebp
  b0:	01 dd                	add    %ebx,%ebp
  b2:	42 0f b6 5c 38 fb    	movzbl -0x5(%rax,%r15,1),%ebx
  b8:	01 eb                	add    %ebp,%ebx
  ba:	42 0f b6 6c 38 fc    	movzbl -0x4(%rax,%r15,1),%ebp
  c0:	8d 1c 2b             	lea    (%rbx,%rbp,1),%ebx
  c3:	83 c3 08             	add    $0x8,%ebx
  c6:	c1 eb 04             	shr    $0x4,%ebx
  c9:	41 88 1c 24          	mov    %bl,(%r12)
  cd:	0f b6 58 fd          	movzbl -0x3(%rax),%ebx
  d1:	0f b6 68 fe          	movzbl -0x2(%rax),%ebp
  d5:	01 dd                	add    %ebx,%ebp
  d7:	0f b6 58 ff          	movzbl -0x1(%rax),%ebx
  db:	01 eb                	add    %ebp,%ebx
  dd:	0f b6 28             	movzbl (%rax),%ebp
  e0:	01 dd                	add    %ebx,%ebp
  e2:	0f b6 5c 30 fd       	movzbl -0x3(%rax,%rsi,1),%ebx
  e7:	01 eb                	add    %ebp,%ebx
  e9:	0f b6 6c 30 fe       	movzbl -0x2(%rax,%rsi,1),%ebp
  ee:	01 dd                	add    %ebx,%ebp
  f0:	0f b6 5c 30 ff       	movzbl -0x1(%rax,%rsi,1),%ebx
  f5:	01 eb                	add    %ebp,%ebx
  f7:	0f b6 2c 30          	movzbl (%rax,%rsi,1),%ebp
  fb:	01 dd                	add    %ebx,%ebp
  fd:	42 0f b6 5c 18 fd    	movzbl -0x3(%rax,%r11,1),%ebx
 103:	01 eb                	add    %ebp,%ebx
 105:	42 0f b6 6c 18 fe    	movzbl -0x2(%rax,%r11,1),%ebp
 10b:	01 dd                	add    %ebx,%ebp
 10d:	42 0f b6 5c 18 ff    	movzbl -0x1(%rax,%r11,1),%ebx
 113:	01 eb                	add    %ebp,%ebx
 115:	42 0f b6 2c 18       	movzbl (%rax,%r11,1),%ebp
 11a:	01 dd                	add    %ebx,%ebp
 11c:	42 0f b6 5c 38 fd    	movzbl -0x3(%rax,%r15,1),%ebx
 122:	01 eb                	add    %ebp,%ebx
 124:	42 0f b6 6c 38 fe    	movzbl -0x2(%rax,%r15,1),%ebp
 12a:	01 dd                	add    %ebx,%ebp
 12c:	42 0f b6 5c 38 ff    	movzbl -0x1(%rax,%r15,1),%ebx
 132:	01 eb                	add    %ebp,%ebx
 134:	42 0f b6 2c 38       	movzbl (%rax,%r15,1),%ebp
 139:	8d 1c 2b             	lea    (%rbx,%rbp,1),%ebx
 13c:	83 c3 08             	add    $0x8,%ebx
 13f:	c1 eb 04             	shr    $0x4,%ebx
 142:	41 88 5c 24 01       	mov    %bl,0x1(%r12)
 147:	41 83 c6 02          	add    $0x2,%r14d
 14b:	48 83 c0 08          	add    $0x8,%rax
 14f:	49 83 c4 02          	add    $0x2,%r12
 153:	45 39 ce             	cmp    %r9d,%r14d
 156:	0f 8c f4 fe ff ff    	jl     50 <ScaleRowDown4Box_C+0x50>
 15c:	4c 01 c2             	add    %r8,%rdx
 15f:	4c 01 d7             	add    %r10,%rdi
 162:	5b                   	pop    %rbx
 163:	41 5c                	pop    %r12
 165:	41 5e                	pop    %r14
 167:	41 5f                	pop    %r15
 169:	5d                   	pop    %rbp
 16a:	f6 c1 01             	test   $0x1,%cl
 16d:	0f 84 9b fe ff ff    	je     e <ScaleRowDown4Box_C+0xe>
 173:	0f b6 07             	movzbl (%rdi),%eax
 176:	0f b6 4f 01          	movzbl 0x1(%rdi),%ecx
 17a:	01 c1                	add    %eax,%ecx
 17c:	0f b6 47 02          	movzbl 0x2(%rdi),%eax
 180:	01 c8                	add    %ecx,%eax
 182:	0f b6 4f 03          	movzbl 0x3(%rdi),%ecx
 186:	01 c1                	add    %eax,%ecx
 188:	0f b6 04 37          	movzbl (%rdi,%rsi,1),%eax
 18c:	01 c8                	add    %ecx,%eax
 18e:	0f b6 4c 37 01       	movzbl 0x1(%rdi,%rsi,1),%ecx
 193:	01 c1                	add    %eax,%ecx
 195:	0f b6 44 37 02       	movzbl 0x2(%rdi,%rsi,1),%eax
 19a:	01 c8                	add    %ecx,%eax
 19c:	0f b6 4c 37 03       	movzbl 0x3(%rdi,%rsi,1),%ecx
 1a1:	01 c1                	add    %eax,%ecx
 1a3:	0f b6 04 77          	movzbl (%rdi,%rsi,2),%eax
 1a7:	01 c8                	add    %ecx,%eax
 1a9:	0f b6 4c 77 01       	movzbl 0x1(%rdi,%rsi,2),%ecx
 1ae:	01 c1                	add    %eax,%ecx
 1b0:	0f b6 44 77 02       	movzbl 0x2(%rdi,%rsi,2),%eax
 1b5:	01 c8                	add    %ecx,%eax
 1b7:	0f b6 4c 77 03       	movzbl 0x3(%rdi,%rsi,2),%ecx
 1bc:	01 c1                	add    %eax,%ecx
 1be:	48 8d 04 76          	lea    (%rsi,%rsi,2),%rax
 1c2:	0f b6 34 07          	movzbl (%rdi,%rax,1),%esi
 1c6:	01 ce                	add    %ecx,%esi
 1c8:	0f b6 4c 07 01       	movzbl 0x1(%rdi,%rax,1),%ecx
 1cd:	01 f1                	add    %esi,%ecx
 1cf:	0f b6 74 07 02       	movzbl 0x2(%rdi,%rax,1),%esi
 1d4:	01 ce                	add    %ecx,%esi
 1d6:	0f b6 44 07 03       	movzbl 0x3(%rdi,%rax,1),%eax
 1db:	8d 04 30             	lea    (%rax,%rsi,1),%eax
 1de:	83 c0 08             	add    $0x8,%eax
 1e1:	c1 e8 04             	shr    $0x4,%eax
 1e4:	88 02                	mov    %al,(%rdx)
 1e6:	c3                   	retq   

Disassembly of section .text.ScaleRowDown4Box_16_C:

0000000000000000 <ScaleRowDown4Box_16_C>:
   0:	83 f9 02             	cmp    $0x2,%ecx
   3:	7d 0a                	jge    f <ScaleRowDown4Box_16_C+0xf>
   5:	f6 c1 01             	test   $0x1,%cl
   8:	0f 85 5d 01 00 00    	jne    16b <ScaleRowDown4Box_16_C+0x16b>
   e:	c3                   	retq   
   f:	55                   	push   %rbp
  10:	41 57                	push   %r15
  12:	41 56                	push   %r14
  14:	53                   	push   %rbx
  15:	44 8d 51 ff          	lea    -0x1(%rcx),%r10d
  19:	44 8d 41 fe          	lea    -0x2(%rcx),%r8d
  1d:	44 89 c0             	mov    %r8d,%eax
  20:	d1 e8                	shr    %eax
  22:	41 83 e0 fe          	and    $0xfffffffe,%r8d
  26:	49 83 c0 02          	add    $0x2,%r8
  2a:	4c 8d 0c c5 08 00 00 	lea    0x8(,%rax,8),%r9
  31:	00 
  32:	48 8d 47 0e          	lea    0xe(%rdi),%rax
  36:	48 8d 2c 36          	lea    (%rsi,%rsi,1),%rbp
  3a:	4c 8d 1c 6d 00 00 00 	lea    0x0(,%rbp,2),%r11
  41:	00 
  42:	49 01 eb             	add    %rbp,%r11
  45:	45 31 f6             	xor    %r14d,%r14d
  48:	49 89 d7             	mov    %rdx,%r15
  4b:	0f 1f 44 00 00       	nopl   0x0(%rax,%rax,1)
  50:	0f b7 68 f2          	movzwl -0xe(%rax),%ebp
  54:	0f b7 58 f4          	movzwl -0xc(%rax),%ebx
  58:	01 eb                	add    %ebp,%ebx
  5a:	0f b7 68 f6          	movzwl -0xa(%rax),%ebp
  5e:	01 dd                	add    %ebx,%ebp
  60:	0f b7 58 f8          	movzwl -0x8(%rax),%ebx
  64:	01 eb                	add    %ebp,%ebx
  66:	0f b7 6c 70 f2       	movzwl -0xe(%rax,%rsi,2),%ebp
  6b:	01 dd                	add    %ebx,%ebp
  6d:	0f b7 5c 70 f4       	movzwl -0xc(%rax,%rsi,2),%ebx
  72:	01 eb                	add    %ebp,%ebx
  74:	0f b7 6c 70 f6       	movzwl -0xa(%rax,%rsi,2),%ebp
  79:	01 dd                	add    %ebx,%ebp
  7b:	0f b7 5c 70 f8       	movzwl -0x8(%rax,%rsi,2),%ebx
  80:	01 eb                	add    %ebp,%ebx
  82:	0f b7 6c b0 f2       	movzwl -0xe(%rax,%rsi,4),%ebp
  87:	01 dd                	add    %ebx,%ebp
  89:	0f b7 5c b0 f4       	movzwl -0xc(%rax,%rsi,4),%ebx
  8e:	01 eb                	add    %ebp,%ebx
  90:	0f b7 6c b0 f6       	movzwl -0xa(%rax,%rsi,4),%ebp
  95:	01 dd                	add    %ebx,%ebp
  97:	0f b7 5c b0 f8       	movzwl -0x8(%rax,%rsi,4),%ebx
  9c:	01 eb                	add    %ebp,%ebx
  9e:	42 0f b7 6c 18 f2    	movzwl -0xe(%rax,%r11,1),%ebp
  a4:	01 dd                	add    %ebx,%ebp
  a6:	42 0f b7 5c 18 f4    	movzwl -0xc(%rax,%r11,1),%ebx
  ac:	01 eb                	add    %ebp,%ebx
  ae:	42 0f b7 6c 18 f6    	movzwl -0xa(%rax,%r11,1),%ebp
  b4:	01 dd                	add    %ebx,%ebp
  b6:	42 0f b7 5c 18 f8    	movzwl -0x8(%rax,%r11,1),%ebx
  bc:	8d 1c 2b             	lea    (%rbx,%rbp,1),%ebx
  bf:	83 c3 08             	add    $0x8,%ebx
  c2:	c1 eb 04             	shr    $0x4,%ebx
  c5:	66 41 89 1f          	mov    %bx,(%r15)
  c9:	0f b7 58 fa          	movzwl -0x6(%rax),%ebx
  cd:	0f b7 68 fc          	movzwl -0x4(%rax),%ebp
  d1:	01 dd                	add    %ebx,%ebp
  d3:	0f b7 58 fe          	movzwl -0x2(%rax),%ebx
  d7:	01 eb                	add    %ebp,%ebx
  d9:	0f b7 28             	movzwl (%rax),%ebp
  dc:	01 dd                	add    %ebx,%ebp
  de:	0f b7 5c 70 fa       	movzwl -0x6(%rax,%rsi,2),%ebx
  e3:	01 eb                	add    %ebp,%ebx
  e5:	0f b7 6c 70 fc       	movzwl -0x4(%rax,%rsi,2),%ebp
  ea:	01 dd                	add    %ebx,%ebp
  ec:	0f b7 5c 70 fe       	movzwl -0x2(%rax,%rsi,2),%ebx
  f1:	01 eb                	add    %ebp,%ebx
  f3:	0f b7 2c 70          	movzwl (%rax,%rsi,2),%ebp
  f7:	01 dd                	add    %ebx,%ebp
  f9:	0f b7 5c b0 fa       	movzwl -0x6(%rax,%rsi,4),%ebx
  fe:	01 eb                	add    %ebp,%ebx
 100:	0f b7 6c b0 fc       	movzwl -0x4(%rax,%rsi,4),%ebp
 105:	01 dd                	add    %ebx,%ebp
 107:	0f b7 5c b0 fe       	movzwl -0x2(%rax,%rsi,4),%ebx
 10c:	01 eb                	add    %ebp,%ebx
 10e:	0f b7 2c b0          	movzwl (%rax,%rsi,4),%ebp
 112:	01 dd                	add    %ebx,%ebp
 114:	42 0f b7 5c 18 fa    	movzwl -0x6(%rax,%r11,1),%ebx
 11a:	01 eb                	add    %ebp,%ebx
 11c:	42 0f b7 6c 18 fc    	movzwl -0x4(%rax,%r11,1),%ebp
 122:	01 dd                	add    %ebx,%ebp
 124:	42 0f b7 5c 18 fe    	movzwl -0x2(%rax,%r11,1),%ebx
 12a:	01 eb                	add    %ebp,%ebx
 12c:	42 0f b7 2c 18       	movzwl (%rax,%r11,1),%ebp
 131:	8d 1c 2b             	lea    (%rbx,%rbp,1),%ebx
 134:	83 c3 08             	add    $0x8,%ebx
 137:	c1 eb 04             	shr    $0x4,%ebx
 13a:	66 41 89 5f 02       	mov    %bx,0x2(%r15)
 13f:	41 83 c6 02          	add    $0x2,%r14d
 143:	48 83 c0 10          	add    $0x10,%rax
 147:	49 83 c7 04          	add    $0x4,%r15
 14b:	45 39 d6             	cmp    %r10d,%r14d
 14e:	0f 8c fc fe ff ff    	jl     50 <ScaleRowDown4Box_16_C+0x50>
 154:	4a 8d 14 42          	lea    (%rdx,%r8,2),%rdx
 158:	4a 8d 3c 4f          	lea    (%rdi,%r9,2),%rdi
 15c:	5b                   	pop    %rbx
 15d:	41 5e                	pop    %r14
 15f:	41 5f                	pop    %r15
 161:	5d                   	pop    %rbp
 162:	f6 c1 01             	test   $0x1,%cl
 165:	0f 84 a3 fe ff ff    	je     e <ScaleRowDown4Box_16_C+0xe>
 16b:	0f b7 07             	movzwl (%rdi),%eax
 16e:	0f b7 4f 02          	movzwl 0x2(%rdi),%ecx
 172:	01 c1                	add    %eax,%ecx
 174:	0f b7 47 04          	movzwl 0x4(%rdi),%eax
 178:	01 c8                	add    %ecx,%eax
 17a:	0f b7 4f 06          	movzwl 0x6(%rdi),%ecx
 17e:	01 c1                	add    %eax,%ecx
 180:	0f b7 04 77          	movzwl (%rdi,%rsi,2),%eax
 184:	01 c8                	add    %ecx,%eax
 186:	0f b7 4c 77 02       	movzwl 0x2(%rdi,%rsi,2),%ecx
 18b:	01 c1                	add    %eax,%ecx
 18d:	0f b7 44 77 04       	movzwl 0x4(%rdi,%rsi,2),%eax
 192:	01 c8                	add    %ecx,%eax
 194:	0f b7 4c 77 06       	movzwl 0x6(%rdi,%rsi,2),%ecx
 199:	01 c1                	add    %eax,%ecx
 19b:	0f b7 04 b7          	movzwl (%rdi,%rsi,4),%eax
 19f:	01 c8                	add    %ecx,%eax
 1a1:	0f b7 4c b7 02       	movzwl 0x2(%rdi,%rsi,4),%ecx
 1a6:	01 c1                	add    %eax,%ecx
 1a8:	0f b7 44 b7 04       	movzwl 0x4(%rdi,%rsi,4),%eax
 1ad:	01 c8                	add    %ecx,%eax
 1af:	0f b7 4c b7 06       	movzwl 0x6(%rdi,%rsi,4),%ecx
 1b4:	01 c1                	add    %eax,%ecx
 1b6:	48 8d 04 76          	lea    (%rsi,%rsi,2),%rax
 1ba:	0f b7 34 47          	movzwl (%rdi,%rax,2),%esi
 1be:	01 ce                	add    %ecx,%esi
 1c0:	0f b7 4c 47 02       	movzwl 0x2(%rdi,%rax,2),%ecx
 1c5:	01 f1                	add    %esi,%ecx
 1c7:	0f b7 74 47 04       	movzwl 0x4(%rdi,%rax,2),%esi
 1cc:	01 ce                	add    %ecx,%esi
 1ce:	0f b7 44 47 06       	movzwl 0x6(%rdi,%rax,2),%eax
 1d3:	8d 04 30             	lea    (%rax,%rsi,1),%eax
 1d6:	83 c0 08             	add    $0x8,%eax
 1d9:	c1 e8 04             	shr    $0x4,%eax
 1dc:	66 89 02             	mov    %ax,(%rdx)
 1df:	c3                   	retq   

Disassembly of section .text.ScaleRowDown34_C:

0000000000000000 <ScaleRowDown34_C>:
   0:	85 c9                	test   %ecx,%ecx
   2:	7e 2e                	jle    32 <ScaleRowDown34_C+0x32>
   4:	31 f6                	xor    %esi,%esi
   6:	66 2e 0f 1f 84 00 00 	nopw   %cs:0x0(%rax,%rax,1)
   d:	00 00 00 
  10:	0f b6 07             	movzbl (%rdi),%eax
  13:	88 04 32             	mov    %al,(%rdx,%rsi,1)
  16:	0f b6 47 01          	movzbl 0x1(%rdi),%eax
  1a:	88 44 32 01          	mov    %al,0x1(%rdx,%rsi,1)
  1e:	0f b6 47 03          	movzbl 0x3(%rdi),%eax
  22:	88 44 32 02          	mov    %al,0x2(%rdx,%rsi,1)
  26:	48 83 c6 03          	add    $0x3,%rsi
  2a:	48 83 c7 04          	add    $0x4,%rdi
  2e:	39 ce                	cmp    %ecx,%esi
  30:	7c de                	jl     10 <ScaleRowDown34_C+0x10>
  32:	c3                   	retq   

Disassembly of section .text.ScaleRowDown34_16_C:

0000000000000000 <ScaleRowDown34_16_C>:
   0:	85 c9                	test   %ecx,%ecx
   2:	7e 31                	jle    35 <ScaleRowDown34_16_C+0x35>
   4:	31 c0                	xor    %eax,%eax
   6:	66 2e 0f 1f 84 00 00 	nopw   %cs:0x0(%rax,%rax,1)
   d:	00 00 00 
  10:	0f b7 37             	movzwl (%rdi),%esi
  13:	66 89 34 42          	mov    %si,(%rdx,%rax,2)
  17:	0f b7 77 02          	movzwl 0x2(%rdi),%esi
  1b:	66 89 74 42 02       	mov    %si,0x2(%rdx,%rax,2)
  20:	0f b7 77 06          	movzwl 0x6(%rdi),%esi
  24:	66 89 74 42 04       	mov    %si,0x4(%rdx,%rax,2)
  29:	48 83 c0 03          	add    $0x3,%rax
  2d:	48 83 c7 08          	add    $0x8,%rdi
  31:	39 c8                	cmp    %ecx,%eax
  33:	7c db                	jl     10 <ScaleRowDown34_16_C+0x10>
  35:	c3                   	retq   

Disassembly of section .text.ScaleRowDown34_0_Box_C:

0000000000000000 <ScaleRowDown34_0_Box_C>:
   0:	55                   	push   %rbp
   1:	41 56                	push   %r14
   3:	53                   	push   %rbx
   4:	85 c9                	test   %ecx,%ecx
   6:	0f 8e df 00 00 00    	jle    eb <ScaleRowDown34_0_Box_C+0xeb>
   c:	48 83 c7 03          	add    $0x3,%rdi
  10:	45 31 f6             	xor    %r14d,%r14d
  13:	66 2e 0f 1f 84 00 00 	nopw   %cs:0x0(%rax,%rax,1)
  1a:	00 00 00 
  1d:	0f 1f 00             	nopl   (%rax)
  20:	0f b6 47 fd          	movzbl -0x3(%rdi),%eax
  24:	44 8d 04 40          	lea    (%rax,%rax,2),%r8d
  28:	0f b6 47 fe          	movzbl -0x2(%rdi),%eax
  2c:	46 8d 14 00          	lea    (%rax,%r8,1),%r10d
  30:	41 83 c2 02          	add    $0x2,%r10d
  34:	41 c1 ea 02          	shr    $0x2,%r10d
  38:	0f b6 5f ff          	movzbl -0x1(%rdi),%ebx
  3c:	44 8d 0c 18          	lea    (%rax,%rbx,1),%r9d
  40:	41 83 c1 01          	add    $0x1,%r9d
  44:	41 d1 e9             	shr    %r9d
  47:	0f b6 07             	movzbl (%rdi),%eax
  4a:	8d 04 40             	lea    (%rax,%rax,2),%eax
  4d:	44 8d 04 03          	lea    (%rbx,%rax,1),%r8d
  51:	41 83 c0 02          	add    $0x2,%r8d
  55:	41 c1 e8 02          	shr    $0x2,%r8d
  59:	0f b6 44 37 fd       	movzbl -0x3(%rdi,%rsi,1),%eax
  5e:	8d 04 40             	lea    (%rax,%rax,2),%eax
  61:	0f b6 5c 37 fe       	movzbl -0x2(%rdi,%rsi,1),%ebx
  66:	8d 04 03             	lea    (%rbx,%rax,1),%eax
  69:	83 c0 02             	add    $0x2,%eax
  6c:	c1 e8 02             	shr    $0x2,%eax
  6f:	44 0f b6 5c 37 ff    	movzbl -0x1(%rdi,%rsi,1),%r11d
  75:	42 8d 2c 1b          	lea    (%rbx,%r11,1),%ebp
  79:	83 c5 01             	add    $0x1,%ebp
  7c:	d1 ed                	shr    %ebp
  7e:	0f b6 1c 37          	movzbl (%rdi,%rsi,1),%ebx
  82:	8d 1c 5b             	lea    (%rbx,%rbx,2),%ebx
  85:	45 8d 1c 1b          	lea    (%r11,%rbx,1),%r11d
  89:	41 83 c3 02          	add    $0x2,%r11d
  8d:	41 c1 eb 02          	shr    $0x2,%r11d
  91:	41 0f b6 da          	movzbl %r10b,%ebx
  95:	8d 1c 5b             	lea    (%rbx,%rbx,2),%ebx
  98:	0f b6 c0             	movzbl %al,%eax
  9b:	8d 04 18             	lea    (%rax,%rbx,1),%eax
  9e:	83 c0 02             	add    $0x2,%eax
  a1:	c1 e8 02             	shr    $0x2,%eax
  a4:	42 88 04 32          	mov    %al,(%rdx,%r14,1)
  a8:	41 0f b6 c1          	movzbl %r9b,%eax
  ac:	8d 04 40             	lea    (%rax,%rax,2),%eax
  af:	40 0f b6 ed          	movzbl %bpl,%ebp
  b3:	8d 04 28             	lea    (%rax,%rbp,1),%eax
  b6:	83 c0 02             	add    $0x2,%eax
  b9:	c1 e8 02             	shr    $0x2,%eax
  bc:	42 88 44 32 01       	mov    %al,0x1(%rdx,%r14,1)
  c1:	41 0f b6 c0          	movzbl %r8b,%eax
  c5:	8d 04 40             	lea    (%rax,%rax,2),%eax
  c8:	41 0f b6 eb          	movzbl %r11b,%ebp
  cc:	8d 04 28             	lea    (%rax,%rbp,1),%eax
  cf:	83 c0 02             	add    $0x2,%eax
  d2:	c1 e8 02             	shr    $0x2,%eax
  d5:	42 88 44 32 02       	mov    %al,0x2(%rdx,%r14,1)
  da:	49 83 c6 03          	add    $0x3,%r14
  de:	48 83 c7 04          	add    $0x4,%rdi
  e2:	41 39 ce             	cmp    %ecx,%r14d
  e5:	0f 8c 35 ff ff ff    	jl     20 <ScaleRowDown34_0_Box_C+0x20>
  eb:	5b                   	pop    %rbx
  ec:	41 5e                	pop    %r14
  ee:	5d                   	pop    %rbp
  ef:	c3                   	retq   

Disassembly of section .text.ScaleRowDown34_0_Box_16_C:

0000000000000000 <ScaleRowDown34_0_Box_16_C>:
   0:	55                   	push   %rbp
   1:	41 57                	push   %r15
   3:	41 56                	push   %r14
   5:	41 54                	push   %r12
   7:	53                   	push   %rbx
   8:	85 c9                	test   %ecx,%ecx
   a:	0f 8e 73 04 00 00    	jle    483 <ScaleRowDown34_0_Box_16_C+0x483>
  10:	4c 8d 14 77          	lea    (%rdi,%rsi,2),%r10
  14:	8d 41 ff             	lea    -0x1(%rcx),%eax
  17:	41 bb ab aa aa aa    	mov    $0xaaaaaaab,%r11d
  1d:	4c 0f af d8          	imul   %rax,%r11
  21:	49 c1 eb 21          	shr    $0x21,%r11
  25:	41 83 c3 01          	add    $0x1,%r11d
  29:	45 31 ff             	xor    %r15d,%r15d
  2c:	41 83 fb 04          	cmp    $0x4,%r11d
  30:	0f 82 6b 03 00 00    	jb     3a1 <ScaleRowDown34_0_Box_16_C+0x3a1>
  36:	bd ab aa aa aa       	mov    $0xaaaaaaab,%ebp
  3b:	48 0f af e8          	imul   %rax,%rbp
  3f:	48 c1 ed 21          	shr    $0x21,%rbp
  43:	48 8d 04 6d 00 00 00 	lea    0x0(,%rbp,2),%rax
  4a:	00 
  4b:	48 01 e8             	add    %rbp,%rax
  4e:	48 8d 5c 42 06       	lea    0x6(%rdx,%rax,2),%rbx
  53:	48 8d 04 ae          	lea    (%rsi,%rbp,4),%rax
  57:	48 8d 04 47          	lea    (%rdi,%rax,2),%rax
  5b:	48 83 c0 08          	add    $0x8,%rax
  5f:	48 8d 34 ef          	lea    (%rdi,%rbp,8),%rsi
  63:	48 83 c6 08          	add    $0x8,%rsi
  67:	48 39 d0             	cmp    %rdx,%rax
  6a:	41 0f 97 c0          	seta   %r8b
  6e:	49 39 da             	cmp    %rbx,%r10
  71:	41 0f 92 c1          	setb   %r9b
  75:	48 39 d6             	cmp    %rdx,%rsi
  78:	0f 97 c0             	seta   %al
  7b:	48 39 fb             	cmp    %rdi,%rbx
  7e:	0f 97 c3             	seta   %bl
  81:	45 84 c8             	test   %r9b,%r8b
  84:	0f 85 17 03 00 00    	jne    3a1 <ScaleRowDown34_0_Box_16_C+0x3a1>
  8a:	20 d8                	and    %bl,%al
  8c:	0f 85 0f 03 00 00    	jne    3a1 <ScaleRowDown34_0_Box_16_C+0x3a1>
  92:	45 89 de             	mov    %r11d,%r14d
  95:	41 83 e6 fc          	and    $0xfffffffc,%r14d
  99:	4b 8d 04 76          	lea    (%r14,%r14,2),%rax
  9d:	4c 8d 24 42          	lea    (%rdx,%rax,2),%r12
  a1:	4e 8d 04 f7          	lea    (%rdi,%r14,8),%r8
  a5:	4f 8d 0c f2          	lea    (%r10,%r14,8),%r9
  a9:	47 8d 3c 76          	lea    (%r14,%r14,2),%r15d
  ad:	31 db                	xor    %ebx,%ebx
  af:	66 44 0f 6f 3d 00 00 	movdqa 0x0(%rip),%xmm15        # b8 <ScaleRowDown34_0_Box_16_C+0xb8>
  b6:	00 00 
  b8:	66 44 0f 6f 25 00 00 	movdqa 0x0(%rip),%xmm12        # c1 <ScaleRowDown34_0_Box_16_C+0xc1>
  bf:	00 00 
  c1:	66 45 0f ef db       	pxor   %xmm11,%xmm11
  c6:	66 44 0f 6f 35 00 00 	movdqa 0x0(%rip),%xmm14        # cf <ScaleRowDown34_0_Box_16_C+0xcf>
  cd:	00 00 
  cf:	66 44 0f 6f 2d 00 00 	movdqa 0x0(%rip),%xmm13        # d8 <ScaleRowDown34_0_Box_16_C+0xd8>
  d6:	00 00 
  d8:	66 44 0f 6f 0d 00 00 	movdqa 0x0(%rip),%xmm9        # e1 <ScaleRowDown34_0_Box_16_C+0xe1>
  df:	00 00 
  e1:	66 44 0f 6f 15 00 00 	movdqa 0x0(%rip),%xmm10        # ea <ScaleRowDown34_0_Box_16_C+0xea>
  e8:	00 00 
  ea:	66 0f 1f 44 00 00    	nopw   0x0(%rax,%rax,1)
  f0:	f3 0f 6f 0c df       	movdqu (%rdi,%rbx,8),%xmm1
  f5:	f3 0f 6f 64 df 10    	movdqu 0x10(%rdi,%rbx,8),%xmm4
  fb:	66 0f 70 d4 e8       	pshufd $0xe8,%xmm4,%xmm2
 100:	f2 0f 70 ea e8       	pshuflw $0xe8,%xmm2,%xmm5
 105:	66 0f 70 f1 e8       	pshufd $0xe8,%xmm1,%xmm6
 10a:	f2 0f 70 fe e8       	pshuflw $0xe8,%xmm6,%xmm7
 10f:	66 0f 62 fd          	punpckldq %xmm5,%xmm7
 113:	66 0f 6f ef          	movdqa %xmm7,%xmm5
 117:	66 41 0f e4 ef       	pmulhuw %xmm15,%xmm5
 11c:	66 41 0f d5 ff       	pmullw %xmm15,%xmm7
 121:	66 0f 61 fd          	punpcklwd %xmm5,%xmm7
 125:	f2 0f 70 d2 ed       	pshuflw $0xed,%xmm2,%xmm2
 12a:	f2 0f 70 f6 ed       	pshuflw $0xed,%xmm6,%xmm6
 12f:	66 0f 62 f2          	punpckldq %xmm2,%xmm6
 133:	66 41 0f 61 f3       	punpcklwd %xmm11,%xmm6
 138:	66 0f 6f d6          	movdqa %xmm6,%xmm2
 13c:	66 41 0f fe d6       	paddd  %xmm14,%xmm2
 141:	66 0f fe d7          	paddd  %xmm7,%xmm2
 145:	66 0f 70 ec e7       	pshufd $0xe7,%xmm4,%xmm5
 14a:	f2 0f 70 fd e2       	pshuflw $0xe2,%xmm5,%xmm7
 14f:	66 0f 70 c9 e7       	pshufd $0xe7,%xmm1,%xmm1
 154:	f2 0f 70 e1 e2       	pshuflw $0xe2,%xmm1,%xmm4
 159:	66 0f 62 e7          	punpckldq %xmm7,%xmm4
 15d:	66 41 0f 61 e3       	punpcklwd %xmm11,%xmm4
 162:	66 0f fe f4          	paddd  %xmm4,%xmm6
 166:	f2 0f 70 ed e7       	pshuflw $0xe7,%xmm5,%xmm5
 16b:	f2 0f 70 c9 e7       	pshuflw $0xe7,%xmm1,%xmm1
 170:	66 0f 62 cd          	punpckldq %xmm5,%xmm1
 174:	66 0f 6f e9          	movdqa %xmm1,%xmm5
 178:	66 41 0f e4 ef       	pmulhuw %xmm15,%xmm5
 17d:	66 41 0f d5 cf       	pmullw %xmm15,%xmm1
 182:	66 0f 61 cd          	punpcklwd %xmm5,%xmm1
 186:	66 41 0f fe e6       	paddd  %xmm14,%xmm4
 18b:	66 0f fe e1          	paddd  %xmm1,%xmm4
 18f:	f3 41 0f 6f 2c da    	movdqu (%r10,%rbx,8),%xmm5
 195:	f3 41 0f 6f 5c da 10 	movdqu 0x10(%r10,%rbx,8),%xmm3
 19c:	66 0f 70 cb e8       	pshufd $0xe8,%xmm3,%xmm1
 1a1:	f2 0f 70 f9 e8       	pshuflw $0xe8,%xmm1,%xmm7
 1a6:	66 0f 70 c5 e8       	pshufd $0xe8,%xmm5,%xmm0
 1ab:	f2 44 0f 70 c0 e8    	pshuflw $0xe8,%xmm0,%xmm8
 1b1:	66 44 0f 62 c7       	punpckldq %xmm7,%xmm8
 1b6:	66 41 0f 6f f8       	movdqa %xmm8,%xmm7
 1bb:	66 41 0f e4 ff       	pmulhuw %xmm15,%xmm7
 1c0:	66 45 0f d5 c7       	pmullw %xmm15,%xmm8
 1c5:	66 44 0f 61 c7       	punpcklwd %xmm7,%xmm8
 1ca:	f2 0f 70 c9 ed       	pshuflw $0xed,%xmm1,%xmm1
 1cf:	f2 0f 70 f8 ed       	pshuflw $0xed,%xmm0,%xmm7
 1d4:	66 0f 62 f9          	punpckldq %xmm1,%xmm7
 1d8:	66 41 0f 61 fb       	punpcklwd %xmm11,%xmm7
 1dd:	66 0f 6f cf          	movdqa %xmm7,%xmm1
 1e1:	66 41 0f fe ce       	paddd  %xmm14,%xmm1
 1e6:	66 41 0f fe c8       	paddd  %xmm8,%xmm1
 1eb:	66 0f 70 c3 e7       	pshufd $0xe7,%xmm3,%xmm0
 1f0:	f2 44 0f 70 c0 e2    	pshuflw $0xe2,%xmm0,%xmm8
 1f6:	66 0f 70 dd e7       	pshufd $0xe7,%xmm5,%xmm3
 1fb:	f2 0f 70 eb e2       	pshuflw $0xe2,%xmm3,%xmm5
 200:	66 41 0f 62 e8       	punpckldq %xmm8,%xmm5
 205:	f2 0f 70 c0 e7       	pshuflw $0xe7,%xmm0,%xmm0
 20a:	f2 0f 70 db e7       	pshuflw $0xe7,%xmm3,%xmm3
 20f:	66 0f 62 d8          	punpckldq %xmm0,%xmm3
 213:	66 0f 6f c3          	movdqa %xmm3,%xmm0
 217:	66 41 0f e4 c7       	pmulhuw %xmm15,%xmm0
 21c:	66 41 0f d5 df       	pmullw %xmm15,%xmm3
 221:	66 0f 61 d8          	punpcklwd %xmm0,%xmm3
 225:	66 0f 72 d2 02       	psrld  $0x2,%xmm2
 22a:	66 41 0f 61 eb       	punpcklwd %xmm11,%xmm5
 22f:	66 0f fe fd          	paddd  %xmm5,%xmm7
 233:	66 41 0f fe ee       	paddd  %xmm14,%xmm5
 238:	66 0f fe eb          	paddd  %xmm3,%xmm5
 23c:	66 41 0f db d5       	pand   %xmm13,%xmm2
 241:	66 0f 70 c2 f5       	pshufd $0xf5,%xmm2,%xmm0
 246:	66 41 0f f4 d4       	pmuludq %xmm12,%xmm2
 24b:	66 0f 70 d2 e8       	pshufd $0xe8,%xmm2,%xmm2
 250:	66 41 0f f4 c4       	pmuludq %xmm12,%xmm0
 255:	66 0f 70 c0 e8       	pshufd $0xe8,%xmm0,%xmm0
 25a:	66 0f 62 d0          	punpckldq %xmm0,%xmm2
 25e:	66 0f 76 db          	pcmpeqd %xmm3,%xmm3
 262:	66 0f fa f3          	psubd  %xmm3,%xmm6
 266:	66 0f 72 d6 01       	psrld  $0x1,%xmm6
 26b:	66 0f 72 d1 02       	psrld  $0x2,%xmm1
 270:	66 41 0f db cd       	pand   %xmm13,%xmm1
 275:	66 41 0f fe ce       	paddd  %xmm14,%xmm1
 27a:	66 0f fe ca          	paddd  %xmm2,%xmm1
 27e:	66 41 0f db f5       	pand   %xmm13,%xmm6
 283:	66 0f 70 c6 f5       	pshufd $0xf5,%xmm6,%xmm0
 288:	66 41 0f f4 f4       	pmuludq %xmm12,%xmm6
 28d:	66 0f 70 d6 e8       	pshufd $0xe8,%xmm6,%xmm2
 292:	66 41 0f f4 c4       	pmuludq %xmm12,%xmm0
 297:	66 0f 70 c0 e8       	pshufd $0xe8,%xmm0,%xmm0
 29c:	66 0f 62 d0          	punpckldq %xmm0,%xmm2
 2a0:	66 0f 72 d4 02       	psrld  $0x2,%xmm4
 2a5:	66 0f fa fb          	psubd  %xmm3,%xmm7
 2a9:	66 0f 72 d7 01       	psrld  $0x1,%xmm7
 2ae:	66 41 0f db fd       	pand   %xmm13,%xmm7
 2b3:	66 41 0f fe fe       	paddd  %xmm14,%xmm7
 2b8:	66 0f fe fa          	paddd  %xmm2,%xmm7
 2bc:	66 41 0f db e5       	pand   %xmm13,%xmm4
 2c1:	66 0f 70 c4 f5       	pshufd $0xf5,%xmm4,%xmm0
 2c6:	66 41 0f f4 e4       	pmuludq %xmm12,%xmm4
 2cb:	66 0f 70 d4 e8       	pshufd $0xe8,%xmm4,%xmm2
 2d0:	66 41 0f f4 c4       	pmuludq %xmm12,%xmm0
 2d5:	66 0f 70 c0 e8       	pshufd $0xe8,%xmm0,%xmm0
 2da:	66 0f 62 d0          	punpckldq %xmm0,%xmm2
 2de:	66 0f 72 d5 02       	psrld  $0x2,%xmm5
 2e3:	66 0f 72 d1 02       	psrld  $0x2,%xmm1
 2e8:	66 0f 72 d7 02       	psrld  $0x2,%xmm7
 2ed:	66 41 0f db ed       	pand   %xmm13,%xmm5
 2f2:	66 41 0f fe ee       	paddd  %xmm14,%xmm5
 2f7:	66 0f fe ea          	paddd  %xmm2,%xmm5
 2fb:	66 0f 72 d5 02       	psrld  $0x2,%xmm5
 300:	f2 0f 70 c7 e8       	pshuflw $0xe8,%xmm7,%xmm0
 305:	f3 0f 70 c0 e8       	pshufhw $0xe8,%xmm0,%xmm0
 30a:	66 0f 70 c0 e8       	pshufd $0xe8,%xmm0,%xmm0
 30f:	f2 0f 70 c9 e8       	pshuflw $0xe8,%xmm1,%xmm1
 314:	f3 0f 70 c9 e8       	pshufhw $0xe8,%xmm1,%xmm1
 319:	66 0f 70 c9 e8       	pshufd $0xe8,%xmm1,%xmm1
 31e:	66 0f 6c c8          	punpcklqdq %xmm0,%xmm1
 322:	f2 0f 70 c5 e8       	pshuflw $0xe8,%xmm5,%xmm0
 327:	f3 0f 70 c0 e8       	pshufhw $0xe8,%xmm0,%xmm0
 32c:	66 0f 70 c0 e8       	pshufd $0xe8,%xmm0,%xmm0
 331:	66 0f 70 d0 c0       	pshufd $0xc0,%xmm0,%xmm2
 336:	66 41 0f 6f d9       	movdqa %xmm9,%xmm3
 33b:	66 0f df da          	pandn  %xmm2,%xmm3
 33f:	f3 0f 70 d1 c6       	pshufhw $0xc6,%xmm1,%xmm2
 344:	66 0f 70 d2 6c       	pshufd $0x6c,%xmm2,%xmm2
 349:	f2 0f 70 d2 68       	pshuflw $0x68,%xmm2,%xmm2
 34e:	f3 0f 70 d2 25       	pshufhw $0x25,%xmm2,%xmm2
 353:	66 41 0f db d1       	pand   %xmm9,%xmm2
 358:	66 0f eb da          	por    %xmm2,%xmm3
 35c:	66 0f 70 c9 e7       	pshufd $0xe7,%xmm1,%xmm1
 361:	f2 0f 70 c9 dc       	pshuflw $0xdc,%xmm1,%xmm1
 366:	66 41 0f 6f d2       	movdqa %xmm10,%xmm2
 36b:	66 0f df d1          	pandn  %xmm1,%xmm2
 36f:	66 0f 70 c0 e5       	pshufd $0xe5,%xmm0,%xmm0
 374:	66 41 0f db c2       	pand   %xmm10,%xmm0
 379:	66 0f eb c2          	por    %xmm2,%xmm0
 37d:	66 0f d6 42 10       	movq   %xmm0,0x10(%rdx)
 382:	f3 0f 7f 1a          	movdqu %xmm3,(%rdx)
 386:	48 83 c3 04          	add    $0x4,%rbx
 38a:	48 83 c2 18          	add    $0x18,%rdx
 38e:	49 39 de             	cmp    %rbx,%r14
 391:	0f 85 59 fd ff ff    	jne    f0 <ScaleRowDown34_0_Box_16_C+0xf0>
 397:	4d 39 de             	cmp    %r11,%r14
 39a:	75 0e                	jne    3aa <ScaleRowDown34_0_Box_16_C+0x3aa>
 39c:	e9 e2 00 00 00       	jmpq   483 <ScaleRowDown34_0_Box_16_C+0x483>
 3a1:	49 89 d4             	mov    %rdx,%r12
 3a4:	49 89 f8             	mov    %rdi,%r8
 3a7:	4d 89 d1             	mov    %r10,%r9
 3aa:	31 d2                	xor    %edx,%edx
 3ac:	0f 1f 40 00          	nopl   0x0(%rax)
 3b0:	41 0f b7 04 10       	movzwl (%r8,%rdx,1),%eax
 3b5:	8d 04 40             	lea    (%rax,%rax,2),%eax
 3b8:	41 0f b7 7c 10 02    	movzwl 0x2(%r8,%rdx,1),%edi
 3be:	8d 04 07             	lea    (%rdi,%rax,1),%eax
 3c1:	83 c0 02             	add    $0x2,%eax
 3c4:	c1 e8 02             	shr    $0x2,%eax
 3c7:	41 0f b7 6c 10 04    	movzwl 0x4(%r8,%rdx,1),%ebp
 3cd:	44 8d 1c 2f          	lea    (%rdi,%rbp,1),%r11d
 3d1:	41 83 c3 01          	add    $0x1,%r11d
 3d5:	41 d1 eb             	shr    %r11d
 3d8:	41 0f b7 7c 10 06    	movzwl 0x6(%r8,%rdx,1),%edi
 3de:	8d 3c 7f             	lea    (%rdi,%rdi,2),%edi
 3e1:	44 8d 14 2f          	lea    (%rdi,%rbp,1),%r10d
 3e5:	41 83 c2 02          	add    $0x2,%r10d
 3e9:	41 c1 ea 02          	shr    $0x2,%r10d
 3ed:	41 0f b7 2c 11       	movzwl (%r9,%rdx,1),%ebp
 3f2:	8d 6c 6d 00          	lea    0x0(%rbp,%rbp,2),%ebp
 3f6:	41 0f b7 74 11 02    	movzwl 0x2(%r9,%rdx,1),%esi
 3fc:	8d 3c 2e             	lea    (%rsi,%rbp,1),%edi
 3ff:	83 c7 02             	add    $0x2,%edi
 402:	c1 ef 02             	shr    $0x2,%edi
 405:	41 0f b7 6c 11 04    	movzwl 0x4(%r9,%rdx,1),%ebp
 40b:	8d 34 2e             	lea    (%rsi,%rbp,1),%esi
 40e:	83 c6 01             	add    $0x1,%esi
 411:	d1 ee                	shr    %esi
 413:	41 0f b7 5c 11 06    	movzwl 0x6(%r9,%rdx,1),%ebx
 419:	8d 1c 5b             	lea    (%rbx,%rbx,2),%ebx
 41c:	8d 2c 2b             	lea    (%rbx,%rbp,1),%ebp
 41f:	83 c5 02             	add    $0x2,%ebp
 422:	c1 ed 02             	shr    $0x2,%ebp
 425:	0f b7 c0             	movzwl %ax,%eax
 428:	8d 04 40             	lea    (%rax,%rax,2),%eax
 42b:	0f b7 ff             	movzwl %di,%edi
 42e:	8d 04 07             	lea    (%rdi,%rax,1),%eax
 431:	83 c0 02             	add    $0x2,%eax
 434:	c1 e8 02             	shr    $0x2,%eax
 437:	66 41 89 04 24       	mov    %ax,(%r12)
 43c:	41 0f b7 c3          	movzwl %r11w,%eax
 440:	8d 04 40             	lea    (%rax,%rax,2),%eax
 443:	0f b7 f6             	movzwl %si,%esi
 446:	8d 04 06             	lea    (%rsi,%rax,1),%eax
 449:	83 c0 02             	add    $0x2,%eax
 44c:	c1 e8 02             	shr    $0x2,%eax
 44f:	66 41 89 44 24 02    	mov    %ax,0x2(%r12)
 455:	41 0f b7 c2          	movzwl %r10w,%eax
 459:	8d 04 40             	lea    (%rax,%rax,2),%eax
 45c:	0f b7 f5             	movzwl %bp,%esi
 45f:	8d 04 06             	lea    (%rsi,%rax,1),%eax
 462:	83 c0 02             	add    $0x2,%eax
 465:	c1 e8 02             	shr    $0x2,%eax
 468:	66 41 89 44 24 04    	mov    %ax,0x4(%r12)
 46e:	41 83 c7 03          	add    $0x3,%r15d
 472:	48 83 c2 08          	add    $0x8,%rdx
 476:	49 83 c4 06          	add    $0x6,%r12
 47a:	41 39 cf             	cmp    %ecx,%r15d
 47d:	0f 8c 2d ff ff ff    	jl     3b0 <ScaleRowDown34_0_Box_16_C+0x3b0>
 483:	5b                   	pop    %rbx
 484:	41 5c                	pop    %r12
 486:	41 5e                	pop    %r14
 488:	41 5f                	pop    %r15
 48a:	5d                   	pop    %rbp
 48b:	c3                   	retq   

Disassembly of section .text.ScaleRowDown34_1_Box_C:

0000000000000000 <ScaleRowDown34_1_Box_C>:
   0:	55                   	push   %rbp
   1:	41 57                	push   %r15
   3:	41 56                	push   %r14
   5:	41 54                	push   %r12
   7:	53                   	push   %rbx
   8:	48 83 ec 60          	sub    $0x60,%rsp
   c:	85 c9                	test   %ecx,%ecx
   e:	0f 8e d3 0c 00 00    	jle    ce7 <ScaleRowDown34_1_Box_C+0xce7>
  14:	4c 8d 14 37          	lea    (%rdi,%rsi,1),%r10
  18:	8d 41 ff             	lea    -0x1(%rcx),%eax
  1b:	41 bb ab aa aa aa    	mov    $0xaaaaaaab,%r11d
  21:	4c 0f af d8          	imul   %rax,%r11
  25:	49 c1 eb 21          	shr    $0x21,%r11
  29:	41 83 c3 01          	add    $0x1,%r11d
  2d:	45 31 ff             	xor    %r15d,%r15d
  30:	41 83 fb 10          	cmp    $0x10,%r11d
  34:	0f 82 db 0b 00 00    	jb     c15 <ScaleRowDown34_1_Box_C+0xc15>
  3a:	bb ab aa aa aa       	mov    $0xaaaaaaab,%ebx
  3f:	48 0f af d8          	imul   %rax,%rbx
  43:	48 c1 eb 21          	shr    $0x21,%rbx
  47:	48 8d 04 5b          	lea    (%rbx,%rbx,2),%rax
  4b:	48 01 d0             	add    %rdx,%rax
  4e:	48 83 c0 03          	add    $0x3,%rax
  52:	48 8d 34 9e          	lea    (%rsi,%rbx,4),%rsi
  56:	48 01 fe             	add    %rdi,%rsi
  59:	48 83 c6 04          	add    $0x4,%rsi
  5d:	48 8d 1c 9f          	lea    (%rdi,%rbx,4),%rbx
  61:	48 83 c3 04          	add    $0x4,%rbx
  65:	48 39 d6             	cmp    %rdx,%rsi
  68:	40 0f 97 c6          	seta   %sil
  6c:	49 39 c2             	cmp    %rax,%r10
  6f:	41 0f 92 c0          	setb   %r8b
  73:	48 39 d3             	cmp    %rdx,%rbx
  76:	0f 97 c3             	seta   %bl
  79:	48 39 f8             	cmp    %rdi,%rax
  7c:	0f 97 c0             	seta   %al
  7f:	44 84 c6             	test   %r8b,%sil
  82:	0f 85 8d 0b 00 00    	jne    c15 <ScaleRowDown34_1_Box_C+0xc15>
  88:	20 c3                	and    %al,%bl
  8a:	0f 85 85 0b 00 00    	jne    c15 <ScaleRowDown34_1_Box_C+0xc15>
  90:	45 89 de             	mov    %r11d,%r14d
  93:	41 83 e6 f0          	and    $0xfffffff0,%r14d
  97:	4f 8d 24 76          	lea    (%r14,%r14,2),%r12
  9b:	49 01 d4             	add    %rdx,%r12
  9e:	4e 8d 04 b7          	lea    (%rdi,%r14,4),%r8
  a2:	4f 8d 0c b2          	lea    (%r10,%r14,4),%r9
  a6:	47 8d 3c 76          	lea    (%r14,%r14,2),%r15d
  aa:	31 db                	xor    %ebx,%ebx
  ac:	66 45 0f ef e4       	pxor   %xmm12,%xmm12
  b1:	66 2e 0f 1f 84 00 00 	nopw   %cs:0x0(%rax,%rax,1)
  b8:	00 00 00 
  bb:	0f 1f 44 00 00       	nopl   0x0(%rax,%rax,1)
  c0:	f3 0f 6f 14 9f       	movdqu (%rdi,%rbx,4),%xmm2
  c5:	f3 0f 6f 6c 9f 10    	movdqu 0x10(%rdi,%rbx,4),%xmm5
  cb:	f3 44 0f 6f 44 9f 20 	movdqu 0x20(%rdi,%rbx,4),%xmm8
  d2:	f3 0f 6f 5c 9f 30    	movdqu 0x30(%rdi,%rbx,4),%xmm3
  d8:	66 0f 6f c3          	movdqa %xmm3,%xmm0
  dc:	66 0f 6f 0d 00 00 00 	movdqa 0x0(%rip),%xmm1        # e4 <ScaleRowDown34_1_Box_C+0xe4>
  e3:	00 
  e4:	66 0f 6f f1          	movdqa %xmm1,%xmm6
  e8:	66 0f db c1          	pand   %xmm1,%xmm0
  ec:	66 41 0f 6f c8       	movdqa %xmm8,%xmm1
  f1:	66 0f db ce          	pand   %xmm6,%xmm1
  f5:	66 0f 67 c8          	packuswb %xmm0,%xmm1
  f9:	66 0f 6f c5          	movdqa %xmm5,%xmm0
  fd:	66 0f db c6          	pand   %xmm6,%xmm0
 101:	66 0f 6f e2          	movdqa %xmm2,%xmm4
 105:	66 0f db e6          	pand   %xmm6,%xmm4
 109:	66 0f 67 e0          	packuswb %xmm0,%xmm4
 10d:	66 0f 67 e1          	packuswb %xmm1,%xmm4
 111:	66 0f 6f f4          	movdqa %xmm4,%xmm6
 115:	66 0f 6f c2          	movdqa %xmm2,%xmm0
 119:	66 41 0f 68 c4       	punpckhbw %xmm12,%xmm0
 11e:	66 0f 7f 44 24 a0    	movdqa %xmm0,-0x60(%rsp)
 124:	66 0f 70 c0 e8       	pshufd $0xe8,%xmm0,%xmm0
 129:	f2 0f 70 c0 ed       	pshuflw $0xed,%xmm0,%xmm0
 12e:	66 44 0f 6f d2       	movdqa %xmm2,%xmm10
 133:	66 45 0f 60 d4       	punpcklbw %xmm12,%xmm10
 138:	66 41 0f 70 ca e8    	pshufd $0xe8,%xmm10,%xmm1
 13e:	f2 0f 70 e1 ed       	pshuflw $0xed,%xmm1,%xmm4
 143:	66 0f 62 e0          	punpckldq %xmm0,%xmm4
 147:	66 0f 67 e0          	packuswb %xmm0,%xmm4
 14b:	66 0f 6f c5          	movdqa %xmm5,%xmm0
 14f:	66 41 0f 68 c4       	punpckhbw %xmm12,%xmm0
 154:	66 0f 7f 44 24 b0    	movdqa %xmm0,-0x50(%rsp)
 15a:	66 0f 70 c0 e8       	pshufd $0xe8,%xmm0,%xmm0
 15f:	f2 0f 70 c0 d4       	pshuflw $0xd4,%xmm0,%xmm0
 164:	66 0f 6f cd          	movdqa %xmm5,%xmm1
 168:	66 41 0f 60 cc       	punpcklbw %xmm12,%xmm1
 16d:	66 0f 7f 4c 24 90    	movdqa %xmm1,-0x70(%rsp)
 173:	66 0f 70 c9 e8       	pshufd $0xe8,%xmm1,%xmm1
 178:	f2 0f 70 c9 d4       	pshuflw $0xd4,%xmm1,%xmm1
 17d:	66 0f 62 c8          	punpckldq %xmm0,%xmm1
 181:	66 0f 67 c8          	packuswb %xmm0,%xmm1
 185:	66 0f 70 c1 e5       	pshufd $0xe5,%xmm1,%xmm0
 18a:	66 0f 62 e0          	punpckldq %xmm0,%xmm4
 18e:	66 0f 6f c3          	movdqa %xmm3,%xmm0
 192:	66 41 0f 68 c4       	punpckhbw %xmm12,%xmm0
 197:	66 0f 7f 44 24 80    	movdqa %xmm0,-0x80(%rsp)
 19d:	66 0f 70 c0 e8       	pshufd $0xe8,%xmm0,%xmm0
 1a2:	f2 0f 70 c8 d4       	pshuflw $0xd4,%xmm0,%xmm1
 1a7:	66 44 0f 6f f3       	movdqa %xmm3,%xmm14
 1ac:	66 45 0f 60 f4       	punpcklbw %xmm12,%xmm14
 1b1:	66 41 0f 70 fe e8    	pshufd $0xe8,%xmm14,%xmm7
 1b7:	f2 0f 70 ff d4       	pshuflw $0xd4,%xmm7,%xmm7
 1bc:	66 0f 62 f9          	punpckldq %xmm1,%xmm7
 1c0:	66 45 0f 6f f8       	movdqa %xmm8,%xmm15
 1c5:	66 45 0f 68 fc       	punpckhbw %xmm12,%xmm15
 1ca:	66 41 0f 70 cf e8    	pshufd $0xe8,%xmm15,%xmm1
 1d0:	f2 0f 70 c1 ed       	pshuflw $0xed,%xmm1,%xmm0
 1d5:	66 45 0f 6f e8       	movdqa %xmm8,%xmm13
 1da:	66 45 0f 60 ec       	punpcklbw %xmm12,%xmm13
 1df:	66 45 0f 70 dd e8    	pshufd $0xe8,%xmm13,%xmm11
 1e5:	f2 45 0f 70 db ed    	pshuflw $0xed,%xmm11,%xmm11
 1eb:	66 44 0f 62 d8       	punpckldq %xmm0,%xmm11
 1f0:	66 0f 67 c7          	packuswb %xmm7,%xmm0
 1f4:	66 41 0f 67 fb       	packuswb %xmm11,%xmm7
 1f9:	66 44 0f 70 df a4    	pshufd $0xa4,%xmm7,%xmm11
 1ff:	66 44 0f 6a d8       	punpckhdq %xmm0,%xmm11
 204:	66 44 0f 6f ce       	movdqa %xmm6,%xmm9
 209:	66 45 0f 68 cc       	punpckhbw %xmm12,%xmm9
 20e:	66 0f 6f 05 00 00 00 	movdqa 0x0(%rip),%xmm0        # 216 <ScaleRowDown34_1_Box_C+0x216>
 215:	00 
 216:	66 0f 6f c8          	movdqa %xmm0,%xmm1
 21a:	66 44 0f d5 c8       	pmullw %xmm0,%xmm9
 21f:	f2 44 0f 10 dc       	movsd  %xmm4,%xmm11
 224:	66 41 0f 6f c1       	movdqa %xmm9,%xmm0
 229:	66 41 0f 69 c4       	punpckhwd %xmm12,%xmm0
 22e:	66 0f 7f 44 24 c0    	movdqa %xmm0,-0x40(%rsp)
 234:	66 45 0f 61 cc       	punpcklwd %xmm12,%xmm9
 239:	66 41 0f 60 f4       	punpcklbw %xmm12,%xmm6
 23e:	66 0f d5 f1          	pmullw %xmm1,%xmm6
 242:	66 0f 6f 05 00 00 00 	movdqa 0x0(%rip),%xmm0        # 24a <ScaleRowDown34_1_Box_C+0x24a>
 249:	00 
 24a:	66 0f 6f c8          	movdqa %xmm0,%xmm1
 24e:	66 0f db d0          	pand   %xmm0,%xmm2
 252:	f2 0f 70 c2 e7       	pshuflw $0xe7,%xmm2,%xmm0
 257:	f3 0f 70 c0 e7       	pshufhw $0xe7,%xmm0,%xmm0
 25c:	66 0f 70 c0 e8       	pshufd $0xe8,%xmm0,%xmm0
 261:	f2 0f 70 c0 b1       	pshuflw $0xb1,%xmm0,%xmm0
 266:	66 0f 67 c0          	packuswb %xmm0,%xmm0
 26a:	66 0f db e9          	pand   %xmm1,%xmm5
 26e:	f2 0f 70 d5 e7       	pshuflw $0xe7,%xmm5,%xmm2
 273:	f3 0f 70 d2 e7       	pshufhw $0xe7,%xmm2,%xmm2
 278:	66 0f 70 d2 24       	pshufd $0x24,%xmm2,%xmm2
 27d:	f3 0f 70 d2 1b       	pshufhw $0x1b,%xmm2,%xmm2
 282:	66 0f 67 d0          	packuswb %xmm0,%xmm2
 286:	66 0f 70 d2 e5       	pshufd $0xe5,%xmm2,%xmm2
 28b:	66 0f 62 c2          	punpckldq %xmm2,%xmm0
 28f:	66 0f 6f e6          	movdqa %xmm6,%xmm4
 293:	66 41 0f 69 e4       	punpckhwd %xmm12,%xmm4
 298:	66 41 0f 61 f4       	punpcklwd %xmm12,%xmm6
 29d:	66 0f db d9          	pand   %xmm1,%xmm3
 2a1:	f2 0f 70 d3 e7       	pshuflw $0xe7,%xmm3,%xmm2
 2a6:	f3 0f 70 d2 e7       	pshufhw $0xe7,%xmm2,%xmm2
 2ab:	66 0f 70 d2 24       	pshufd $0x24,%xmm2,%xmm2
 2b0:	f3 0f 70 d2 1b       	pshufhw $0x1b,%xmm2,%xmm2
 2b5:	66 0f 67 d2          	packuswb %xmm2,%xmm2
 2b9:	66 44 0f db c1       	pand   %xmm1,%xmm8
 2be:	f2 41 0f 70 d8 e7    	pshuflw $0xe7,%xmm8,%xmm3
 2c4:	f3 0f 70 db e7       	pshufhw $0xe7,%xmm3,%xmm3
 2c9:	66 0f 70 db e8       	pshufd $0xe8,%xmm3,%xmm3
 2ce:	f2 0f 70 db b1       	pshuflw $0xb1,%xmm3,%xmm3
 2d3:	66 0f 67 db          	packuswb %xmm3,%xmm3
 2d7:	66 0f 70 db a4       	pshufd $0xa4,%xmm3,%xmm3
 2dc:	66 0f 6a da          	punpckhdq %xmm2,%xmm3
 2e0:	66 41 0f 28 d3       	movapd %xmm11,%xmm2
 2e5:	66 41 0f 68 d4       	punpckhbw %xmm12,%xmm2
 2ea:	f2 0f 10 d8          	movsd  %xmm0,%xmm3
 2ee:	66 0f 6f c2          	movdqa %xmm2,%xmm0
 2f2:	66 41 0f 69 c4       	punpckhwd %xmm12,%xmm0
 2f7:	66 44 0f 6f c0       	movdqa %xmm0,%xmm8
 2fc:	66 41 0f 61 d4       	punpcklwd %xmm12,%xmm2
 301:	66 0f 6f ea          	movdqa %xmm2,%xmm5
 305:	66 45 0f 60 dc       	punpcklbw %xmm12,%xmm11
 30a:	66 0f 70 44 24 a0 e7 	pshufd $0xe7,-0x60(%rsp),%xmm0
 311:	f2 0f 70 c0 e7       	pshuflw $0xe7,%xmm0,%xmm0
 316:	66 41 0f 70 d2 e7    	pshufd $0xe7,%xmm10,%xmm2
 31c:	f2 0f 70 d2 e7       	pshuflw $0xe7,%xmm2,%xmm2
 321:	66 0f 62 d0          	punpckldq %xmm0,%xmm2
 325:	66 41 0f 6f cb       	movdqa %xmm11,%xmm1
 32a:	66 41 0f 6f c3       	movdqa %xmm11,%xmm0
 32f:	66 41 0f 69 c4       	punpckhwd %xmm12,%xmm0
 334:	66 41 0f 61 cc       	punpcklwd %xmm12,%xmm1
 339:	66 0f fe f1          	paddd  %xmm1,%xmm6
 33d:	66 0f 7f 74 24 20    	movdqa %xmm6,0x20(%rsp)
 343:	66 0f fe e0          	paddd  %xmm0,%xmm4
 347:	66 0f 7f 64 24 10    	movdqa %xmm4,0x10(%rsp)
 34d:	66 0f 6f f0          	movdqa %xmm0,%xmm6
 351:	66 44 0f 6f d5       	movdqa %xmm5,%xmm10
 356:	66 44 0f fe cd       	paddd  %xmm5,%xmm9
 35b:	66 44 0f 7f 0c 24    	movdqa %xmm9,(%rsp)
 361:	66 0f 6f 44 24 c0    	movdqa -0x40(%rsp),%xmm0
 367:	66 41 0f 6f f8       	movdqa %xmm8,%xmm7
 36c:	66 41 0f fe c0       	paddd  %xmm8,%xmm0
 371:	66 0f 7f 44 24 c0    	movdqa %xmm0,-0x40(%rsp)
 377:	66 0f 70 44 24 b0 e7 	pshufd $0xe7,-0x50(%rsp),%xmm0
 37e:	f2 0f 70 c0 74       	pshuflw $0x74,%xmm0,%xmm0
 383:	66 0f 70 64 24 90 e7 	pshufd $0xe7,-0x70(%rsp),%xmm4
 38a:	f2 0f 70 e4 74       	pshuflw $0x74,%xmm4,%xmm4
 38f:	66 0f 62 e0          	punpckldq %xmm0,%xmm4
 393:	66 0f 28 eb          	movapd %xmm3,%xmm5
 397:	66 41 0f 68 ec       	punpckhbw %xmm12,%xmm5
 39c:	66 0f 67 d0          	packuswb %xmm0,%xmm2
 3a0:	66 0f 67 e0          	packuswb %xmm0,%xmm4
 3a4:	66 0f 70 c4 e5       	pshufd $0xe5,%xmm4,%xmm0
 3a9:	66 0f 62 d0          	punpckldq %xmm0,%xmm2
 3ad:	66 44 0f 6f dd       	movdqa %xmm5,%xmm11
 3b2:	66 45 0f 69 dc       	punpckhwd %xmm12,%xmm11
 3b7:	66 41 0f 61 ec       	punpcklwd %xmm12,%xmm5
 3bc:	66 41 0f 60 dc       	punpcklbw %xmm12,%xmm3
 3c1:	66 0f 70 44 24 80 e7 	pshufd $0xe7,-0x80(%rsp),%xmm0
 3c8:	f2 0f 70 c0 74       	pshuflw $0x74,%xmm0,%xmm0
 3cd:	66 41 0f 70 e6 e7    	pshufd $0xe7,%xmm14,%xmm4
 3d3:	f2 0f 70 e4 74       	pshuflw $0x74,%xmm4,%xmm4
 3d8:	66 0f 62 e0          	punpckldq %xmm0,%xmm4
 3dc:	66 0f 6f c3          	movdqa %xmm3,%xmm0
 3e0:	66 41 0f 69 c4       	punpckhwd %xmm12,%xmm0
 3e5:	66 41 0f 61 dc       	punpcklwd %xmm12,%xmm3
 3ea:	66 0f fe cb          	paddd  %xmm3,%xmm1
 3ee:	66 0f 7f 4c 24 50    	movdqa %xmm1,0x50(%rsp)
 3f4:	66 44 0f 6f c3       	movdqa %xmm3,%xmm8
 3f9:	66 0f fe f0          	paddd  %xmm0,%xmm6
 3fd:	66 0f 7f 74 24 f0    	movdqa %xmm6,-0x10(%rsp)
 403:	66 44 0f 6f c8       	movdqa %xmm0,%xmm9
 408:	66 44 0f fe d5       	paddd  %xmm5,%xmm10
 40d:	66 44 0f 7f 54 24 40 	movdqa %xmm10,0x40(%rsp)
 414:	66 41 0f fe fb       	paddd  %xmm11,%xmm7
 419:	66 0f 7f 7c 24 30    	movdqa %xmm7,0x30(%rsp)
 41f:	66 0f 67 e4          	packuswb %xmm4,%xmm4
 423:	66 41 0f 70 c7 e7    	pshufd $0xe7,%xmm15,%xmm0
 429:	f2 0f 70 c0 e7       	pshuflw $0xe7,%xmm0,%xmm0
 42e:	66 41 0f 70 cd e7    	pshufd $0xe7,%xmm13,%xmm1
 434:	f2 0f 70 c9 e7       	pshuflw $0xe7,%xmm1,%xmm1
 439:	66 0f 62 c8          	punpckldq %xmm0,%xmm1
 43d:	66 0f 67 c1          	packuswb %xmm1,%xmm0
 441:	66 0f 70 c0 a4       	pshufd $0xa4,%xmm0,%xmm0
 446:	66 0f 6a c4          	punpckhdq %xmm4,%xmm0
 44a:	f2 0f 10 c2          	movsd  %xmm2,%xmm0
 44e:	66 0f 28 c8          	movapd %xmm0,%xmm1
 452:	66 41 0f 68 cc       	punpckhbw %xmm12,%xmm1
 457:	66 0f 6f 1d 00 00 00 	movdqa 0x0(%rip),%xmm3        # 45f <ScaleRowDown34_1_Box_C+0x45f>
 45e:	00 
 45f:	66 0f d5 cb          	pmullw %xmm3,%xmm1
 463:	66 0f 6f d1          	movdqa %xmm1,%xmm2
 467:	66 41 0f 69 d4       	punpckhwd %xmm12,%xmm2
 46c:	66 41 0f 61 cc       	punpcklwd %xmm12,%xmm1
 471:	66 41 0f 60 c4       	punpcklbw %xmm12,%xmm0
 476:	66 0f d5 c3          	pmullw %xmm3,%xmm0
 47a:	66 0f 6f e0          	movdqa %xmm0,%xmm4
 47e:	66 41 0f 69 e4       	punpckhwd %xmm12,%xmm4
 483:	66 41 0f 61 c4       	punpcklwd %xmm12,%xmm0
 488:	66 0f 6f 1d 00 00 00 	movdqa 0x0(%rip),%xmm3        # 490 <ScaleRowDown34_1_Box_C+0x490>
 48f:	00 
 490:	66 44 0f fe db       	paddd  %xmm3,%xmm11
 495:	66 44 0f fe da       	paddd  %xmm2,%xmm11
 49a:	66 44 0f 7f 5c 24 80 	movdqa %xmm11,-0x80(%rsp)
 4a1:	66 0f fe eb          	paddd  %xmm3,%xmm5
 4a5:	66 0f fe e9          	paddd  %xmm1,%xmm5
 4a9:	66 0f 7f 6c 24 a0    	movdqa %xmm5,-0x60(%rsp)
 4af:	66 44 0f fe cb       	paddd  %xmm3,%xmm9
 4b4:	66 44 0f fe cc       	paddd  %xmm4,%xmm9
 4b9:	66 44 0f 7f 4c 24 90 	movdqa %xmm9,-0x70(%rsp)
 4c0:	66 44 0f fe c3       	paddd  %xmm3,%xmm8
 4c5:	66 44 0f fe c0       	paddd  %xmm0,%xmm8
 4ca:	66 44 0f 7f 44 24 b0 	movdqa %xmm8,-0x50(%rsp)
 4d1:	f3 41 0f 6f 4c 9a 20 	movdqu 0x20(%r10,%rbx,4),%xmm1
 4d8:	f3 41 0f 6f 44 9a 30 	movdqu 0x30(%r10,%rbx,4),%xmm0
 4df:	66 0f 6f d0          	movdqa %xmm0,%xmm2
 4e3:	66 0f 6f 1d 00 00 00 	movdqa 0x0(%rip),%xmm3        # 4eb <ScaleRowDown34_1_Box_C+0x4eb>
 4ea:	00 
 4eb:	66 0f db d3          	pand   %xmm3,%xmm2
 4ef:	66 0f 6f e1          	movdqa %xmm1,%xmm4
 4f3:	66 0f db e3          	pand   %xmm3,%xmm4
 4f7:	66 0f 67 e2          	packuswb %xmm2,%xmm4
 4fb:	f3 45 0f 6f 5c 9a 10 	movdqu 0x10(%r10,%rbx,4),%xmm11
 502:	66 41 0f 6f d3       	movdqa %xmm11,%xmm2
 507:	66 0f db d3          	pand   %xmm3,%xmm2
 50b:	f3 45 0f 6f 04 9a    	movdqu (%r10,%rbx,4),%xmm8
 511:	66 41 0f 6f e8       	movdqa %xmm8,%xmm5
 516:	66 0f db eb          	pand   %xmm3,%xmm5
 51a:	66 0f 67 ea          	packuswb %xmm2,%xmm5
 51e:	66 0f 67 ec          	packuswb %xmm4,%xmm5
 522:	66 41 0f 6f d0       	movdqa %xmm8,%xmm2
 527:	66 41 0f 68 d4       	punpckhbw %xmm12,%xmm2
 52c:	66 0f 7f 54 24 e0    	movdqa %xmm2,-0x20(%rsp)
 532:	66 0f 70 d2 e8       	pshufd $0xe8,%xmm2,%xmm2
 537:	f2 0f 70 d2 ed       	pshuflw $0xed,%xmm2,%xmm2
 53c:	66 41 0f 6f d8       	movdqa %xmm8,%xmm3
 541:	66 41 0f 60 dc       	punpcklbw %xmm12,%xmm3
 546:	66 0f 7f 5c 24 d0    	movdqa %xmm3,-0x30(%rsp)
 54c:	66 0f 70 e3 e8       	pshufd $0xe8,%xmm3,%xmm4
 551:	f2 0f 70 e4 ed       	pshuflw $0xed,%xmm4,%xmm4
 556:	66 0f 62 e2          	punpckldq %xmm2,%xmm4
 55a:	66 45 0f 6f eb       	movdqa %xmm11,%xmm13
 55f:	66 45 0f 68 ec       	punpckhbw %xmm12,%xmm13
 564:	66 41 0f 70 d5 e8    	pshufd $0xe8,%xmm13,%xmm2
 56a:	f2 0f 70 d2 d4       	pshuflw $0xd4,%xmm2,%xmm2
 56f:	66 41 0f 6f f3       	movdqa %xmm11,%xmm6
 574:	66 41 0f 60 f4       	punpcklbw %xmm12,%xmm6
 579:	66 0f 70 fe e8       	pshufd $0xe8,%xmm6,%xmm7
 57e:	f2 0f 70 ff d4       	pshuflw $0xd4,%xmm7,%xmm7
 583:	66 0f 62 fa          	punpckldq %xmm2,%xmm7
 587:	66 0f 67 e0          	packuswb %xmm0,%xmm4
 58b:	66 0f 67 f8          	packuswb %xmm0,%xmm7
 58f:	66 0f 70 d7 e5       	pshufd $0xe5,%xmm7,%xmm2
 594:	66 0f 62 e2          	punpckldq %xmm2,%xmm4
 598:	66 44 0f 6f f8       	movdqa %xmm0,%xmm15
 59d:	66 45 0f 68 fc       	punpckhbw %xmm12,%xmm15
 5a2:	66 41 0f 70 d7 e8    	pshufd $0xe8,%xmm15,%xmm2
 5a8:	f2 0f 70 d2 d4       	pshuflw $0xd4,%xmm2,%xmm2
 5ad:	66 44 0f 6f f0       	movdqa %xmm0,%xmm14
 5b2:	66 45 0f 60 f4       	punpcklbw %xmm12,%xmm14
 5b7:	66 41 0f 70 fe e8    	pshufd $0xe8,%xmm14,%xmm7
 5bd:	f2 0f 70 ff d4       	pshuflw $0xd4,%xmm7,%xmm7
 5c2:	66 0f 62 fa          	punpckldq %xmm2,%xmm7
 5c6:	66 44 0f 6f d1       	movdqa %xmm1,%xmm10
 5cb:	66 45 0f 68 d4       	punpckhbw %xmm12,%xmm10
 5d0:	66 41 0f 70 d2 e8    	pshufd $0xe8,%xmm10,%xmm2
 5d6:	f2 0f 70 d2 ed       	pshuflw $0xed,%xmm2,%xmm2
 5db:	66 44 0f 6f c9       	movdqa %xmm1,%xmm9
 5e0:	66 45 0f 60 cc       	punpcklbw %xmm12,%xmm9
 5e5:	66 41 0f 70 d9 e8    	pshufd $0xe8,%xmm9,%xmm3
 5eb:	f2 0f 70 db ed       	pshuflw $0xed,%xmm3,%xmm3
 5f0:	66 0f 62 da          	punpckldq %xmm2,%xmm3
 5f4:	66 0f 67 ff          	packuswb %xmm7,%xmm7
 5f8:	66 0f 67 d3          	packuswb %xmm3,%xmm2
 5fc:	66 0f 70 d2 a4       	pshufd $0xa4,%xmm2,%xmm2
 601:	66 0f 6a d7          	punpckhdq %xmm7,%xmm2
 605:	f2 0f 10 d4          	movsd  %xmm4,%xmm2
 609:	66 0f 6f 25 00 00 00 	movdqa 0x0(%rip),%xmm4        # 611 <ScaleRowDown34_1_Box_C+0x611>
 610:	00 
 611:	66 44 0f db c4       	pand   %xmm4,%xmm8
 616:	f2 41 0f 70 d8 e7    	pshuflw $0xe7,%xmm8,%xmm3
 61c:	f3 0f 70 db e7       	pshufhw $0xe7,%xmm3,%xmm3
 621:	66 0f 70 db e8       	pshufd $0xe8,%xmm3,%xmm3
 626:	f2 0f 70 db b1       	pshuflw $0xb1,%xmm3,%xmm3
 62b:	66 0f 67 d8          	packuswb %xmm0,%xmm3
 62f:	66 44 0f db dc       	pand   %xmm4,%xmm11
 634:	66 0f 6f fc          	movdqa %xmm4,%xmm7
 638:	f2 41 0f 70 e3 e7    	pshuflw $0xe7,%xmm11,%xmm4
 63e:	f3 0f 70 e4 e7       	pshufhw $0xe7,%xmm4,%xmm4
 643:	66 0f 70 e4 24       	pshufd $0x24,%xmm4,%xmm4
 648:	f3 0f 70 e4 1b       	pshufhw $0x1b,%xmm4,%xmm4
 64d:	66 0f 67 e0          	packuswb %xmm0,%xmm4
 651:	66 0f 70 e4 e5       	pshufd $0xe5,%xmm4,%xmm4
 656:	66 0f 62 dc          	punpckldq %xmm4,%xmm3
 65a:	66 0f db c7          	pand   %xmm7,%xmm0
 65e:	f2 0f 70 c0 e7       	pshuflw $0xe7,%xmm0,%xmm0
 663:	f3 0f 70 c0 e7       	pshufhw $0xe7,%xmm0,%xmm0
 668:	66 0f 70 c0 24       	pshufd $0x24,%xmm0,%xmm0
 66d:	f3 0f 70 c0 1b       	pshufhw $0x1b,%xmm0,%xmm0
 672:	66 0f 67 c0          	packuswb %xmm0,%xmm0
 676:	66 0f db cf          	pand   %xmm7,%xmm1
 67a:	f2 0f 70 c9 e7       	pshuflw $0xe7,%xmm1,%xmm1
 67f:	f3 0f 70 c9 e7       	pshufhw $0xe7,%xmm1,%xmm1
 684:	66 0f 70 c9 e8       	pshufd $0xe8,%xmm1,%xmm1
 689:	f2 0f 70 c9 b1       	pshuflw $0xb1,%xmm1,%xmm1
 68e:	66 0f 67 c9          	packuswb %xmm1,%xmm1
 692:	66 44 0f 70 d9 a4    	pshufd $0xa4,%xmm1,%xmm11
 698:	66 44 0f 6a d8       	punpckhdq %xmm0,%xmm11
 69d:	f2 44 0f 10 db       	movsd  %xmm3,%xmm11
 6a2:	66 0f 70 44 24 e0 e7 	pshufd $0xe7,-0x20(%rsp),%xmm0
 6a9:	f2 0f 70 c0 e7       	pshuflw $0xe7,%xmm0,%xmm0
 6ae:	66 0f 70 4c 24 d0 e7 	pshufd $0xe7,-0x30(%rsp),%xmm1
 6b5:	f2 0f 70 c9 e7       	pshuflw $0xe7,%xmm1,%xmm1
 6ba:	66 0f 62 c8          	punpckldq %xmm0,%xmm1
 6be:	66 41 0f 70 c5 e7    	pshufd $0xe7,%xmm13,%xmm0
 6c4:	f2 0f 70 c0 74       	pshuflw $0x74,%xmm0,%xmm0
 6c9:	66 0f 70 de e7       	pshufd $0xe7,%xmm6,%xmm3
 6ce:	f2 0f 70 db 74       	pshuflw $0x74,%xmm3,%xmm3
 6d3:	66 0f 62 d8          	punpckldq %xmm0,%xmm3
 6d7:	66 0f 67 c8          	packuswb %xmm0,%xmm1
 6db:	66 0f 67 d8          	packuswb %xmm0,%xmm3
 6df:	66 0f 70 c3 e5       	pshufd $0xe5,%xmm3,%xmm0
 6e4:	66 0f 62 c8          	punpckldq %xmm0,%xmm1
 6e8:	66 41 0f 70 c7 e7    	pshufd $0xe7,%xmm15,%xmm0
 6ee:	f2 0f 70 c0 74       	pshuflw $0x74,%xmm0,%xmm0
 6f3:	66 41 0f 70 de e7    	pshufd $0xe7,%xmm14,%xmm3
 6f9:	f2 0f 70 db 74       	pshuflw $0x74,%xmm3,%xmm3
 6fe:	66 0f 62 d8          	punpckldq %xmm0,%xmm3
 702:	66 41 0f 70 c2 e7    	pshufd $0xe7,%xmm10,%xmm0
 708:	f2 0f 70 c0 e7       	pshuflw $0xe7,%xmm0,%xmm0
 70d:	66 41 0f 70 e1 e7    	pshufd $0xe7,%xmm9,%xmm4
 713:	f2 0f 70 e4 e7       	pshuflw $0xe7,%xmm4,%xmm4
 718:	66 0f 62 e0          	punpckldq %xmm0,%xmm4
 71c:	66 0f 67 db          	packuswb %xmm3,%xmm3
 720:	66 0f 67 c4          	packuswb %xmm4,%xmm0
 724:	66 0f 70 c0 a4       	pshufd $0xa4,%xmm0,%xmm0
 729:	66 0f 6a c3          	punpckhdq %xmm3,%xmm0
 72d:	f2 0f 10 c1          	movsd  %xmm1,%xmm0
 731:	66 0f 6f e5          	movdqa %xmm5,%xmm4
 735:	66 41 0f 68 e4       	punpckhbw %xmm12,%xmm4
 73a:	66 0f 6f 1d 00 00 00 	movdqa 0x0(%rip),%xmm3        # 742 <ScaleRowDown34_1_Box_C+0x742>
 741:	00 
 742:	66 0f d5 e3          	pmullw %xmm3,%xmm4
 746:	66 0f 6f fc          	movdqa %xmm4,%xmm7
 74a:	66 41 0f 69 fc       	punpckhwd %xmm12,%xmm7
 74f:	66 44 0f 28 ea       	movapd %xmm2,%xmm13
 754:	66 45 0f 68 ec       	punpckhbw %xmm12,%xmm13
 759:	66 45 0f 6f d5       	movdqa %xmm13,%xmm10
 75e:	66 45 0f 69 d4       	punpckhwd %xmm12,%xmm10
 763:	66 41 0f fe fa       	paddd  %xmm10,%xmm7
 768:	66 45 0f 28 fb       	movapd %xmm11,%xmm15
 76d:	66 45 0f 68 fc       	punpckhbw %xmm12,%xmm15
 772:	66 45 0f 6f cf       	movdqa %xmm15,%xmm9
 777:	66 45 0f 69 cc       	punpckhwd %xmm12,%xmm9
 77c:	66 45 0f fe d1       	paddd  %xmm9,%xmm10
 781:	66 0f 28 c8          	movapd %xmm0,%xmm1
 785:	66 41 0f 68 cc       	punpckhbw %xmm12,%xmm1
 78a:	66 0f d5 cb          	pmullw %xmm3,%xmm1
 78e:	66 44 0f 6f f3       	movdqa %xmm3,%xmm14
 793:	66 0f 6f d9          	movdqa %xmm1,%xmm3
 797:	66 41 0f 69 dc       	punpckhwd %xmm12,%xmm3
 79c:	66 0f 6f 35 00 00 00 	movdqa 0x0(%rip),%xmm6        # 7a4 <ScaleRowDown34_1_Box_C+0x7a4>
 7a3:	00 
 7a4:	66 44 0f fe ce       	paddd  %xmm6,%xmm9
 7a9:	66 44 0f fe cb       	paddd  %xmm3,%xmm9
 7ae:	66 41 0f 61 e4       	punpcklwd %xmm12,%xmm4
 7b3:	66 45 0f 61 ec       	punpcklwd %xmm12,%xmm13
 7b8:	66 41 0f fe e5       	paddd  %xmm13,%xmm4
 7bd:	66 45 0f 61 fc       	punpcklwd %xmm12,%xmm15
 7c2:	66 45 0f fe ef       	paddd  %xmm15,%xmm13
 7c7:	66 41 0f 61 cc       	punpcklwd %xmm12,%xmm1
 7cc:	66 44 0f fe fe       	paddd  %xmm6,%xmm15
 7d1:	66 44 0f fe f9       	paddd  %xmm1,%xmm15
 7d6:	66 41 0f 60 ec       	punpcklbw %xmm12,%xmm5
 7db:	66 41 0f 6f de       	movdqa %xmm14,%xmm3
 7e0:	66 41 0f d5 ee       	pmullw %xmm14,%xmm5
 7e5:	66 0f 6f cd          	movdqa %xmm5,%xmm1
 7e9:	66 41 0f 69 cc       	punpckhwd %xmm12,%xmm1
 7ee:	66 41 0f 60 d4       	punpcklbw %xmm12,%xmm2
 7f3:	66 44 0f 6f c2       	movdqa %xmm2,%xmm8
 7f8:	66 45 0f 69 c4       	punpckhwd %xmm12,%xmm8
 7fd:	66 41 0f fe c8       	paddd  %xmm8,%xmm1
 802:	66 45 0f 60 dc       	punpcklbw %xmm12,%xmm11
 807:	66 45 0f 6f f3       	movdqa %xmm11,%xmm14
 80c:	66 45 0f 69 f4       	punpckhwd %xmm12,%xmm14
 811:	66 45 0f fe c6       	paddd  %xmm14,%xmm8
 816:	66 41 0f 60 c4       	punpcklbw %xmm12,%xmm0
 81b:	66 0f d5 c3          	pmullw %xmm3,%xmm0
 81f:	66 0f 6f d8          	movdqa %xmm0,%xmm3
 823:	66 41 0f 69 dc       	punpckhwd %xmm12,%xmm3
 828:	66 44 0f fe f6       	paddd  %xmm6,%xmm14
 82d:	66 44 0f fe f3       	paddd  %xmm3,%xmm14
 832:	66 41 0f 61 ec       	punpcklwd %xmm12,%xmm5
 837:	66 41 0f 61 d4       	punpcklwd %xmm12,%xmm2
 83c:	66 0f fe ea          	paddd  %xmm2,%xmm5
 840:	66 45 0f 61 dc       	punpcklwd %xmm12,%xmm11
 845:	66 41 0f fe d3       	paddd  %xmm11,%xmm2
 84a:	66 41 0f 61 c4       	punpcklwd %xmm12,%xmm0
 84f:	66 44 0f fe de       	paddd  %xmm6,%xmm11
 854:	66 44 0f fe d8       	paddd  %xmm0,%xmm11
 859:	66 0f 6f 44 24 c0    	movdqa -0x40(%rsp),%xmm0
 85f:	66 0f fe c6          	paddd  %xmm6,%xmm0
 863:	66 0f 72 d0 02       	psrld  $0x2,%xmm0
 868:	66 0f fe fe          	paddd  %xmm6,%xmm7
 86c:	66 0f 72 d7 02       	psrld  $0x2,%xmm7
 871:	66 0f 6f 1d 00 00 00 	movdqa 0x0(%rip),%xmm3        # 879 <ScaleRowDown34_1_Box_C+0x879>
 878:	00 
 879:	66 0f db c3          	pand   %xmm3,%xmm0
 87d:	66 0f db fb          	pand   %xmm3,%xmm7
 881:	66 0f fe f8          	paddd  %xmm0,%xmm7
 885:	66 0f 6f 04 24       	movdqa (%rsp),%xmm0
 88a:	66 0f fe c6          	paddd  %xmm6,%xmm0
 88e:	66 0f 72 d0 02       	psrld  $0x2,%xmm0
 893:	66 0f fe e6          	paddd  %xmm6,%xmm4
 897:	66 0f 72 d4 02       	psrld  $0x2,%xmm4
 89c:	66 0f db c3          	pand   %xmm3,%xmm0
 8a0:	66 0f db e3          	pand   %xmm3,%xmm4
 8a4:	66 0f fe e0          	paddd  %xmm0,%xmm4
 8a8:	66 0f 6f 44 24 10    	movdqa 0x10(%rsp),%xmm0
 8ae:	66 0f fe c6          	paddd  %xmm6,%xmm0
 8b2:	66 0f 72 d0 02       	psrld  $0x2,%xmm0
 8b7:	66 0f fe ce          	paddd  %xmm6,%xmm1
 8bb:	66 0f 72 d1 02       	psrld  $0x2,%xmm1
 8c0:	66 0f db c3          	pand   %xmm3,%xmm0
 8c4:	66 0f db cb          	pand   %xmm3,%xmm1
 8c8:	66 0f fe c8          	paddd  %xmm0,%xmm1
 8cc:	66 0f 6f 44 24 20    	movdqa 0x20(%rsp),%xmm0
 8d2:	66 0f fe c6          	paddd  %xmm6,%xmm0
 8d6:	66 0f 72 d0 02       	psrld  $0x2,%xmm0
 8db:	66 0f fe ee          	paddd  %xmm6,%xmm5
 8df:	66 0f 72 d5 02       	psrld  $0x2,%xmm5
 8e4:	66 0f db c3          	pand   %xmm3,%xmm0
 8e8:	66 0f db eb          	pand   %xmm3,%xmm5
 8ec:	66 0f fe e8          	paddd  %xmm0,%xmm5
 8f0:	66 0f 76 c0          	pcmpeqd %xmm0,%xmm0
 8f4:	66 0f fa f8          	psubd  %xmm0,%xmm7
 8f8:	66 0f fa e0          	psubd  %xmm0,%xmm4
 8fc:	66 0f 72 d4 01       	psrld  $0x1,%xmm4
 901:	66 0f 72 d7 01       	psrld  $0x1,%xmm7
 906:	66 0f db fb          	pand   %xmm3,%xmm7
 90a:	66 0f db e3          	pand   %xmm3,%xmm4
 90e:	66 0f 67 e7          	packuswb %xmm7,%xmm4
 912:	66 0f fa c8          	psubd  %xmm0,%xmm1
 916:	66 0f fa e8          	psubd  %xmm0,%xmm5
 91a:	66 0f 72 d5 01       	psrld  $0x1,%xmm5
 91f:	66 0f 72 d1 01       	psrld  $0x1,%xmm1
 924:	66 0f db cb          	pand   %xmm3,%xmm1
 928:	66 0f db eb          	pand   %xmm3,%xmm5
 92c:	66 0f 67 e9          	packuswb %xmm1,%xmm5
 930:	66 0f 67 ec          	packuswb %xmm4,%xmm5
 934:	66 0f 6f 4c 24 30    	movdqa 0x30(%rsp),%xmm1
 93a:	66 0f fa c8          	psubd  %xmm0,%xmm1
 93e:	66 0f 72 d1 01       	psrld  $0x1,%xmm1
 943:	66 44 0f fa d0       	psubd  %xmm0,%xmm10
 948:	66 41 0f 72 d2 01    	psrld  $0x1,%xmm10
 94e:	66 0f db cb          	pand   %xmm3,%xmm1
 952:	66 44 0f db d3       	pand   %xmm3,%xmm10
 957:	66 44 0f fe d1       	paddd  %xmm1,%xmm10
 95c:	66 0f 6f 4c 24 40    	movdqa 0x40(%rsp),%xmm1
 962:	66 0f fa c8          	psubd  %xmm0,%xmm1
 966:	66 0f 72 d1 01       	psrld  $0x1,%xmm1
 96b:	66 44 0f fa e8       	psubd  %xmm0,%xmm13
 970:	66 41 0f 72 d5 01    	psrld  $0x1,%xmm13
 976:	66 0f db cb          	pand   %xmm3,%xmm1
 97a:	66 44 0f db eb       	pand   %xmm3,%xmm13
 97f:	66 44 0f fe e9       	paddd  %xmm1,%xmm13
 984:	66 0f 6f 4c 24 f0    	movdqa -0x10(%rsp),%xmm1
 98a:	66 0f fa c8          	psubd  %xmm0,%xmm1
 98e:	66 0f 72 d1 01       	psrld  $0x1,%xmm1
 993:	66 44 0f fa c0       	psubd  %xmm0,%xmm8
 998:	66 41 0f 72 d0 01    	psrld  $0x1,%xmm8
 99e:	66 0f db cb          	pand   %xmm3,%xmm1
 9a2:	66 44 0f db c3       	pand   %xmm3,%xmm8
 9a7:	66 44 0f fe c1       	paddd  %xmm1,%xmm8
 9ac:	66 0f 6f 4c 24 50    	movdqa 0x50(%rsp),%xmm1
 9b2:	66 0f fa c8          	psubd  %xmm0,%xmm1
 9b6:	66 0f 72 d1 01       	psrld  $0x1,%xmm1
 9bb:	66 0f fa d0          	psubd  %xmm0,%xmm2
 9bf:	66 0f 72 d2 01       	psrld  $0x1,%xmm2
 9c4:	66 0f db cb          	pand   %xmm3,%xmm1
 9c8:	66 0f db d3          	pand   %xmm3,%xmm2
 9cc:	66 0f fe d1          	paddd  %xmm1,%xmm2
 9d0:	66 44 0f fa d0       	psubd  %xmm0,%xmm10
 9d5:	66 44 0f fa e8       	psubd  %xmm0,%xmm13
 9da:	66 41 0f 72 d5 01    	psrld  $0x1,%xmm13
 9e0:	66 41 0f 72 d2 01    	psrld  $0x1,%xmm10
 9e6:	66 44 0f db d3       	pand   %xmm3,%xmm10
 9eb:	66 44 0f db eb       	pand   %xmm3,%xmm13
 9f0:	66 45 0f 67 ea       	packuswb %xmm10,%xmm13
 9f5:	66 44 0f fa c0       	psubd  %xmm0,%xmm8
 9fa:	66 0f fa d0          	psubd  %xmm0,%xmm2
 9fe:	66 0f 72 d2 01       	psrld  $0x1,%xmm2
 a03:	66 41 0f 72 d0 01    	psrld  $0x1,%xmm8
 a09:	66 44 0f db c3       	pand   %xmm3,%xmm8
 a0e:	66 0f db d3          	pand   %xmm3,%xmm2
 a12:	66 41 0f 67 d0       	packuswb %xmm8,%xmm2
 a17:	66 41 0f 67 d5       	packuswb %xmm13,%xmm2
 a1c:	66 0f 6f 4c 24 80    	movdqa -0x80(%rsp),%xmm1
 a22:	66 0f 72 d1 02       	psrld  $0x2,%xmm1
 a27:	66 41 0f 72 d1 02    	psrld  $0x2,%xmm9
 a2d:	66 0f db cb          	pand   %xmm3,%xmm1
 a31:	66 44 0f db cb       	pand   %xmm3,%xmm9
 a36:	66 44 0f fe c9       	paddd  %xmm1,%xmm9
 a3b:	66 0f 6f 4c 24 a0    	movdqa -0x60(%rsp),%xmm1
 a41:	66 0f 72 d1 02       	psrld  $0x2,%xmm1
 a46:	66 41 0f 72 d7 02    	psrld  $0x2,%xmm15
 a4c:	66 0f db cb          	pand   %xmm3,%xmm1
 a50:	66 44 0f db fb       	pand   %xmm3,%xmm15
 a55:	66 44 0f fe f9       	paddd  %xmm1,%xmm15
 a5a:	66 0f 6f 4c 24 90    	movdqa -0x70(%rsp),%xmm1
 a60:	66 0f 72 d1 02       	psrld  $0x2,%xmm1
 a65:	66 41 0f 72 d6 02    	psrld  $0x2,%xmm14
 a6b:	66 0f db cb          	pand   %xmm3,%xmm1
 a6f:	66 44 0f db f3       	pand   %xmm3,%xmm14
 a74:	66 44 0f fe f1       	paddd  %xmm1,%xmm14
 a79:	66 0f 6f 4c 24 b0    	movdqa -0x50(%rsp),%xmm1
 a7f:	66 0f 72 d1 02       	psrld  $0x2,%xmm1
 a84:	66 41 0f 72 d3 02    	psrld  $0x2,%xmm11
 a8a:	66 0f db cb          	pand   %xmm3,%xmm1
 a8e:	66 44 0f db db       	pand   %xmm3,%xmm11
 a93:	66 44 0f fe d9       	paddd  %xmm1,%xmm11
 a98:	66 44 0f fa c8       	psubd  %xmm0,%xmm9
 a9d:	66 44 0f fa f8       	psubd  %xmm0,%xmm15
 aa2:	66 44 0f fa f0       	psubd  %xmm0,%xmm14
 aa7:	66 44 0f fa d8       	psubd  %xmm0,%xmm11
 aac:	66 41 0f 72 d3 01    	psrld  $0x1,%xmm11
 ab2:	66 41 0f 72 d6 01    	psrld  $0x1,%xmm14
 ab8:	66 41 0f 72 d7 01    	psrld  $0x1,%xmm15
 abe:	66 41 0f 72 d1 01    	psrld  $0x1,%xmm9
 ac4:	66 44 0f db cb       	pand   %xmm3,%xmm9
 ac9:	66 44 0f db fb       	pand   %xmm3,%xmm15
 ace:	66 45 0f 67 f9       	packuswb %xmm9,%xmm15
 ad3:	66 44 0f db f3       	pand   %xmm3,%xmm14
 ad8:	66 44 0f db db       	pand   %xmm3,%xmm11
 add:	66 45 0f 67 de       	packuswb %xmm14,%xmm11
 ae2:	66 45 0f 67 df       	packuswb %xmm15,%xmm11
 ae7:	f2 41 0f 70 c3 f6    	pshuflw $0xf6,%xmm11,%xmm0
 aed:	f3 0f 70 c0 c0       	pshufhw $0xc0,%xmm0,%xmm0
 af2:	66 0f 6f 35 00 00 00 	movdqa 0x0(%rip),%xmm6        # afa <ScaleRowDown34_1_Box_C+0xafa>
 af9:	00 
 afa:	66 0f 6f ce          	movdqa %xmm6,%xmm1
 afe:	66 0f df c8          	pandn  %xmm0,%xmm1
 b02:	66 0f 70 c2 e6       	pshufd $0xe6,%xmm2,%xmm0
 b07:	66 0f 60 c0          	punpcklbw %xmm0,%xmm0
 b0b:	66 0f 70 c0 4e       	pshufd $0x4e,%xmm0,%xmm0
 b10:	f2 0f 70 c0 e9       	pshuflw $0xe9,%xmm0,%xmm0
 b15:	f3 0f 70 d8 94       	pshufhw $0x94,%xmm0,%xmm3
 b1a:	66 0f db de          	pand   %xmm6,%xmm3
 b1e:	66 0f eb d9          	por    %xmm1,%xmm3
 b22:	66 0f 6f 3d 00 00 00 	movdqa 0x0(%rip),%xmm7        # b2a <ScaleRowDown34_1_Box_C+0xb2a>
 b29:	00 
 b2a:	66 0f db df          	pand   %xmm7,%xmm3
 b2e:	f2 0f 70 c5 fc       	pshuflw $0xfc,%xmm5,%xmm0
 b33:	f3 0f 70 c8 60       	pshufhw $0x60,%xmm0,%xmm1
 b38:	66 0f 6f c7          	movdqa %xmm7,%xmm0
 b3c:	66 0f df c1          	pandn  %xmm1,%xmm0
 b40:	66 0f eb c3          	por    %xmm3,%xmm0
 b44:	66 0f 70 cd 44       	pshufd $0x44,%xmm5,%xmm1
 b49:	f2 0f 70 c9 60       	pshuflw $0x60,%xmm1,%xmm1
 b4e:	f3 0f 70 c9 a5       	pshufhw $0xa5,%xmm1,%xmm1
 b53:	66 0f db ce          	pand   %xmm6,%xmm1
 b57:	66 0f 6f da          	movdqa %xmm2,%xmm3
 b5b:	66 0f 60 da          	punpcklbw %xmm2,%xmm3
 b5f:	66 0f 70 db 64       	pshufd $0x64,%xmm3,%xmm3
 b64:	f2 0f 70 db 94       	pshuflw $0x94,%xmm3,%xmm3
 b69:	f3 0f 70 db cc       	pshufhw $0xcc,%xmm3,%xmm3
 b6e:	66 0f 6f e6          	movdqa %xmm6,%xmm4
 b72:	66 0f df e3          	pandn  %xmm3,%xmm4
 b76:	66 0f eb e1          	por    %xmm1,%xmm4
 b7a:	66 41 0f 70 cb 44    	pshufd $0x44,%xmm11,%xmm1
 b80:	f2 0f 70 c9 c0       	pshuflw $0xc0,%xmm1,%xmm1
 b85:	f3 0f 70 c9 a5       	pshufhw $0xa5,%xmm1,%xmm1
 b8a:	66 0f 6f df          	movdqa %xmm7,%xmm3
 b8e:	66 0f df d9          	pandn  %xmm1,%xmm3
 b92:	66 0f db e7          	pand   %xmm7,%xmm4
 b96:	66 0f eb dc          	por    %xmm4,%xmm3
 b9a:	66 0f 70 cd ee       	pshufd $0xee,%xmm5,%xmm1
 b9f:	f2 0f 70 c9 a5       	pshuflw $0xa5,%xmm1,%xmm1
 ba4:	f3 0f 70 c9 fc       	pshufhw $0xfc,%xmm1,%xmm1
 ba9:	66 0f 6f e6          	movdqa %xmm6,%xmm4
 bad:	66 0f df e1          	pandn  %xmm1,%xmm4
 bb1:	66 41 0f 70 cb ee    	pshufd $0xee,%xmm11,%xmm1
 bb7:	f2 0f 70 c9 a5       	pshuflw $0xa5,%xmm1,%xmm1
 bbc:	f3 0f 70 c9 f6       	pshufhw $0xf6,%xmm1,%xmm1
 bc1:	66 0f db ce          	pand   %xmm6,%xmm1
 bc5:	66 0f eb cc          	por    %xmm4,%xmm1
 bc9:	66 0f 68 d2          	punpckhbw %xmm2,%xmm2
 bcd:	66 0f 70 d2 e6       	pshufd $0xe6,%xmm2,%xmm2
 bd2:	f2 0f 70 d2 cc       	pshuflw $0xcc,%xmm2,%xmm2
 bd7:	f3 0f 70 d2 e9       	pshufhw $0xe9,%xmm2,%xmm2
 bdc:	66 0f 6f e7          	movdqa %xmm7,%xmm4
 be0:	66 0f df e2          	pandn  %xmm2,%xmm4
 be4:	66 0f db cf          	pand   %xmm7,%xmm1
 be8:	66 0f eb e1          	por    %xmm1,%xmm4
 bec:	f3 0f 7f 62 20       	movdqu %xmm4,0x20(%rdx)
 bf1:	f3 0f 7f 1a          	movdqu %xmm3,(%rdx)
 bf5:	f3 0f 7f 42 10       	movdqu %xmm0,0x10(%rdx)
 bfa:	48 83 c3 10          	add    $0x10,%rbx
 bfe:	48 83 c2 30          	add    $0x30,%rdx
 c02:	49 39 de             	cmp    %rbx,%r14
 c05:	0f 85 b5 f4 ff ff    	jne    c0 <ScaleRowDown34_1_Box_C+0xc0>
 c0b:	4d 39 de             	cmp    %r11,%r14
 c0e:	75 0e                	jne    c1e <ScaleRowDown34_1_Box_C+0xc1e>
 c10:	e9 d2 00 00 00       	jmpq   ce7 <ScaleRowDown34_1_Box_C+0xce7>
 c15:	49 89 d4             	mov    %rdx,%r12
 c18:	49 89 f8             	mov    %rdi,%r8
 c1b:	4d 89 d1             	mov    %r10,%r9
 c1e:	31 d2                	xor    %edx,%edx
 c20:	41 0f b6 04 10       	movzbl (%r8,%rdx,1),%eax
 c25:	8d 04 40             	lea    (%rax,%rax,2),%eax
 c28:	41 0f b6 7c 10 01    	movzbl 0x1(%r8,%rdx,1),%edi
 c2e:	8d 04 07             	lea    (%rdi,%rax,1),%eax
 c31:	83 c0 02             	add    $0x2,%eax
 c34:	c1 e8 02             	shr    $0x2,%eax
 c37:	41 0f b6 6c 10 02    	movzbl 0x2(%r8,%rdx,1),%ebp
 c3d:	44 8d 1c 2f          	lea    (%rdi,%rbp,1),%r11d
 c41:	41 83 c3 01          	add    $0x1,%r11d
 c45:	41 d1 eb             	shr    %r11d
 c48:	41 0f b6 7c 10 03    	movzbl 0x3(%r8,%rdx,1),%edi
 c4e:	8d 3c 7f             	lea    (%rdi,%rdi,2),%edi
 c51:	44 8d 14 2f          	lea    (%rdi,%rbp,1),%r10d
 c55:	41 83 c2 02          	add    $0x2,%r10d
 c59:	41 c1 ea 02          	shr    $0x2,%r10d
 c5d:	41 0f b6 2c 11       	movzbl (%r9,%rdx,1),%ebp
 c62:	8d 6c 6d 00          	lea    0x0(%rbp,%rbp,2),%ebp
 c66:	41 0f b6 74 11 01    	movzbl 0x1(%r9,%rdx,1),%esi
 c6c:	8d 2c 2e             	lea    (%rsi,%rbp,1),%ebp
 c6f:	83 c5 02             	add    $0x2,%ebp
 c72:	c1 ed 02             	shr    $0x2,%ebp
 c75:	41 0f b6 7c 11 02    	movzbl 0x2(%r9,%rdx,1),%edi
 c7b:	8d 34 3e             	lea    (%rsi,%rdi,1),%esi
 c7e:	83 c6 01             	add    $0x1,%esi
 c81:	d1 ee                	shr    %esi
 c83:	41 0f b6 5c 11 03    	movzbl 0x3(%r9,%rdx,1),%ebx
 c89:	8d 1c 5b             	lea    (%rbx,%rbx,2),%ebx
 c8c:	8d 3c 1f             	lea    (%rdi,%rbx,1),%edi
 c8f:	83 c7 02             	add    $0x2,%edi
 c92:	c1 ef 02             	shr    $0x2,%edi
 c95:	0f b6 c0             	movzbl %al,%eax
 c98:	40 0f b6 dd          	movzbl %bpl,%ebx
 c9c:	8d 04 18             	lea    (%rax,%rbx,1),%eax
 c9f:	83 c0 01             	add    $0x1,%eax
 ca2:	d1 e8                	shr    %eax
 ca4:	41 88 04 24          	mov    %al,(%r12)
 ca8:	41 0f b6 c3          	movzbl %r11b,%eax
 cac:	40 0f b6 f6          	movzbl %sil,%esi
 cb0:	8d 04 30             	lea    (%rax,%rsi,1),%eax
 cb3:	83 c0 01             	add    $0x1,%eax
 cb6:	d1 e8                	shr    %eax
 cb8:	41 88 44 24 01       	mov    %al,0x1(%r12)
 cbd:	41 0f b6 c2          	movzbl %r10b,%eax
 cc1:	40 0f b6 f7          	movzbl %dil,%esi
 cc5:	8d 04 30             	lea    (%rax,%rsi,1),%eax
 cc8:	83 c0 01             	add    $0x1,%eax
 ccb:	d1 e8                	shr    %eax
 ccd:	41 88 44 24 02       	mov    %al,0x2(%r12)
 cd2:	41 83 c7 03          	add    $0x3,%r15d
 cd6:	48 83 c2 04          	add    $0x4,%rdx
 cda:	49 83 c4 03          	add    $0x3,%r12
 cde:	41 39 cf             	cmp    %ecx,%r15d
 ce1:	0f 8c 39 ff ff ff    	jl     c20 <ScaleRowDown34_1_Box_C+0xc20>
 ce7:	48 83 c4 60          	add    $0x60,%rsp
 ceb:	5b                   	pop    %rbx
 cec:	41 5c                	pop    %r12
 cee:	41 5e                	pop    %r14
 cf0:	41 5f                	pop    %r15
 cf2:	5d                   	pop    %rbp
 cf3:	c3                   	retq   

Disassembly of section .text.ScaleRowDown34_1_Box_16_C:

0000000000000000 <ScaleRowDown34_1_Box_16_C>:
   0:	55                   	push   %rbp
   1:	41 57                	push   %r15
   3:	41 56                	push   %r14
   5:	41 54                	push   %r12
   7:	53                   	push   %rbx
   8:	85 c9                	test   %ecx,%ecx
   a:	0f 8e 07 04 00 00    	jle    417 <ScaleRowDown34_1_Box_16_C+0x417>
  10:	4c 8d 14 77          	lea    (%rdi,%rsi,2),%r10
  14:	8d 41 ff             	lea    -0x1(%rcx),%eax
  17:	41 bb ab aa aa aa    	mov    $0xaaaaaaab,%r11d
  1d:	4c 0f af d8          	imul   %rax,%r11
  21:	49 c1 eb 21          	shr    $0x21,%r11
  25:	41 83 c3 01          	add    $0x1,%r11d
  29:	45 31 ff             	xor    %r15d,%r15d
  2c:	41 83 fb 04          	cmp    $0x4,%r11d
  30:	0f 82 0f 03 00 00    	jb     345 <ScaleRowDown34_1_Box_16_C+0x345>
  36:	bb ab aa aa aa       	mov    $0xaaaaaaab,%ebx
  3b:	48 0f af d8          	imul   %rax,%rbx
  3f:	48 c1 eb 21          	shr    $0x21,%rbx
  43:	48 8d 04 5b          	lea    (%rbx,%rbx,2),%rax
  47:	48 8d 04 42          	lea    (%rdx,%rax,2),%rax
  4b:	48 83 c0 06          	add    $0x6,%rax
  4f:	48 8d 34 9e          	lea    (%rsi,%rbx,4),%rsi
  53:	48 8d 34 77          	lea    (%rdi,%rsi,2),%rsi
  57:	48 83 c6 08          	add    $0x8,%rsi
  5b:	48 8d 1c df          	lea    (%rdi,%rbx,8),%rbx
  5f:	48 83 c3 08          	add    $0x8,%rbx
  63:	48 39 d6             	cmp    %rdx,%rsi
  66:	40 0f 97 c6          	seta   %sil
  6a:	49 39 c2             	cmp    %rax,%r10
  6d:	41 0f 92 c0          	setb   %r8b
  71:	48 39 d3             	cmp    %rdx,%rbx
  74:	0f 97 c3             	seta   %bl
  77:	48 39 f8             	cmp    %rdi,%rax
  7a:	0f 97 c0             	seta   %al
  7d:	44 84 c6             	test   %r8b,%sil
  80:	0f 85 bf 02 00 00    	jne    345 <ScaleRowDown34_1_Box_16_C+0x345>
  86:	20 c3                	and    %al,%bl
  88:	0f 85 b7 02 00 00    	jne    345 <ScaleRowDown34_1_Box_16_C+0x345>
  8e:	45 89 de             	mov    %r11d,%r14d
  91:	41 83 e6 fc          	and    $0xfffffffc,%r14d
  95:	4b 8d 04 76          	lea    (%r14,%r14,2),%rax
  99:	4c 8d 24 42          	lea    (%rdx,%rax,2),%r12
  9d:	4e 8d 04 f7          	lea    (%rdi,%r14,8),%r8
  a1:	4f 8d 0c f2          	lea    (%r10,%r14,8),%r9
  a5:	47 8d 3c 76          	lea    (%r14,%r14,2),%r15d
  a9:	31 db                	xor    %ebx,%ebx
  ab:	66 44 0f 6f 35 00 00 	movdqa 0x0(%rip),%xmm14        # b4 <ScaleRowDown34_1_Box_16_C+0xb4>
  b2:	00 00 
  b4:	66 45 0f ef d2       	pxor   %xmm10,%xmm10
  b9:	66 44 0f 6f 1d 00 00 	movdqa 0x0(%rip),%xmm11        # c2 <ScaleRowDown34_1_Box_16_C+0xc2>
  c0:	00 00 
  c2:	66 45 0f 76 e4       	pcmpeqd %xmm12,%xmm12
  c7:	66 44 0f 6f 2d 00 00 	movdqa 0x0(%rip),%xmm13        # d0 <ScaleRowDown34_1_Box_16_C+0xd0>
  ce:	00 00 
  d0:	66 44 0f 6f 05 00 00 	movdqa 0x0(%rip),%xmm8        # d9 <ScaleRowDown34_1_Box_16_C+0xd9>
  d7:	00 00 
  d9:	66 44 0f 6f 0d 00 00 	movdqa 0x0(%rip),%xmm9        # e2 <ScaleRowDown34_1_Box_16_C+0xe2>
  e0:	00 00 
  e2:	66 2e 0f 1f 84 00 00 	nopw   %cs:0x0(%rax,%rax,1)
  e9:	00 00 00 
  ec:	0f 1f 40 00          	nopl   0x0(%rax)
  f0:	f3 0f 6f 0c df       	movdqu (%rdi,%rbx,8),%xmm1
  f5:	f3 0f 6f 54 df 10    	movdqu 0x10(%rdi,%rbx,8),%xmm2
  fb:	66 0f 70 da e8       	pshufd $0xe8,%xmm2,%xmm3
 100:	f2 0f 70 eb e8       	pshuflw $0xe8,%xmm3,%xmm5
 105:	66 0f 70 f1 e8       	pshufd $0xe8,%xmm1,%xmm6
 10a:	f2 0f 70 e6 e8       	pshuflw $0xe8,%xmm6,%xmm4
 10f:	66 0f 62 e5          	punpckldq %xmm5,%xmm4
 113:	66 0f 6f ec          	movdqa %xmm4,%xmm5
 117:	66 41 0f e4 ee       	pmulhuw %xmm14,%xmm5
 11c:	66 41 0f d5 e6       	pmullw %xmm14,%xmm4
 121:	66 0f 61 e5          	punpcklwd %xmm5,%xmm4
 125:	f2 0f 70 db ed       	pshuflw $0xed,%xmm3,%xmm3
 12a:	f2 0f 70 fe ed       	pshuflw $0xed,%xmm6,%xmm7
 12f:	66 0f 62 fb          	punpckldq %xmm3,%xmm7
 133:	66 41 0f 61 fa       	punpcklwd %xmm10,%xmm7
 138:	66 0f 6f f7          	movdqa %xmm7,%xmm6
 13c:	66 41 0f fe f3       	paddd  %xmm11,%xmm6
 141:	66 0f fe f4          	paddd  %xmm4,%xmm6
 145:	66 0f 72 d6 02       	psrld  $0x2,%xmm6
 14a:	66 0f 70 d2 e7       	pshufd $0xe7,%xmm2,%xmm2
 14f:	f2 0f 70 da e2       	pshuflw $0xe2,%xmm2,%xmm3
 154:	66 0f 70 c9 e7       	pshufd $0xe7,%xmm1,%xmm1
 159:	f2 0f 70 e9 e2       	pshuflw $0xe2,%xmm1,%xmm5
 15e:	66 0f 62 eb          	punpckldq %xmm3,%xmm5
 162:	66 41 0f 61 ea       	punpcklwd %xmm10,%xmm5
 167:	66 0f fe fd          	paddd  %xmm5,%xmm7
 16b:	66 41 0f fa fc       	psubd  %xmm12,%xmm7
 170:	66 0f 72 d7 01       	psrld  $0x1,%xmm7
 175:	f2 0f 70 d2 e7       	pshuflw $0xe7,%xmm2,%xmm2
 17a:	f2 0f 70 c9 e7       	pshuflw $0xe7,%xmm1,%xmm1
 17f:	66 0f 62 ca          	punpckldq %xmm2,%xmm1
 183:	66 0f 6f d1          	movdqa %xmm1,%xmm2
 187:	66 41 0f e4 d6       	pmulhuw %xmm14,%xmm2
 18c:	66 41 0f d5 ce       	pmullw %xmm14,%xmm1
 191:	66 0f 61 ca          	punpcklwd %xmm2,%xmm1
 195:	66 41 0f fe eb       	paddd  %xmm11,%xmm5
 19a:	66 0f fe e9          	paddd  %xmm1,%xmm5
 19e:	66 0f 72 d5 02       	psrld  $0x2,%xmm5
 1a3:	f3 45 0f 6f 3c da    	movdqu (%r10,%rbx,8),%xmm15
 1a9:	f3 41 0f 6f 64 da 10 	movdqu 0x10(%r10,%rbx,8),%xmm4
 1b0:	66 0f 70 cc e8       	pshufd $0xe8,%xmm4,%xmm1
 1b5:	f2 0f 70 d1 e8       	pshuflw $0xe8,%xmm1,%xmm2
 1ba:	66 41 0f 70 c7 e8    	pshufd $0xe8,%xmm15,%xmm0
 1c0:	f2 0f 70 d8 e8       	pshuflw $0xe8,%xmm0,%xmm3
 1c5:	66 0f 62 da          	punpckldq %xmm2,%xmm3
 1c9:	66 0f 6f d3          	movdqa %xmm3,%xmm2
 1cd:	66 41 0f e4 d6       	pmulhuw %xmm14,%xmm2
 1d2:	66 41 0f d5 de       	pmullw %xmm14,%xmm3
 1d7:	66 0f 61 da          	punpcklwd %xmm2,%xmm3
 1db:	f2 0f 70 d1 ed       	pshuflw $0xed,%xmm1,%xmm2
 1e0:	f2 0f 70 c8 ed       	pshuflw $0xed,%xmm0,%xmm1
 1e5:	66 0f 62 ca          	punpckldq %xmm2,%xmm1
 1e9:	66 41 0f 61 ca       	punpcklwd %xmm10,%xmm1
 1ee:	66 0f 6f d1          	movdqa %xmm1,%xmm2
 1f2:	66 41 0f fe d3       	paddd  %xmm11,%xmm2
 1f7:	66 0f fe d3          	paddd  %xmm3,%xmm2
 1fb:	66 0f 72 d2 02       	psrld  $0x2,%xmm2
 200:	66 0f 70 c4 e7       	pshufd $0xe7,%xmm4,%xmm0
 205:	f2 0f 70 e0 e2       	pshuflw $0xe2,%xmm0,%xmm4
 20a:	66 45 0f 70 ff e7    	pshufd $0xe7,%xmm15,%xmm15
 210:	f2 41 0f 70 df e2    	pshuflw $0xe2,%xmm15,%xmm3
 216:	66 0f 62 dc          	punpckldq %xmm4,%xmm3
 21a:	66 41 0f 61 da       	punpcklwd %xmm10,%xmm3
 21f:	66 0f fe cb          	paddd  %xmm3,%xmm1
 223:	66 41 0f fa cc       	psubd  %xmm12,%xmm1
 228:	66 0f 72 d1 01       	psrld  $0x1,%xmm1
 22d:	f2 0f 70 c0 e7       	pshuflw $0xe7,%xmm0,%xmm0
 232:	f2 41 0f 70 e7 e7    	pshuflw $0xe7,%xmm15,%xmm4
 238:	66 0f 62 e0          	punpckldq %xmm0,%xmm4
 23c:	66 0f 6f c4          	movdqa %xmm4,%xmm0
 240:	66 41 0f e4 c6       	pmulhuw %xmm14,%xmm0
 245:	66 41 0f d5 e6       	pmullw %xmm14,%xmm4
 24a:	66 0f 61 e0          	punpcklwd %xmm0,%xmm4
 24e:	66 41 0f fe db       	paddd  %xmm11,%xmm3
 253:	66 0f fe dc          	paddd  %xmm4,%xmm3
 257:	66 0f 72 d3 02       	psrld  $0x2,%xmm3
 25c:	66 41 0f db f5       	pand   %xmm13,%xmm6
 261:	66 41 0f db d5       	pand   %xmm13,%xmm2
 266:	66 0f fe d6          	paddd  %xmm6,%xmm2
 26a:	66 41 0f fa d4       	psubd  %xmm12,%xmm2
 26f:	66 0f 72 d2 01       	psrld  $0x1,%xmm2
 274:	66 41 0f db fd       	pand   %xmm13,%xmm7
 279:	66 41 0f db cd       	pand   %xmm13,%xmm1
 27e:	66 0f fe cf          	paddd  %xmm7,%xmm1
 282:	66 41 0f fa cc       	psubd  %xmm12,%xmm1
 287:	66 0f 72 d1 01       	psrld  $0x1,%xmm1
 28c:	66 41 0f db ed       	pand   %xmm13,%xmm5
 291:	66 41 0f db dd       	pand   %xmm13,%xmm3
 296:	66 0f fe dd          	paddd  %xmm5,%xmm3
 29a:	66 41 0f fa dc       	psubd  %xmm12,%xmm3
 29f:	66 0f 72 d3 01       	psrld  $0x1,%xmm3
 2a4:	f2 0f 70 c1 e8       	pshuflw $0xe8,%xmm1,%xmm0
 2a9:	f3 0f 70 c0 e8       	pshufhw $0xe8,%xmm0,%xmm0
 2ae:	66 0f 70 c0 e8       	pshufd $0xe8,%xmm0,%xmm0
 2b3:	f2 0f 70 ca e8       	pshuflw $0xe8,%xmm2,%xmm1
 2b8:	f3 0f 70 c9 e8       	pshufhw $0xe8,%xmm1,%xmm1
 2bd:	66 0f 70 c9 e8       	pshufd $0xe8,%xmm1,%xmm1
 2c2:	66 0f 6c c8          	punpcklqdq %xmm0,%xmm1
 2c6:	f2 0f 70 c3 e8       	pshuflw $0xe8,%xmm3,%xmm0
 2cb:	f3 0f 70 c0 e8       	pshufhw $0xe8,%xmm0,%xmm0
 2d0:	66 0f 70 c0 e8       	pshufd $0xe8,%xmm0,%xmm0
 2d5:	f3 0f 70 d1 c6       	pshufhw $0xc6,%xmm1,%xmm2
 2da:	66 0f 70 d2 6c       	pshufd $0x6c,%xmm2,%xmm2
 2df:	f2 0f 70 d2 68       	pshuflw $0x68,%xmm2,%xmm2
 2e4:	f3 0f 70 d2 25       	pshufhw $0x25,%xmm2,%xmm2
 2e9:	66 41 0f db d0       	pand   %xmm8,%xmm2
 2ee:	66 0f 70 d8 c0       	pshufd $0xc0,%xmm0,%xmm3
 2f3:	66 41 0f 6f e0       	movdqa %xmm8,%xmm4
 2f8:	66 0f df e3          	pandn  %xmm3,%xmm4
 2fc:	66 0f eb e2          	por    %xmm2,%xmm4
 300:	66 0f 70 c9 e7       	pshufd $0xe7,%xmm1,%xmm1
 305:	f2 0f 70 c9 dc       	pshuflw $0xdc,%xmm1,%xmm1
 30a:	66 41 0f 6f d1       	movdqa %xmm9,%xmm2
 30f:	66 0f df d1          	pandn  %xmm1,%xmm2
 313:	66 0f 70 c0 e5       	pshufd $0xe5,%xmm0,%xmm0
 318:	66 41 0f db c1       	pand   %xmm9,%xmm0
 31d:	66 0f eb c2          	por    %xmm2,%xmm0
 321:	66 0f d6 42 10       	movq   %xmm0,0x10(%rdx)
 326:	f3 0f 7f 22          	movdqu %xmm4,(%rdx)
 32a:	48 83 c3 04          	add    $0x4,%rbx
 32e:	48 83 c2 18          	add    $0x18,%rdx
 332:	49 39 de             	cmp    %rbx,%r14
 335:	0f 85 b5 fd ff ff    	jne    f0 <ScaleRowDown34_1_Box_16_C+0xf0>
 33b:	4d 39 de             	cmp    %r11,%r14
 33e:	75 0e                	jne    34e <ScaleRowDown34_1_Box_16_C+0x34e>
 340:	e9 d2 00 00 00       	jmpq   417 <ScaleRowDown34_1_Box_16_C+0x417>
 345:	49 89 d4             	mov    %rdx,%r12
 348:	49 89 f8             	mov    %rdi,%r8
 34b:	4d 89 d1             	mov    %r10,%r9
 34e:	31 d2                	xor    %edx,%edx
 350:	41 0f b7 04 10       	movzwl (%r8,%rdx,1),%eax
 355:	8d 04 40             	lea    (%rax,%rax,2),%eax
 358:	41 0f b7 7c 10 02    	movzwl 0x2(%r8,%rdx,1),%edi
 35e:	8d 04 07             	lea    (%rdi,%rax,1),%eax
 361:	83 c0 02             	add    $0x2,%eax
 364:	c1 e8 02             	shr    $0x2,%eax
 367:	41 0f b7 6c 10 04    	movzwl 0x4(%r8,%rdx,1),%ebp
 36d:	44 8d 1c 2f          	lea    (%rdi,%rbp,1),%r11d
 371:	41 83 c3 01          	add    $0x1,%r11d
 375:	41 d1 eb             	shr    %r11d
 378:	41 0f b7 7c 10 06    	movzwl 0x6(%r8,%rdx,1),%edi
 37e:	8d 3c 7f             	lea    (%rdi,%rdi,2),%edi
 381:	44 8d 14 2f          	lea    (%rdi,%rbp,1),%r10d
 385:	41 83 c2 02          	add    $0x2,%r10d
 389:	41 c1 ea 02          	shr    $0x2,%r10d
 38d:	41 0f b7 2c 11       	movzwl (%r9,%rdx,1),%ebp
 392:	8d 6c 6d 00          	lea    0x0(%rbp,%rbp,2),%ebp
 396:	41 0f b7 74 11 02    	movzwl 0x2(%r9,%rdx,1),%esi
 39c:	8d 2c 2e             	lea    (%rsi,%rbp,1),%ebp
 39f:	83 c5 02             	add    $0x2,%ebp
 3a2:	c1 ed 02             	shr    $0x2,%ebp
 3a5:	41 0f b7 7c 11 04    	movzwl 0x4(%r9,%rdx,1),%edi
 3ab:	8d 34 3e             	lea    (%rsi,%rdi,1),%esi
 3ae:	83 c6 01             	add    $0x1,%esi
 3b1:	d1 ee                	shr    %esi
 3b3:	41 0f b7 5c 11 06    	movzwl 0x6(%r9,%rdx,1),%ebx
 3b9:	8d 1c 5b             	lea    (%rbx,%rbx,2),%ebx
 3bc:	8d 3c 1f             	lea    (%rdi,%rbx,1),%edi
 3bf:	83 c7 02             	add    $0x2,%edi
 3c2:	c1 ef 02             	shr    $0x2,%edi
 3c5:	0f b7 c0             	movzwl %ax,%eax
 3c8:	0f b7 dd             	movzwl %bp,%ebx
 3cb:	8d 04 18             	lea    (%rax,%rbx,1),%eax
 3ce:	83 c0 01             	add    $0x1,%eax
 3d1:	d1 e8                	shr    %eax
 3d3:	66 41 89 04 24       	mov    %ax,(%r12)
 3d8:	41 0f b7 c3          	movzwl %r11w,%eax
 3dc:	0f b7 f6             	movzwl %si,%esi
 3df:	8d 04 30             	lea    (%rax,%rsi,1),%eax
 3e2:	83 c0 01             	add    $0x1,%eax
 3e5:	d1 e8                	shr    %eax
 3e7:	66 41 89 44 24 02    	mov    %ax,0x2(%r12)
 3ed:	41 0f b7 c2          	movzwl %r10w,%eax
 3f1:	0f b7 f7             	movzwl %di,%esi
 3f4:	8d 04 30             	lea    (%rax,%rsi,1),%eax
 3f7:	83 c0 01             	add    $0x1,%eax
 3fa:	d1 e8                	shr    %eax
 3fc:	66 41 89 44 24 04    	mov    %ax,0x4(%r12)
 402:	41 83 c7 03          	add    $0x3,%r15d
 406:	48 83 c2 08          	add    $0x8,%rdx
 40a:	49 83 c4 06          	add    $0x6,%r12
 40e:	41 39 cf             	cmp    %ecx,%r15d
 411:	0f 8c 39 ff ff ff    	jl     350 <ScaleRowDown34_1_Box_16_C+0x350>
 417:	5b                   	pop    %rbx
 418:	41 5c                	pop    %r12
 41a:	41 5e                	pop    %r14
 41c:	41 5f                	pop    %r15
 41e:	5d                   	pop    %rbp
 41f:	c3                   	retq   

Disassembly of section .text.ScaleCols_C:

0000000000000000 <ScaleCols_C>:
   0:	83 fa 02             	cmp    $0x2,%edx
   3:	7d 0a                	jge    f <ScaleCols_C+0xf>
   5:	f6 c2 01             	test   $0x1,%dl
   8:	0f 85 f7 00 00 00    	jne    105 <ScaleCols_C+0x105>
   e:	c3                   	retq   
   f:	55                   	push   %rbp
  10:	41 57                	push   %r15
  12:	41 56                	push   %r14
  14:	41 55                	push   %r13
  16:	41 54                	push   %r12
  18:	53                   	push   %rbx
  19:	44 8d 62 fe          	lea    -0x2(%rdx),%r12d
  1d:	41 89 d1             	mov    %edx,%r9d
  20:	41 83 e1 fe          	and    $0xfffffffe,%r9d
  24:	45 89 e3             	mov    %r12d,%r11d
  27:	41 83 e3 fe          	and    $0xfffffffe,%r11d
  2b:	41 d1 ec             	shr    %r12d
  2e:	41 8d 44 24 01       	lea    0x1(%r12),%eax
  33:	83 e0 01             	and    $0x1,%eax
  36:	49 89 fa             	mov    %rdi,%r10
  39:	89 cb                	mov    %ecx,%ebx
  3b:	45 85 e4             	test   %r12d,%r12d
  3e:	0f 84 7e 00 00 00    	je     c2 <ScaleCols_C+0xc2>
  44:	47 8d 34 40          	lea    (%r8,%r8,2),%r14d
  48:	47 8d 3c 00          	lea    (%r8,%r8,1),%r15d
  4c:	48 89 44 24 f8       	mov    %rax,-0x8(%rsp)
  51:	44 8d 68 ff          	lea    -0x1(%rax),%r13d
  55:	45 29 e5             	sub    %r12d,%r13d
  58:	49 89 fc             	mov    %rdi,%r12
  5b:	49 89 fa             	mov    %rdi,%r10
  5e:	89 cb                	mov    %ecx,%ebx
  60:	89 dd                	mov    %ebx,%ebp
  62:	c1 fd 10             	sar    $0x10,%ebp
  65:	48 63 ed             	movslq %ebp,%rbp
  68:	0f b6 04 2e          	movzbl (%rsi,%rbp,1),%eax
  6c:	41 88 02             	mov    %al,(%r10)
  6f:	42 8d 3c 03          	lea    (%rbx,%r8,1),%edi
  73:	89 fd                	mov    %edi,%ebp
  75:	c1 fd 10             	sar    $0x10,%ebp
  78:	48 63 ed             	movslq %ebp,%rbp
  7b:	0f b6 04 2e          	movzbl (%rsi,%rbp,1),%eax
  7f:	41 88 42 01          	mov    %al,0x1(%r10)
  83:	44 01 c7             	add    %r8d,%edi
  86:	41 8d 04 1f          	lea    (%r15,%rbx,1),%eax
  8a:	c1 f8 10             	sar    $0x10,%eax
  8d:	48 98                	cltq   
  8f:	0f b6 04 06          	movzbl (%rsi,%rax,1),%eax
  93:	41 88 42 02          	mov    %al,0x2(%r10)
  97:	44 01 c7             	add    %r8d,%edi
  9a:	44 01 f3             	add    %r14d,%ebx
  9d:	c1 fb 10             	sar    $0x10,%ebx
  a0:	48 63 c3             	movslq %ebx,%rax
  a3:	0f b6 04 06          	movzbl (%rsi,%rax,1),%eax
  a7:	41 88 42 03          	mov    %al,0x3(%r10)
  ab:	89 fb                	mov    %edi,%ebx
  ad:	44 01 c3             	add    %r8d,%ebx
  b0:	49 83 c2 04          	add    $0x4,%r10
  b4:	41 83 c5 02          	add    $0x2,%r13d
  b8:	75 a6                	jne    60 <ScaleCols_C+0x60>
  ba:	4c 89 e7             	mov    %r12,%rdi
  bd:	48 8b 44 24 f8       	mov    -0x8(%rsp),%rax
  c2:	45 0f af c8          	imul   %r8d,%r9d
  c6:	49 83 c3 02          	add    $0x2,%r11
  ca:	85 c0                	test   %eax,%eax
  cc:	74 1e                	je     ec <ScaleCols_C+0xec>
  ce:	89 d8                	mov    %ebx,%eax
  d0:	c1 f8 10             	sar    $0x10,%eax
  d3:	48 98                	cltq   
  d5:	8a 04 06             	mov    (%rsi,%rax,1),%al
  d8:	41 88 02             	mov    %al,(%r10)
  db:	41 01 d8             	add    %ebx,%r8d
  de:	41 c1 f8 10          	sar    $0x10,%r8d
  e2:	49 63 c0             	movslq %r8d,%rax
  e5:	8a 04 06             	mov    (%rsi,%rax,1),%al
  e8:	41 88 42 01          	mov    %al,0x1(%r10)
  ec:	44 01 c9             	add    %r9d,%ecx
  ef:	4c 01 df             	add    %r11,%rdi
  f2:	5b                   	pop    %rbx
  f3:	41 5c                	pop    %r12
  f5:	41 5d                	pop    %r13
  f7:	41 5e                	pop    %r14
  f9:	41 5f                	pop    %r15
  fb:	5d                   	pop    %rbp
  fc:	f6 c2 01             	test   $0x1,%dl
  ff:	0f 84 09 ff ff ff    	je     e <ScaleCols_C+0xe>
 105:	c1 f9 10             	sar    $0x10,%ecx
 108:	48 63 c1             	movslq %ecx,%rax
 10b:	8a 04 06             	mov    (%rsi,%rax,1),%al
 10e:	88 07                	mov    %al,(%rdi)
 110:	c3                   	retq   

Disassembly of section .text.ScaleCols_16_C:

0000000000000000 <ScaleCols_16_C>:
   0:	83 fa 02             	cmp    $0x2,%edx
   3:	7d 0a                	jge    f <ScaleCols_16_C+0xf>
   5:	f6 c2 01             	test   $0x1,%dl
   8:	0f 85 01 01 00 00    	jne    10f <ScaleCols_16_C+0x10f>
   e:	c3                   	retq   
   f:	55                   	push   %rbp
  10:	41 57                	push   %r15
  12:	41 56                	push   %r14
  14:	41 55                	push   %r13
  16:	41 54                	push   %r12
  18:	53                   	push   %rbx
  19:	44 8d 62 fe          	lea    -0x2(%rdx),%r12d
  1d:	41 89 d1             	mov    %edx,%r9d
  20:	41 83 e1 fe          	and    $0xfffffffe,%r9d
  24:	45 89 e3             	mov    %r12d,%r11d
  27:	41 83 e3 fe          	and    $0xfffffffe,%r11d
  2b:	41 d1 ec             	shr    %r12d
  2e:	41 8d 44 24 01       	lea    0x1(%r12),%eax
  33:	83 e0 01             	and    $0x1,%eax
  36:	49 89 fa             	mov    %rdi,%r10
  39:	89 cb                	mov    %ecx,%ebx
  3b:	45 85 e4             	test   %r12d,%r12d
  3e:	0f 84 83 00 00 00    	je     c7 <ScaleCols_16_C+0xc7>
  44:	47 8d 34 40          	lea    (%r8,%r8,2),%r14d
  48:	47 8d 3c 00          	lea    (%r8,%r8,1),%r15d
  4c:	48 89 44 24 f8       	mov    %rax,-0x8(%rsp)
  51:	44 8d 68 ff          	lea    -0x1(%rax),%r13d
  55:	45 29 e5             	sub    %r12d,%r13d
  58:	49 89 fc             	mov    %rdi,%r12
  5b:	49 89 fa             	mov    %rdi,%r10
  5e:	89 cb                	mov    %ecx,%ebx
  60:	89 dd                	mov    %ebx,%ebp
  62:	c1 fd 10             	sar    $0x10,%ebp
  65:	48 63 ed             	movslq %ebp,%rbp
  68:	0f b7 2c 6e          	movzwl (%rsi,%rbp,2),%ebp
  6c:	66 41 89 2a          	mov    %bp,(%r10)
  70:	42 8d 04 03          	lea    (%rbx,%r8,1),%eax
  74:	89 c5                	mov    %eax,%ebp
  76:	c1 fd 10             	sar    $0x10,%ebp
  79:	48 63 ed             	movslq %ebp,%rbp
  7c:	0f b7 2c 6e          	movzwl (%rsi,%rbp,2),%ebp
  80:	66 41 89 6a 02       	mov    %bp,0x2(%r10)
  85:	44 01 c0             	add    %r8d,%eax
  88:	41 8d 2c 1f          	lea    (%r15,%rbx,1),%ebp
  8c:	c1 fd 10             	sar    $0x10,%ebp
  8f:	48 63 ed             	movslq %ebp,%rbp
  92:	0f b7 2c 6e          	movzwl (%rsi,%rbp,2),%ebp
  96:	66 41 89 6a 04       	mov    %bp,0x4(%r10)
  9b:	44 01 c0             	add    %r8d,%eax
  9e:	44 01 f3             	add    %r14d,%ebx
  a1:	c1 fb 10             	sar    $0x10,%ebx
  a4:	48 63 db             	movslq %ebx,%rbx
  a7:	0f b7 1c 5e          	movzwl (%rsi,%rbx,2),%ebx
  ab:	66 41 89 5a 06       	mov    %bx,0x6(%r10)
  b0:	89 c3                	mov    %eax,%ebx
  b2:	44 01 c3             	add    %r8d,%ebx
  b5:	49 83 c2 08          	add    $0x8,%r10
  b9:	41 83 c5 02          	add    $0x2,%r13d
  bd:	75 a1                	jne    60 <ScaleCols_16_C+0x60>
  bf:	4c 89 e7             	mov    %r12,%rdi
  c2:	48 8b 44 24 f8       	mov    -0x8(%rsp),%rax
  c7:	45 0f af c8          	imul   %r8d,%r9d
  cb:	49 83 c3 02          	add    $0x2,%r11
  cf:	85 c0                	test   %eax,%eax
  d1:	74 22                	je     f5 <ScaleCols_16_C+0xf5>
  d3:	89 d8                	mov    %ebx,%eax
  d5:	c1 f8 10             	sar    $0x10,%eax
  d8:	48 98                	cltq   
  da:	0f b7 04 46          	movzwl (%rsi,%rax,2),%eax
  de:	66 41 89 02          	mov    %ax,(%r10)
  e2:	41 01 d8             	add    %ebx,%r8d
  e5:	41 c1 f8 10          	sar    $0x10,%r8d
  e9:	49 63 c0             	movslq %r8d,%rax
  ec:	0f b7 04 46          	movzwl (%rsi,%rax,2),%eax
  f0:	66 41 89 42 02       	mov    %ax,0x2(%r10)
  f5:	44 01 c9             	add    %r9d,%ecx
  f8:	4a 8d 3c 5f          	lea    (%rdi,%r11,2),%rdi
  fc:	5b                   	pop    %rbx
  fd:	41 5c                	pop    %r12
  ff:	41 5d                	pop    %r13
 101:	41 5e                	pop    %r14
 103:	41 5f                	pop    %r15
 105:	5d                   	pop    %rbp
 106:	f6 c2 01             	test   $0x1,%dl
 109:	0f 84 ff fe ff ff    	je     e <ScaleCols_16_C+0xe>
 10f:	c1 f9 10             	sar    $0x10,%ecx
 112:	48 63 c1             	movslq %ecx,%rax
 115:	0f b7 04 46          	movzwl (%rsi,%rax,2),%eax
 119:	66 89 07             	mov    %ax,(%rdi)
 11c:	c3                   	retq   

Disassembly of section .text.ScaleColsUp2_C:

0000000000000000 <ScaleColsUp2_C>:
   0:	83 fa 02             	cmp    $0x2,%edx
   3:	7d 0a                	jge    f <ScaleColsUp2_C+0xf>
   5:	f6 c2 01             	test   $0x1,%dl
   8:	0f 85 1c 02 00 00    	jne    22a <ScaleColsUp2_C+0x22a>
   e:	c3                   	retq   
   f:	55                   	push   %rbp
  10:	41 57                	push   %r15
  12:	41 56                	push   %r14
  14:	41 54                	push   %r12
  16:	53                   	push   %rbx
  17:	8d 4a fe             	lea    -0x2(%rdx),%ecx
  1a:	89 cd                	mov    %ecx,%ebp
  1c:	d1 ed                	shr    %ebp
  1e:	44 8d 4d 01          	lea    0x1(%rbp),%r9d
  22:	83 e1 fe             	and    $0xfffffffe,%ecx
  25:	4c 8d 41 02          	lea    0x2(%rcx),%r8
  29:	45 31 e4             	xor    %r12d,%r12d
  2c:	41 83 f9 10          	cmp    $0x10,%r9d
  30:	73 0b                	jae    3d <ScaleColsUp2_C+0x3d>
  32:	48 89 f9             	mov    %rdi,%rcx
  35:	49 89 f2             	mov    %rsi,%r10
  38:	e9 2d 01 00 00       	jmpq   16a <ScaleColsUp2_C+0x16a>
  3d:	48 01 f5             	add    %rsi,%rbp
  40:	48 83 c5 01          	add    $0x1,%rbp
  44:	48 39 fd             	cmp    %rdi,%rbp
  47:	76 17                	jbe    60 <ScaleColsUp2_C+0x60>
  49:	48 8d 2c 0f          	lea    (%rdi,%rcx,1),%rbp
  4d:	48 83 c5 02          	add    $0x2,%rbp
  51:	48 89 f9             	mov    %rdi,%rcx
  54:	49 89 f2             	mov    %rsi,%r10
  57:	48 39 f5             	cmp    %rsi,%rbp
  5a:	0f 87 0a 01 00 00    	ja     16a <ScaleColsUp2_C+0x16a>
  60:	45 89 ca             	mov    %r9d,%r10d
  63:	41 83 e2 f0          	and    $0xfffffff0,%r10d
  67:	49 8d 6a f0          	lea    -0x10(%r10),%rbp
  6b:	48 89 e9             	mov    %rbp,%rcx
  6e:	48 c1 e9 04          	shr    $0x4,%rcx
  72:	48 83 c1 01          	add    $0x1,%rcx
  76:	89 c8                	mov    %ecx,%eax
  78:	83 e0 03             	and    $0x3,%eax
  7b:	48 83 fd 30          	cmp    $0x30,%rbp
  7f:	73 10                	jae    91 <ScaleColsUp2_C+0x91>
  81:	31 c9                	xor    %ecx,%ecx
  83:	48 85 c0             	test   %rax,%rax
  86:	0f 85 99 00 00 00    	jne    125 <ScaleColsUp2_C+0x125>
  8c:	e9 c5 00 00 00       	jmpq   156 <ScaleColsUp2_C+0x156>
  91:	48 8d 58 ff          	lea    -0x1(%rax),%rbx
  95:	48 83 c1 ff          	add    $0xffffffffffffffff,%rcx
  99:	48 29 cb             	sub    %rcx,%rbx
  9c:	31 c9                	xor    %ecx,%ecx
  9e:	66 90                	xchg   %ax,%ax
  a0:	f3 0f 6f 04 0e       	movdqu (%rsi,%rcx,1),%xmm0
  a5:	66 0f 6f c8          	movdqa %xmm0,%xmm1
  a9:	66 0f 60 c8          	punpcklbw %xmm0,%xmm1
  ad:	66 0f 68 c0          	punpckhbw %xmm0,%xmm0
  b1:	f3 0f 7f 44 4f 10    	movdqu %xmm0,0x10(%rdi,%rcx,2)
  b7:	f3 0f 7f 0c 4f       	movdqu %xmm1,(%rdi,%rcx,2)
  bc:	f3 0f 6f 44 0e 10    	movdqu 0x10(%rsi,%rcx,1),%xmm0
  c2:	66 0f 6f c8          	movdqa %xmm0,%xmm1
  c6:	66 0f 60 c8          	punpcklbw %xmm0,%xmm1
  ca:	66 0f 68 c0          	punpckhbw %xmm0,%xmm0
  ce:	f3 0f 7f 44 4f 30    	movdqu %xmm0,0x30(%rdi,%rcx,2)
  d4:	f3 0f 7f 4c 4f 20    	movdqu %xmm1,0x20(%rdi,%rcx,2)
  da:	f3 0f 6f 44 0e 20    	movdqu 0x20(%rsi,%rcx,1),%xmm0
  e0:	66 0f 6f c8          	movdqa %xmm0,%xmm1
  e4:	66 0f 60 c8          	punpcklbw %xmm0,%xmm1
  e8:	66 0f 68 c0          	punpckhbw %xmm0,%xmm0
  ec:	f3 0f 7f 44 4f 50    	movdqu %xmm0,0x50(%rdi,%rcx,2)
  f2:	f3 0f 7f 4c 4f 40    	movdqu %xmm1,0x40(%rdi,%rcx,2)
  f8:	f3 0f 6f 44 0e 30    	movdqu 0x30(%rsi,%rcx,1),%xmm0
  fe:	66 0f 6f c8          	movdqa %xmm0,%xmm1
 102:	66 0f 60 c8          	punpcklbw %xmm0,%xmm1
 106:	66 0f 68 c0          	punpckhbw %xmm0,%xmm0
 10a:	f3 0f 7f 44 4f 70    	movdqu %xmm0,0x70(%rdi,%rcx,2)
 110:	f3 0f 7f 4c 4f 60    	movdqu %xmm1,0x60(%rdi,%rcx,2)
 116:	48 83 c1 40          	add    $0x40,%rcx
 11a:	48 83 c3 04          	add    $0x4,%rbx
 11e:	75 80                	jne    a0 <ScaleColsUp2_C+0xa0>
 120:	48 85 c0             	test   %rax,%rax
 123:	74 31                	je     156 <ScaleColsUp2_C+0x156>
 125:	48 f7 d8             	neg    %rax
 128:	0f 1f 84 00 00 00 00 	nopl   0x0(%rax,%rax,1)
 12f:	00 
 130:	f3 0f 6f 04 0e       	movdqu (%rsi,%rcx,1),%xmm0
 135:	66 0f 6f c8          	movdqa %xmm0,%xmm1
 139:	66 0f 60 c8          	punpcklbw %xmm0,%xmm1
 13d:	66 0f 68 c0          	punpckhbw %xmm0,%xmm0
 141:	f3 0f 7f 44 4f 10    	movdqu %xmm0,0x10(%rdi,%rcx,2)
 147:	f3 0f 7f 0c 4f       	movdqu %xmm1,(%rdi,%rcx,2)
 14c:	48 83 c1 10          	add    $0x10,%rcx
 150:	48 83 c0 01          	add    $0x1,%rax
 154:	75 da                	jne    130 <ScaleColsUp2_C+0x130>
 156:	4d 39 ca             	cmp    %r9,%r10
 159:	0f 84 b4 00 00 00    	je     213 <ScaleColsUp2_C+0x213>
 15f:	47 8d 24 12          	lea    (%r10,%r10,1),%r12d
 163:	4a 8d 0c 57          	lea    (%rdi,%r10,2),%rcx
 167:	49 01 f2             	add    %rsi,%r10
 16a:	44 8d 5a ff          	lea    -0x1(%rdx),%r11d
 16e:	45 8d 74 24 02       	lea    0x2(%r12),%r14d
 173:	45 39 de             	cmp    %r11d,%r14d
 176:	45 0f 4c f3          	cmovl  %r11d,%r14d
 17a:	41 83 c6 ff          	add    $0xffffffff,%r14d
 17e:	45 29 e6             	sub    %r12d,%r14d
 181:	44 89 f3             	mov    %r14d,%ebx
 184:	d1 eb                	shr    %ebx
 186:	8d 6b 01             	lea    0x1(%rbx),%ebp
 189:	40 f6 c5 03          	test   $0x3,%bpl
 18d:	74 33                	je     1c2 <ScaleColsUp2_C+0x1c2>
 18f:	80 c3 01             	add    $0x1,%bl
 192:	44 0f b6 fb          	movzbl %bl,%r15d
 196:	41 83 e7 03          	and    $0x3,%r15d
 19a:	31 db                	xor    %ebx,%ebx
 19c:	31 ed                	xor    %ebp,%ebp
 19e:	66 90                	xchg   %ax,%ax
 1a0:	41 0f b6 04 1a       	movzbl (%r10,%rbx,1),%eax
 1a5:	88 04 59             	mov    %al,(%rcx,%rbx,2)
 1a8:	88 44 59 01          	mov    %al,0x1(%rcx,%rbx,2)
 1ac:	48 83 c5 fe          	add    $0xfffffffffffffffe,%rbp
 1b0:	48 83 c3 01          	add    $0x1,%rbx
 1b4:	41 39 df             	cmp    %ebx,%r15d
 1b7:	75 e7                	jne    1a0 <ScaleColsUp2_C+0x1a0>
 1b9:	41 29 ec             	sub    %ebp,%r12d
 1bc:	48 29 e9             	sub    %rbp,%rcx
 1bf:	49 01 da             	add    %rbx,%r10
 1c2:	41 83 fe 06          	cmp    $0x6,%r14d
 1c6:	72 4b                	jb     213 <ScaleColsUp2_C+0x213>
 1c8:	31 db                	xor    %ebx,%ebx
 1ca:	66 0f 1f 44 00 00    	nopw   0x0(%rax,%rax,1)
 1d0:	41 0f b6 04 1a       	movzbl (%r10,%rbx,1),%eax
 1d5:	88 04 59             	mov    %al,(%rcx,%rbx,2)
 1d8:	88 44 59 01          	mov    %al,0x1(%rcx,%rbx,2)
 1dc:	41 0f b6 44 1a 01    	movzbl 0x1(%r10,%rbx,1),%eax
 1e2:	88 44 59 02          	mov    %al,0x2(%rcx,%rbx,2)
 1e6:	88 44 59 03          	mov    %al,0x3(%rcx,%rbx,2)
 1ea:	41 0f b6 44 1a 02    	movzbl 0x2(%r10,%rbx,1),%eax
 1f0:	88 44 59 04          	mov    %al,0x4(%rcx,%rbx,2)
 1f4:	88 44 59 05          	mov    %al,0x5(%rcx,%rbx,2)
 1f8:	41 0f b6 44 1a 03    	movzbl 0x3(%r10,%rbx,1),%eax
 1fe:	88 44 59 06          	mov    %al,0x6(%rcx,%rbx,2)
 202:	88 44 59 07          	mov    %al,0x7(%rcx,%rbx,2)
 206:	41 83 c4 08          	add    $0x8,%r12d
 20a:	48 83 c3 04          	add    $0x4,%rbx
 20e:	45 39 dc             	cmp    %r11d,%r12d
 211:	7c bd                	jl     1d0 <ScaleColsUp2_C+0x1d0>
 213:	4c 01 ce             	add    %r9,%rsi
 216:	4c 01 c7             	add    %r8,%rdi
 219:	5b                   	pop    %rbx
 21a:	41 5c                	pop    %r12
 21c:	41 5e                	pop    %r14
 21e:	41 5f                	pop    %r15
 220:	5d                   	pop    %rbp
 221:	f6 c2 01             	test   $0x1,%dl
 224:	0f 84 e4 fd ff ff    	je     e <ScaleColsUp2_C+0xe>
 22a:	8a 06                	mov    (%rsi),%al
 22c:	88 07                	mov    %al,(%rdi)
 22e:	c3                   	retq   

Disassembly of section .text.ScaleColsUp2_16_C:

0000000000000000 <ScaleColsUp2_16_C>:
   0:	83 fa 02             	cmp    $0x2,%edx
   3:	7d 0a                	jge    f <ScaleColsUp2_16_C+0xf>
   5:	f6 c2 01             	test   $0x1,%dl
   8:	0f 85 35 02 00 00    	jne    243 <ScaleColsUp2_16_C+0x243>
   e:	c3                   	retq   
   f:	55                   	push   %rbp
  10:	41 57                	push   %r15
  12:	41 56                	push   %r14
  14:	41 54                	push   %r12
  16:	53                   	push   %rbx
  17:	8d 42 fe             	lea    -0x2(%rdx),%eax
  1a:	41 89 c1             	mov    %eax,%r9d
  1d:	41 d1 e9             	shr    %r9d
  20:	41 83 c1 01          	add    $0x1,%r9d
  24:	83 e0 fe             	and    $0xfffffffe,%eax
  27:	4c 8d 40 02          	lea    0x2(%rax),%r8
  2b:	45 31 d2             	xor    %r10d,%r10d
  2e:	41 83 f9 08          	cmp    $0x8,%r9d
  32:	73 0b                	jae    3f <ScaleColsUp2_16_C+0x3f>
  34:	48 89 f9             	mov    %rdi,%rcx
  37:	49 89 f4             	mov    %rsi,%r12
  3a:	e9 3c 01 00 00       	jmpq   17b <ScaleColsUp2_16_C+0x17b>
  3f:	48 8d 0c 06          	lea    (%rsi,%rax,1),%rcx
  43:	48 83 c1 02          	add    $0x2,%rcx
  47:	48 39 f9             	cmp    %rdi,%rcx
  4a:	76 17                	jbe    63 <ScaleColsUp2_16_C+0x63>
  4c:	48 8d 2c 47          	lea    (%rdi,%rax,2),%rbp
  50:	48 83 c5 04          	add    $0x4,%rbp
  54:	48 89 f9             	mov    %rdi,%rcx
  57:	49 89 f4             	mov    %rsi,%r12
  5a:	48 39 f5             	cmp    %rsi,%rbp
  5d:	0f 87 18 01 00 00    	ja     17b <ScaleColsUp2_16_C+0x17b>
  63:	45 89 cb             	mov    %r9d,%r11d
  66:	41 83 e3 f8          	and    $0xfffffff8,%r11d
  6a:	49 8d 6b f8          	lea    -0x8(%r11),%rbp
  6e:	48 89 e8             	mov    %rbp,%rax
  71:	48 c1 e8 03          	shr    $0x3,%rax
  75:	48 83 c0 01          	add    $0x1,%rax
  79:	89 c1                	mov    %eax,%ecx
  7b:	83 e1 03             	and    $0x3,%ecx
  7e:	48 83 fd 18          	cmp    $0x18,%rbp
  82:	73 10                	jae    94 <ScaleColsUp2_16_C+0x94>
  84:	31 c0                	xor    %eax,%eax
  86:	48 85 c9             	test   %rcx,%rcx
  89:	0f 85 a6 00 00 00    	jne    135 <ScaleColsUp2_16_C+0x135>
  8f:	e9 d2 00 00 00       	jmpq   166 <ScaleColsUp2_16_C+0x166>
  94:	48 8d 59 ff          	lea    -0x1(%rcx),%rbx
  98:	48 83 c0 ff          	add    $0xffffffffffffffff,%rax
  9c:	48 29 c3             	sub    %rax,%rbx
  9f:	31 c0                	xor    %eax,%eax
  a1:	66 2e 0f 1f 84 00 00 	nopw   %cs:0x0(%rax,%rax,1)
  a8:	00 00 00 
  ab:	0f 1f 44 00 00       	nopl   0x0(%rax,%rax,1)
  b0:	f3 0f 6f 04 46       	movdqu (%rsi,%rax,2),%xmm0
  b5:	66 0f 6f c8          	movdqa %xmm0,%xmm1
  b9:	66 0f 61 c8          	punpcklwd %xmm0,%xmm1
  bd:	66 0f 69 c0          	punpckhwd %xmm0,%xmm0
  c1:	f3 0f 7f 44 87 10    	movdqu %xmm0,0x10(%rdi,%rax,4)
  c7:	f3 0f 7f 0c 87       	movdqu %xmm1,(%rdi,%rax,4)
  cc:	f3 0f 6f 44 46 10    	movdqu 0x10(%rsi,%rax,2),%xmm0
  d2:	66 0f 6f c8          	movdqa %xmm0,%xmm1
  d6:	66 0f 61 c8          	punpcklwd %xmm0,%xmm1
  da:	66 0f 69 c0          	punpckhwd %xmm0,%xmm0
  de:	f3 0f 7f 44 87 30    	movdqu %xmm0,0x30(%rdi,%rax,4)
  e4:	f3 0f 7f 4c 87 20    	movdqu %xmm1,0x20(%rdi,%rax,4)
  ea:	f3 0f 6f 44 46 20    	movdqu 0x20(%rsi,%rax,2),%xmm0
  f0:	66 0f 6f c8          	movdqa %xmm0,%xmm1
  f4:	66 0f 61 c8          	punpcklwd %xmm0,%xmm1
  f8:	66 0f 69 c0          	punpckhwd %xmm0,%xmm0
  fc:	f3 0f 7f 44 87 50    	movdqu %xmm0,0x50(%rdi,%rax,4)
 102:	f3 0f 7f 4c 87 40    	movdqu %xmm1,0x40(%rdi,%rax,4)
 108:	f3 0f 6f 44 46 30    	movdqu 0x30(%rsi,%rax,2),%xmm0
 10e:	66 0f 6f c8          	movdqa %xmm0,%xmm1
 112:	66 0f 61 c8          	punpcklwd %xmm0,%xmm1
 116:	66 0f 69 c0          	punpckhwd %xmm0,%xmm0
 11a:	f3 0f 7f 44 87 70    	movdqu %xmm0,0x70(%rdi,%rax,4)
 120:	f3 0f 7f 4c 87 60    	movdqu %xmm1,0x60(%rdi,%rax,4)
 126:	48 83 c0 20          	add    $0x20,%rax
 12a:	48 83 c3 04          	add    $0x4,%rbx
 12e:	75 80                	jne    b0 <ScaleColsUp2_16_C+0xb0>
 130:	48 85 c9             	test   %rcx,%rcx
 133:	74 31                	je     166 <ScaleColsUp2_16_C+0x166>
 135:	48 01 c0             	add    %rax,%rax
 138:	48 f7 d9             	neg    %rcx
 13b:	0f 1f 44 00 00       	nopl   0x0(%rax,%rax,1)
 140:	f3 0f 6f 04 06       	movdqu (%rsi,%rax,1),%xmm0
 145:	66 0f 6f c8          	movdqa %xmm0,%xmm1
 149:	66 0f 61 c8          	punpcklwd %xmm0,%xmm1
 14d:	66 0f 69 c0          	punpckhwd %xmm0,%xmm0
 151:	f3 0f 7f 44 47 10    	movdqu %xmm0,0x10(%rdi,%rax,2)
 157:	f3 0f 7f 0c 47       	movdqu %xmm1,(%rdi,%rax,2)
 15c:	48 83 c0 10          	add    $0x10,%rax
 160:	48 83 c1 01          	add    $0x1,%rcx
 164:	75 da                	jne    140 <ScaleColsUp2_16_C+0x140>
 166:	4d 39 cb             	cmp    %r9,%r11
 169:	0f 84 bb 00 00 00    	je     22a <ScaleColsUp2_16_C+0x22a>
 16f:	47 8d 14 1b          	lea    (%r11,%r11,1),%r10d
 173:	4a 8d 0c 9f          	lea    (%rdi,%r11,4),%rcx
 177:	4e 8d 24 5e          	lea    (%rsi,%r11,2),%r12
 17b:	44 8d 5a ff          	lea    -0x1(%rdx),%r11d
 17f:	45 8d 72 02          	lea    0x2(%r10),%r14d
 183:	45 39 de             	cmp    %r11d,%r14d
 186:	45 0f 4c f3          	cmovl  %r11d,%r14d
 18a:	41 83 c6 ff          	add    $0xffffffff,%r14d
 18e:	45 29 d6             	sub    %r10d,%r14d
 191:	44 89 f3             	mov    %r14d,%ebx
 194:	d1 eb                	shr    %ebx
 196:	8d 6b 01             	lea    0x1(%rbx),%ebp
 199:	40 f6 c5 03          	test   $0x3,%bpl
 19d:	74 34                	je     1d3 <ScaleColsUp2_16_C+0x1d3>
 19f:	80 c3 01             	add    $0x1,%bl
 1a2:	44 0f b6 fb          	movzbl %bl,%r15d
 1a6:	41 83 e7 03          	and    $0x3,%r15d
 1aa:	31 db                	xor    %ebx,%ebx
 1ac:	31 ed                	xor    %ebp,%ebp
 1ae:	66 90                	xchg   %ax,%ax
 1b0:	41 0f b7 04 5c       	movzwl (%r12,%rbx,2),%eax
 1b5:	66 89 01             	mov    %ax,(%rcx)
 1b8:	66 89 41 02          	mov    %ax,0x2(%rcx)
 1bc:	48 83 c1 04          	add    $0x4,%rcx
 1c0:	48 83 c5 fe          	add    $0xfffffffffffffffe,%rbp
 1c4:	48 83 c3 01          	add    $0x1,%rbx
 1c8:	41 39 df             	cmp    %ebx,%r15d
 1cb:	75 e3                	jne    1b0 <ScaleColsUp2_16_C+0x1b0>
 1cd:	41 29 ea             	sub    %ebp,%r10d
 1d0:	49 29 ec             	sub    %rbp,%r12
 1d3:	41 83 fe 06          	cmp    $0x6,%r14d
 1d7:	72 51                	jb     22a <ScaleColsUp2_16_C+0x22a>
 1d9:	44 89 d5             	mov    %r10d,%ebp
 1dc:	31 db                	xor    %ebx,%ebx
 1de:	66 90                	xchg   %ax,%ax
 1e0:	41 0f b7 04 1c       	movzwl (%r12,%rbx,1),%eax
 1e5:	66 89 04 59          	mov    %ax,(%rcx,%rbx,2)
 1e9:	66 89 44 59 02       	mov    %ax,0x2(%rcx,%rbx,2)
 1ee:	41 0f b7 44 1c 02    	movzwl 0x2(%r12,%rbx,1),%eax
 1f4:	66 89 44 59 04       	mov    %ax,0x4(%rcx,%rbx,2)
 1f9:	66 89 44 59 06       	mov    %ax,0x6(%rcx,%rbx,2)
 1fe:	41 0f b7 44 1c 04    	movzwl 0x4(%r12,%rbx,1),%eax
 204:	66 89 44 59 08       	mov    %ax,0x8(%rcx,%rbx,2)
 209:	66 89 44 59 0a       	mov    %ax,0xa(%rcx,%rbx,2)
 20e:	41 0f b7 44 1c 06    	movzwl 0x6(%r12,%rbx,1),%eax
 214:	66 89 44 59 0c       	mov    %ax,0xc(%rcx,%rbx,2)
 219:	66 89 44 59 0e       	mov    %ax,0xe(%rcx,%rbx,2)
 21e:	48 83 c3 08          	add    $0x8,%rbx
 222:	8d 04 2b             	lea    (%rbx,%rbp,1),%eax
 225:	44 39 d8             	cmp    %r11d,%eax
 228:	7c b6                	jl     1e0 <ScaleColsUp2_16_C+0x1e0>
 22a:	4a 8d 34 4e          	lea    (%rsi,%r9,2),%rsi
 22e:	4a 8d 3c 47          	lea    (%rdi,%r8,2),%rdi
 232:	5b                   	pop    %rbx
 233:	41 5c                	pop    %r12
 235:	41 5e                	pop    %r14
 237:	41 5f                	pop    %r15
 239:	5d                   	pop    %rbp
 23a:	f6 c2 01             	test   $0x1,%dl
 23d:	0f 84 cb fd ff ff    	je     e <ScaleColsUp2_16_C+0xe>
 243:	0f b7 06             	movzwl (%rsi),%eax
 246:	66 89 07             	mov    %ax,(%rdi)
 249:	c3                   	retq   

Disassembly of section .text.ScaleFilterCols_C:

0000000000000000 <ScaleFilterCols_C>:
   0:	83 fa 02             	cmp    $0x2,%edx
   3:	7d 0a                	jge    f <ScaleFilterCols_C+0xf>
   5:	f6 c2 01             	test   $0x1,%dl
   8:	0f 85 b0 00 00 00    	jne    be <ScaleFilterCols_C+0xbe>
   e:	c3                   	retq   
   f:	55                   	push   %rbp
  10:	41 57                	push   %r15
  12:	41 56                	push   %r14
  14:	53                   	push   %rbx
  15:	44 8d 5a ff          	lea    -0x1(%rdx),%r11d
  19:	44 8d 4a fe          	lea    -0x2(%rdx),%r9d
  1d:	41 89 d2             	mov    %edx,%r10d
  20:	41 83 e2 fe          	and    $0xfffffffe,%r10d
  24:	45 0f af d0          	imul   %r8d,%r10d
  28:	41 83 e1 fe          	and    $0xfffffffe,%r9d
  2c:	49 83 c1 02          	add    $0x2,%r9
  30:	45 31 ff             	xor    %r15d,%r15d
  33:	89 cb                	mov    %ecx,%ebx
  35:	66 2e 0f 1f 84 00 00 	nopw   %cs:0x0(%rax,%rax,1)
  3c:	00 00 00 
  3f:	90                   	nop
  40:	89 dd                	mov    %ebx,%ebp
  42:	c1 fd 10             	sar    $0x10,%ebp
  45:	48 63 ed             	movslq %ebp,%rbp
  48:	44 0f b6 34 2e       	movzbl (%rsi,%rbp,1),%r14d
  4d:	0f b6 6c 2e 01       	movzbl 0x1(%rsi,%rbp,1),%ebp
  52:	89 d8                	mov    %ebx,%eax
  54:	c1 e8 09             	shr    $0x9,%eax
  57:	83 e0 7f             	and    $0x7f,%eax
  5a:	44 29 f5             	sub    %r14d,%ebp
  5d:	0f af e8             	imul   %eax,%ebp
  60:	83 c5 40             	add    $0x40,%ebp
  63:	c1 ed 07             	shr    $0x7,%ebp
  66:	44 00 f5             	add    %r14b,%bpl
  69:	42 88 2c 3f          	mov    %bpl,(%rdi,%r15,1)
  6d:	44 01 c3             	add    %r8d,%ebx
  70:	89 d8                	mov    %ebx,%eax
  72:	c1 f8 10             	sar    $0x10,%eax
  75:	48 98                	cltq   
  77:	44 0f b6 34 06       	movzbl (%rsi,%rax,1),%r14d
  7c:	0f b6 44 06 01       	movzbl 0x1(%rsi,%rax,1),%eax
  81:	89 dd                	mov    %ebx,%ebp
  83:	c1 ed 09             	shr    $0x9,%ebp
  86:	83 e5 7f             	and    $0x7f,%ebp
  89:	44 29 f0             	sub    %r14d,%eax
  8c:	0f af c5             	imul   %ebp,%eax
  8f:	83 c0 40             	add    $0x40,%eax
  92:	c1 e8 07             	shr    $0x7,%eax
  95:	44 00 f0             	add    %r14b,%al
  98:	42 88 44 3f 01       	mov    %al,0x1(%rdi,%r15,1)
  9d:	44 01 c3             	add    %r8d,%ebx
  a0:	49 83 c7 02          	add    $0x2,%r15
  a4:	45 39 df             	cmp    %r11d,%r15d
  a7:	7c 97                	jl     40 <ScaleFilterCols_C+0x40>
  a9:	44 01 d1             	add    %r10d,%ecx
  ac:	4c 01 cf             	add    %r9,%rdi
  af:	5b                   	pop    %rbx
  b0:	41 5e                	pop    %r14
  b2:	41 5f                	pop    %r15
  b4:	5d                   	pop    %rbp
  b5:	f6 c2 01             	test   $0x1,%dl
  b8:	0f 84 50 ff ff ff    	je     e <ScaleFilterCols_C+0xe>
  be:	89 c8                	mov    %ecx,%eax
  c0:	c1 f8 10             	sar    $0x10,%eax
  c3:	48 98                	cltq   
  c5:	0f b6 14 06          	movzbl (%rsi,%rax,1),%edx
  c9:	0f b6 44 06 01       	movzbl 0x1(%rsi,%rax,1),%eax
  ce:	c1 e9 09             	shr    $0x9,%ecx
  d1:	83 e1 7f             	and    $0x7f,%ecx
  d4:	29 d0                	sub    %edx,%eax
  d6:	0f af c1             	imul   %ecx,%eax
  d9:	83 c0 40             	add    $0x40,%eax
  dc:	c1 e8 07             	shr    $0x7,%eax
  df:	00 d0                	add    %dl,%al
  e1:	88 07                	mov    %al,(%rdi)
  e3:	c3                   	retq   

Disassembly of section .text.ScaleFilterCols64_C:

0000000000000000 <ScaleFilterCols64_C>:
   0:	48 63 c9             	movslq %ecx,%rcx
   3:	83 fa 02             	cmp    $0x2,%edx
   6:	0f 8c 98 00 00 00    	jl     a4 <ScaleFilterCols64_C+0xa4>
   c:	55                   	push   %rbp
   d:	41 56                	push   %r14
   f:	53                   	push   %rbx
  10:	44 8d 52 ff          	lea    -0x1(%rdx),%r10d
  14:	4d 63 d8             	movslq %r8d,%r11
  17:	44 8d 4a fe          	lea    -0x2(%rdx),%r9d
  1b:	41 83 e1 fe          	and    $0xfffffffe,%r9d
  1f:	49 83 c1 02          	add    $0x2,%r9
  23:	4d 89 c8             	mov    %r9,%r8
  26:	4d 0f af c3          	imul   %r11,%r8
  2a:	49 01 c8             	add    %rcx,%r8
  2d:	31 c0                	xor    %eax,%eax
  2f:	90                   	nop
  30:	48 89 cb             	mov    %rcx,%rbx
  33:	48 c1 fb 10          	sar    $0x10,%rbx
  37:	44 0f b6 34 1e       	movzbl (%rsi,%rbx,1),%r14d
  3c:	0f b6 5c 1e 01       	movzbl 0x1(%rsi,%rbx,1),%ebx
  41:	89 cd                	mov    %ecx,%ebp
  43:	c1 ed 09             	shr    $0x9,%ebp
  46:	83 e5 7f             	and    $0x7f,%ebp
  49:	44 29 f3             	sub    %r14d,%ebx
  4c:	0f af dd             	imul   %ebp,%ebx
  4f:	83 c3 40             	add    $0x40,%ebx
  52:	c1 eb 07             	shr    $0x7,%ebx
  55:	44 00 f3             	add    %r14b,%bl
  58:	88 1c 07             	mov    %bl,(%rdi,%rax,1)
  5b:	4c 01 d9             	add    %r11,%rcx
  5e:	48 89 cb             	mov    %rcx,%rbx
  61:	48 c1 fb 10          	sar    $0x10,%rbx
  65:	44 0f b6 34 1e       	movzbl (%rsi,%rbx,1),%r14d
  6a:	0f b6 5c 1e 01       	movzbl 0x1(%rsi,%rbx,1),%ebx
  6f:	89 cd                	mov    %ecx,%ebp
  71:	c1 ed 09             	shr    $0x9,%ebp
  74:	83 e5 7f             	and    $0x7f,%ebp
  77:	44 29 f3             	sub    %r14d,%ebx
  7a:	0f af dd             	imul   %ebp,%ebx
  7d:	83 c3 40             	add    $0x40,%ebx
  80:	c1 eb 07             	shr    $0x7,%ebx
  83:	44 00 f3             	add    %r14b,%bl
  86:	88 5c 07 01          	mov    %bl,0x1(%rdi,%rax,1)
  8a:	4c 01 d9             	add    %r11,%rcx
  8d:	48 83 c0 02          	add    $0x2,%rax
  91:	44 39 d0             	cmp    %r10d,%eax
  94:	7c 9a                	jl     30 <ScaleFilterCols64_C+0x30>
  96:	4c 01 cf             	add    %r9,%rdi
  99:	5b                   	pop    %rbx
  9a:	41 5e                	pop    %r14
  9c:	5d                   	pop    %rbp
  9d:	f6 c2 01             	test   $0x1,%dl
  a0:	75 0a                	jne    ac <ScaleFilterCols64_C+0xac>
  a2:	eb 30                	jmp    d4 <ScaleFilterCols64_C+0xd4>
  a4:	49 89 c8             	mov    %rcx,%r8
  a7:	f6 c2 01             	test   $0x1,%dl
  aa:	74 28                	je     d4 <ScaleFilterCols64_C+0xd4>
  ac:	4c 89 c0             	mov    %r8,%rax
  af:	48 c1 f8 10          	sar    $0x10,%rax
  b3:	0f b6 0c 06          	movzbl (%rsi,%rax,1),%ecx
  b7:	0f b6 44 06 01       	movzbl 0x1(%rsi,%rax,1),%eax
  bc:	41 c1 e8 09          	shr    $0x9,%r8d
  c0:	41 83 e0 7f          	and    $0x7f,%r8d
  c4:	29 c8                	sub    %ecx,%eax
  c6:	41 0f af c0          	imul   %r8d,%eax
  ca:	83 c0 40             	add    $0x40,%eax
  cd:	c1 e8 07             	shr    $0x7,%eax
  d0:	00 c8                	add    %cl,%al
  d2:	88 07                	mov    %al,(%rdi)
  d4:	c3                   	retq   

Disassembly of section .text.ScaleFilterCols_16_C:

0000000000000000 <ScaleFilterCols_16_C>:
   0:	83 fa 02             	cmp    $0x2,%edx
   3:	7d 0a                	jge    f <ScaleFilterCols_16_C+0xf>
   5:	f6 c2 01             	test   $0x1,%dl
   8:	0f 85 b2 00 00 00    	jne    c0 <ScaleFilterCols_16_C+0xc0>
   e:	c3                   	retq   
   f:	55                   	push   %rbp
  10:	41 57                	push   %r15
  12:	41 56                	push   %r14
  14:	53                   	push   %rbx
  15:	44 8d 5a ff          	lea    -0x1(%rdx),%r11d
  19:	44 8d 4a fe          	lea    -0x2(%rdx),%r9d
  1d:	41 89 d2             	mov    %edx,%r10d
  20:	41 83 e2 fe          	and    $0xfffffffe,%r10d
  24:	45 0f af d0          	imul   %r8d,%r10d
  28:	41 83 e1 fe          	and    $0xfffffffe,%r9d
  2c:	49 83 c1 02          	add    $0x2,%r9
  30:	31 c0                	xor    %eax,%eax
  32:	89 cb                	mov    %ecx,%ebx
  34:	66 2e 0f 1f 84 00 00 	nopw   %cs:0x0(%rax,%rax,1)
  3b:	00 00 00 
  3e:	66 90                	xchg   %ax,%ax
  40:	89 dd                	mov    %ebx,%ebp
  42:	c1 fd 10             	sar    $0x10,%ebp
  45:	48 63 ed             	movslq %ebp,%rbp
  48:	44 0f b7 34 6e       	movzwl (%rsi,%rbp,2),%r14d
  4d:	0f b7 6c 6e 02       	movzwl 0x2(%rsi,%rbp,2),%ebp
  52:	44 0f b7 fb          	movzwl %bx,%r15d
  56:	44 29 f5             	sub    %r14d,%ebp
  59:	41 0f af ef          	imul   %r15d,%ebp
  5d:	81 c5 00 80 00 00    	add    $0x8000,%ebp
  63:	c1 ed 10             	shr    $0x10,%ebp
  66:	44 01 f5             	add    %r14d,%ebp
  69:	66 89 2c 47          	mov    %bp,(%rdi,%rax,2)
  6d:	44 01 c3             	add    %r8d,%ebx
  70:	89 dd                	mov    %ebx,%ebp
  72:	c1 fd 10             	sar    $0x10,%ebp
  75:	48 63 ed             	movslq %ebp,%rbp
  78:	44 0f b7 34 6e       	movzwl (%rsi,%rbp,2),%r14d
  7d:	0f b7 6c 6e 02       	movzwl 0x2(%rsi,%rbp,2),%ebp
  82:	44 0f b7 fb          	movzwl %bx,%r15d
  86:	44 29 f5             	sub    %r14d,%ebp
  89:	41 0f af ef          	imul   %r15d,%ebp
  8d:	81 c5 00 80 00 00    	add    $0x8000,%ebp
  93:	c1 ed 10             	shr    $0x10,%ebp
  96:	44 01 f5             	add    %r14d,%ebp
  99:	66 89 6c 47 02       	mov    %bp,0x2(%rdi,%rax,2)
  9e:	44 01 c3             	add    %r8d,%ebx
  a1:	48 83 c0 02          	add    $0x2,%rax
  a5:	44 39 d8             	cmp    %r11d,%eax
  a8:	7c 96                	jl     40 <ScaleFilterCols_16_C+0x40>
  aa:	44 01 d1             	add    %r10d,%ecx
  ad:	4a 8d 3c 4f          	lea    (%rdi,%r9,2),%rdi
  b1:	5b                   	pop    %rbx
  b2:	41 5e                	pop    %r14
  b4:	41 5f                	pop    %r15
  b6:	5d                   	pop    %rbp
  b7:	f6 c2 01             	test   $0x1,%dl
  ba:	0f 84 4e ff ff ff    	je     e <ScaleFilterCols_16_C+0xe>
  c0:	89 c8                	mov    %ecx,%eax
  c2:	c1 f8 10             	sar    $0x10,%eax
  c5:	48 98                	cltq   
  c7:	0f b7 14 46          	movzwl (%rsi,%rax,2),%edx
  cb:	0f b7 44 46 02       	movzwl 0x2(%rsi,%rax,2),%eax
  d0:	0f b7 c9             	movzwl %cx,%ecx
  d3:	29 d0                	sub    %edx,%eax
  d5:	0f af c1             	imul   %ecx,%eax
  d8:	05 00 80 00 00       	add    $0x8000,%eax
  dd:	c1 e8 10             	shr    $0x10,%eax
  e0:	01 d0                	add    %edx,%eax
  e2:	66 89 07             	mov    %ax,(%rdi)
  e5:	c3                   	retq   

Disassembly of section .text.ScaleFilterCols64_16_C:

0000000000000000 <ScaleFilterCols64_16_C>:
   0:	48 63 c9             	movslq %ecx,%rcx
   3:	83 fa 02             	cmp    $0x2,%edx
   6:	0f 8c 95 00 00 00    	jl     a1 <ScaleFilterCols64_16_C+0xa1>
   c:	55                   	push   %rbp
   d:	41 56                	push   %r14
   f:	53                   	push   %rbx
  10:	44 8d 4a ff          	lea    -0x1(%rdx),%r9d
  14:	4d 63 d8             	movslq %r8d,%r11
  17:	44 8d 52 fe          	lea    -0x2(%rdx),%r10d
  1b:	41 83 e2 fe          	and    $0xfffffffe,%r10d
  1f:	49 83 c2 02          	add    $0x2,%r10
  23:	4d 89 d0             	mov    %r10,%r8
  26:	4d 0f af c3          	imul   %r11,%r8
  2a:	49 01 c8             	add    %rcx,%r8
  2d:	31 c0                	xor    %eax,%eax
  2f:	90                   	nop
  30:	48 89 cb             	mov    %rcx,%rbx
  33:	48 c1 fb 10          	sar    $0x10,%rbx
  37:	0f b7 2c 5e          	movzwl (%rsi,%rbx,2),%ebp
  3b:	0f b7 5c 5e 02       	movzwl 0x2(%rsi,%rbx,2),%ebx
  40:	44 0f b7 f1          	movzwl %cx,%r14d
  44:	29 eb                	sub    %ebp,%ebx
  46:	41 0f af de          	imul   %r14d,%ebx
  4a:	81 c3 00 80 00 00    	add    $0x8000,%ebx
  50:	c1 eb 10             	shr    $0x10,%ebx
  53:	01 eb                	add    %ebp,%ebx
  55:	66 89 1c 47          	mov    %bx,(%rdi,%rax,2)
  59:	4c 01 d9             	add    %r11,%rcx
  5c:	48 89 cb             	mov    %rcx,%rbx
  5f:	48 c1 fb 10          	sar    $0x10,%rbx
  63:	0f b7 2c 5e          	movzwl (%rsi,%rbx,2),%ebp
  67:	0f b7 5c 5e 02       	movzwl 0x2(%rsi,%rbx,2),%ebx
  6c:	44 0f b7 f1          	movzwl %cx,%r14d
  70:	29 eb                	sub    %ebp,%ebx
  72:	41 0f af de          	imul   %r14d,%ebx
  76:	81 c3 00 80 00 00    	add    $0x8000,%ebx
  7c:	c1 eb 10             	shr    $0x10,%ebx
  7f:	01 eb                	add    %ebp,%ebx
  81:	66 89 5c 47 02       	mov    %bx,0x2(%rdi,%rax,2)
  86:	4c 01 d9             	add    %r11,%rcx
  89:	48 83 c0 02          	add    $0x2,%rax
  8d:	44 39 c8             	cmp    %r9d,%eax
  90:	7c 9e                	jl     30 <ScaleFilterCols64_16_C+0x30>
  92:	4a 8d 3c 57          	lea    (%rdi,%r10,2),%rdi
  96:	5b                   	pop    %rbx
  97:	41 5e                	pop    %r14
  99:	5d                   	pop    %rbp
  9a:	f6 c2 01             	test   $0x1,%dl
  9d:	75 0a                	jne    a9 <ScaleFilterCols64_16_C+0xa9>
  9f:	eb 2e                	jmp    cf <ScaleFilterCols64_16_C+0xcf>
  a1:	49 89 c8             	mov    %rcx,%r8
  a4:	f6 c2 01             	test   $0x1,%dl
  a7:	74 26                	je     cf <ScaleFilterCols64_16_C+0xcf>
  a9:	4c 89 c0             	mov    %r8,%rax
  ac:	48 c1 f8 10          	sar    $0x10,%rax
  b0:	0f b7 0c 46          	movzwl (%rsi,%rax,2),%ecx
  b4:	0f b7 44 46 02       	movzwl 0x2(%rsi,%rax,2),%eax
  b9:	41 0f b7 d0          	movzwl %r8w,%edx
  bd:	29 c8                	sub    %ecx,%eax
  bf:	0f af c2             	imul   %edx,%eax
  c2:	05 00 80 00 00       	add    $0x8000,%eax
  c7:	c1 e8 10             	shr    $0x10,%eax
  ca:	01 c8                	add    %ecx,%eax
  cc:	66 89 07             	mov    %ax,(%rdi)
  cf:	c3                   	retq   

Disassembly of section .text.ScaleRowDown38_C:

0000000000000000 <ScaleRowDown38_C>:
   0:	85 c9                	test   %ecx,%ecx
   2:	7e 2e                	jle    32 <ScaleRowDown38_C+0x32>
   4:	31 f6                	xor    %esi,%esi
   6:	66 2e 0f 1f 84 00 00 	nopw   %cs:0x0(%rax,%rax,1)
   d:	00 00 00 
  10:	0f b6 07             	movzbl (%rdi),%eax
  13:	88 04 32             	mov    %al,(%rdx,%rsi,1)
  16:	0f b6 47 03          	movzbl 0x3(%rdi),%eax
  1a:	88 44 32 01          	mov    %al,0x1(%rdx,%rsi,1)
  1e:	0f b6 47 06          	movzbl 0x6(%rdi),%eax
  22:	88 44 32 02          	mov    %al,0x2(%rdx,%rsi,1)
  26:	48 83 c6 03          	add    $0x3,%rsi
  2a:	48 83 c7 08          	add    $0x8,%rdi
  2e:	39 ce                	cmp    %ecx,%esi
  30:	7c de                	jl     10 <ScaleRowDown38_C+0x10>
  32:	c3                   	retq   

Disassembly of section .text.ScaleRowDown38_16_C:

0000000000000000 <ScaleRowDown38_16_C>:
   0:	85 c9                	test   %ecx,%ecx
   2:	7e 31                	jle    35 <ScaleRowDown38_16_C+0x35>
   4:	31 c0                	xor    %eax,%eax
   6:	66 2e 0f 1f 84 00 00 	nopw   %cs:0x0(%rax,%rax,1)
   d:	00 00 00 
  10:	0f b7 37             	movzwl (%rdi),%esi
  13:	66 89 34 42          	mov    %si,(%rdx,%rax,2)
  17:	0f b7 77 06          	movzwl 0x6(%rdi),%esi
  1b:	66 89 74 42 02       	mov    %si,0x2(%rdx,%rax,2)
  20:	0f b7 77 0c          	movzwl 0xc(%rdi),%esi
  24:	66 89 74 42 04       	mov    %si,0x4(%rdx,%rax,2)
  29:	48 83 c0 03          	add    $0x3,%rax
  2d:	48 83 c7 10          	add    $0x10,%rdi
  31:	39 c8                	cmp    %ecx,%eax
  33:	7c db                	jl     10 <ScaleRowDown38_16_C+0x10>
  35:	c3                   	retq   

Disassembly of section .text.ScaleRowDown38_3_Box_C:

0000000000000000 <ScaleRowDown38_3_Box_C>:
   0:	85 c9                	test   %ecx,%ecx
   2:	0f 8e 0e 01 00 00    	jle    116 <ScaleRowDown38_3_Box_C+0x116>
   8:	4c 8d 04 36          	lea    (%rsi,%rsi,1),%r8
   c:	49 83 c0 01          	add    $0x1,%r8
  10:	48 83 c7 07          	add    $0x7,%rdi
  14:	49 83 c0 ff          	add    $0xffffffffffffffff,%r8
  18:	45 31 d2             	xor    %r10d,%r10d
  1b:	0f 1f 44 00 00       	nopl   0x0(%rax,%rax,1)
  20:	44 0f b6 4f f9       	movzbl -0x7(%rdi),%r9d
  25:	0f b6 47 fa          	movzbl -0x6(%rdi),%eax
  29:	44 01 c8             	add    %r9d,%eax
  2c:	44 0f b6 4f fb       	movzbl -0x5(%rdi),%r9d
  31:	41 01 c1             	add    %eax,%r9d
  34:	0f b6 44 37 f9       	movzbl -0x7(%rdi,%rsi,1),%eax
  39:	44 01 c8             	add    %r9d,%eax
  3c:	44 0f b6 4c 37 fa    	movzbl -0x6(%rdi,%rsi,1),%r9d
  42:	41 01 c1             	add    %eax,%r9d
  45:	0f b6 44 37 fb       	movzbl -0x5(%rdi,%rsi,1),%eax
  4a:	44 01 c8             	add    %r9d,%eax
  4d:	46 0f b6 4c 07 f9    	movzbl -0x7(%rdi,%r8,1),%r9d
  53:	41 01 c1             	add    %eax,%r9d
  56:	46 0f b6 5c 07 fa    	movzbl -0x6(%rdi,%r8,1),%r11d
  5c:	45 01 cb             	add    %r9d,%r11d
  5f:	42 0f b6 44 07 fb    	movzbl -0x5(%rdi,%r8,1),%eax
  65:	44 01 d8             	add    %r11d,%eax
  68:	69 c0 71 1c 00 00    	imul   $0x1c71,%eax,%eax
  6e:	c1 e8 10             	shr    $0x10,%eax
  71:	42 88 04 12          	mov    %al,(%rdx,%r10,1)
  75:	44 0f b6 4f fc       	movzbl -0x4(%rdi),%r9d
  7a:	0f b6 47 fd          	movzbl -0x3(%rdi),%eax
  7e:	44 01 c8             	add    %r9d,%eax
  81:	44 0f b6 4f fe       	movzbl -0x2(%rdi),%r9d
  86:	41 01 c1             	add    %eax,%r9d
  89:	0f b6 44 37 fc       	movzbl -0x4(%rdi,%rsi,1),%eax
  8e:	44 01 c8             	add    %r9d,%eax
  91:	44 0f b6 4c 37 fd    	movzbl -0x3(%rdi,%rsi,1),%r9d
  97:	41 01 c1             	add    %eax,%r9d
  9a:	0f b6 44 37 fe       	movzbl -0x2(%rdi,%rsi,1),%eax
  9f:	44 01 c8             	add    %r9d,%eax
  a2:	46 0f b6 4c 07 fc    	movzbl -0x4(%rdi,%r8,1),%r9d
  a8:	41 01 c1             	add    %eax,%r9d
  ab:	46 0f b6 5c 07 fd    	movzbl -0x3(%rdi,%r8,1),%r11d
  b1:	45 01 cb             	add    %r9d,%r11d
  b4:	42 0f b6 44 07 fe    	movzbl -0x2(%rdi,%r8,1),%eax
  ba:	44 01 d8             	add    %r11d,%eax
  bd:	69 c0 71 1c 00 00    	imul   $0x1c71,%eax,%eax
  c3:	c1 e8 10             	shr    $0x10,%eax
  c6:	42 88 44 12 01       	mov    %al,0x1(%rdx,%r10,1)
  cb:	44 0f b6 4f ff       	movzbl -0x1(%rdi),%r9d
  d0:	0f b6 07             	movzbl (%rdi),%eax
  d3:	44 01 c8             	add    %r9d,%eax
  d6:	44 0f b6 4c 37 ff    	movzbl -0x1(%rdi,%rsi,1),%r9d
  dc:	41 01 c1             	add    %eax,%r9d
  df:	0f b6 04 37          	movzbl (%rdi,%rsi,1),%eax
  e3:	44 01 c8             	add    %r9d,%eax
  e6:	46 0f b6 4c 07 ff    	movzbl -0x1(%rdi,%r8,1),%r9d
  ec:	41 01 c1             	add    %eax,%r9d
  ef:	42 0f b6 04 07       	movzbl (%rdi,%r8,1),%eax
  f4:	44 01 c8             	add    %r9d,%eax
  f7:	69 c0 aa 2a 00 00    	imul   $0x2aaa,%eax,%eax
  fd:	c1 e8 10             	shr    $0x10,%eax
 100:	42 88 44 12 02       	mov    %al,0x2(%rdx,%r10,1)
 105:	49 83 c2 03          	add    $0x3,%r10
 109:	48 83 c7 08          	add    $0x8,%rdi
 10d:	41 39 ca             	cmp    %ecx,%r10d
 110:	0f 8c 0a ff ff ff    	jl     20 <ScaleRowDown38_3_Box_C+0x20>
 116:	c3                   	retq   

Disassembly of section .text.ScaleRowDown38_3_Box_16_C:

0000000000000000 <ScaleRowDown38_3_Box_16_C>:
   0:	85 c9                	test   %ecx,%ecx
   2:	0f 8e fe 00 00 00    	jle    106 <ScaleRowDown38_3_Box_16_C+0x106>
   8:	48 83 c7 0e          	add    $0xe,%rdi
   c:	45 31 c9             	xor    %r9d,%r9d
   f:	90                   	nop
  10:	44 0f b7 47 f2       	movzwl -0xe(%rdi),%r8d
  15:	0f b7 47 f4          	movzwl -0xc(%rdi),%eax
  19:	44 01 c0             	add    %r8d,%eax
  1c:	44 0f b7 47 f6       	movzwl -0xa(%rdi),%r8d
  21:	41 01 c0             	add    %eax,%r8d
  24:	0f b7 44 77 f2       	movzwl -0xe(%rdi,%rsi,2),%eax
  29:	44 01 c0             	add    %r8d,%eax
  2c:	44 0f b7 44 77 f4    	movzwl -0xc(%rdi,%rsi,2),%r8d
  32:	41 01 c0             	add    %eax,%r8d
  35:	0f b7 44 77 f6       	movzwl -0xa(%rdi,%rsi,2),%eax
  3a:	44 01 c0             	add    %r8d,%eax
  3d:	44 0f b7 44 b7 f2    	movzwl -0xe(%rdi,%rsi,4),%r8d
  43:	41 01 c0             	add    %eax,%r8d
  46:	44 0f b7 54 b7 f4    	movzwl -0xc(%rdi,%rsi,4),%r10d
  4c:	45 01 c2             	add    %r8d,%r10d
  4f:	0f b7 44 b7 f6       	movzwl -0xa(%rdi,%rsi,4),%eax
  54:	44 01 d0             	add    %r10d,%eax
  57:	69 c0 71 1c 00 00    	imul   $0x1c71,%eax,%eax
  5d:	c1 e8 10             	shr    $0x10,%eax
  60:	66 42 89 04 4a       	mov    %ax,(%rdx,%r9,2)
  65:	44 0f b7 47 f8       	movzwl -0x8(%rdi),%r8d
  6a:	0f b7 47 fa          	movzwl -0x6(%rdi),%eax
  6e:	44 01 c0             	add    %r8d,%eax
  71:	44 0f b7 47 fc       	movzwl -0x4(%rdi),%r8d
  76:	41 01 c0             	add    %eax,%r8d
  79:	0f b7 44 77 f8       	movzwl -0x8(%rdi,%rsi,2),%eax
  7e:	44 01 c0             	add    %r8d,%eax
  81:	44 0f b7 44 77 fa    	movzwl -0x6(%rdi,%rsi,2),%r8d
  87:	41 01 c0             	add    %eax,%r8d
  8a:	0f b7 44 77 fc       	movzwl -0x4(%rdi,%rsi,2),%eax
  8f:	44 01 c0             	add    %r8d,%eax
  92:	44 0f b7 44 b7 f8    	movzwl -0x8(%rdi,%rsi,4),%r8d
  98:	41 01 c0             	add    %eax,%r8d
  9b:	44 0f b7 54 b7 fa    	movzwl -0x6(%rdi,%rsi,4),%r10d
  a1:	45 01 c2             	add    %r8d,%r10d
  a4:	0f b7 44 b7 fc       	movzwl -0x4(%rdi,%rsi,4),%eax
  a9:	44 01 d0             	add    %r10d,%eax
  ac:	69 c0 71 1c 00 00    	imul   $0x1c71,%eax,%eax
  b2:	c1 e8 10             	shr    $0x10,%eax
  b5:	66 42 89 44 4a 02    	mov    %ax,0x2(%rdx,%r9,2)
  bb:	44 0f b7 47 fe       	movzwl -0x2(%rdi),%r8d
  c0:	0f b7 07             	movzwl (%rdi),%eax
  c3:	44 01 c0             	add    %r8d,%eax
  c6:	44 0f b7 44 77 fe    	movzwl -0x2(%rdi,%rsi,2),%r8d
  cc:	41 01 c0             	add    %eax,%r8d
  cf:	0f b7 04 77          	movzwl (%rdi,%rsi,2),%eax
  d3:	44 01 c0             	add    %r8d,%eax
  d6:	44 0f b7 44 b7 fe    	movzwl -0x2(%rdi,%rsi,4),%r8d
  dc:	41 01 c0             	add    %eax,%r8d
  df:	0f b7 04 b7          	movzwl (%rdi,%rsi,4),%eax
  e3:	44 01 c0             	add    %r8d,%eax
  e6:	69 c0 aa 2a 00 00    	imul   $0x2aaa,%eax,%eax
  ec:	c1 e8 10             	shr    $0x10,%eax
  ef:	66 42 89 44 4a 04    	mov    %ax,0x4(%rdx,%r9,2)
  f5:	49 83 c1 03          	add    $0x3,%r9
  f9:	48 83 c7 10          	add    $0x10,%rdi
  fd:	41 39 c9             	cmp    %ecx,%r9d
 100:	0f 8c 0a ff ff ff    	jl     10 <ScaleRowDown38_3_Box_16_C+0x10>
 106:	c3                   	retq   

Disassembly of section .text.ScaleRowDown38_2_Box_C:

0000000000000000 <ScaleRowDown38_2_Box_C>:
   0:	85 c9                	test   %ecx,%ecx
   2:	0f 8e b1 00 00 00    	jle    b9 <ScaleRowDown38_2_Box_C+0xb9>
   8:	48 83 c7 07          	add    $0x7,%rdi
   c:	45 31 c9             	xor    %r9d,%r9d
   f:	90                   	nop
  10:	44 0f b6 47 f9       	movzbl -0x7(%rdi),%r8d
  15:	0f b6 47 fa          	movzbl -0x6(%rdi),%eax
  19:	44 01 c0             	add    %r8d,%eax
  1c:	44 0f b6 47 fb       	movzbl -0x5(%rdi),%r8d
  21:	41 01 c0             	add    %eax,%r8d
  24:	0f b6 44 37 f9       	movzbl -0x7(%rdi,%rsi,1),%eax
  29:	44 01 c0             	add    %r8d,%eax
  2c:	44 0f b6 44 37 fa    	movzbl -0x6(%rdi,%rsi,1),%r8d
  32:	41 01 c0             	add    %eax,%r8d
  35:	0f b6 44 37 fb       	movzbl -0x5(%rdi,%rsi,1),%eax
  3a:	44 01 c0             	add    %r8d,%eax
  3d:	69 c0 aa 2a 00 00    	imul   $0x2aaa,%eax,%eax
  43:	c1 e8 10             	shr    $0x10,%eax
  46:	42 88 04 0a          	mov    %al,(%rdx,%r9,1)
  4a:	44 0f b6 47 fc       	movzbl -0x4(%rdi),%r8d
  4f:	0f b6 47 fd          	movzbl -0x3(%rdi),%eax
  53:	44 01 c0             	add    %r8d,%eax
  56:	44 0f b6 47 fe       	movzbl -0x2(%rdi),%r8d
  5b:	41 01 c0             	add    %eax,%r8d
  5e:	0f b6 44 37 fc       	movzbl -0x4(%rdi,%rsi,1),%eax
  63:	44 01 c0             	add    %r8d,%eax
  66:	44 0f b6 44 37 fd    	movzbl -0x3(%rdi,%rsi,1),%r8d
  6c:	41 01 c0             	add    %eax,%r8d
  6f:	0f b6 44 37 fe       	movzbl -0x2(%rdi,%rsi,1),%eax
  74:	44 01 c0             	add    %r8d,%eax
  77:	69 c0 aa 2a 00 00    	imul   $0x2aaa,%eax,%eax
  7d:	c1 e8 10             	shr    $0x10,%eax
  80:	42 88 44 0a 01       	mov    %al,0x1(%rdx,%r9,1)
  85:	44 0f b6 47 ff       	movzbl -0x1(%rdi),%r8d
  8a:	0f b6 07             	movzbl (%rdi),%eax
  8d:	44 01 c0             	add    %r8d,%eax
  90:	44 0f b6 44 37 ff    	movzbl -0x1(%rdi,%rsi,1),%r8d
  96:	41 01 c0             	add    %eax,%r8d
  99:	0f b6 04 37          	movzbl (%rdi,%rsi,1),%eax
  9d:	44 01 c0             	add    %r8d,%eax
  a0:	c1 e8 02             	shr    $0x2,%eax
  a3:	42 88 44 0a 02       	mov    %al,0x2(%rdx,%r9,1)
  a8:	49 83 c1 03          	add    $0x3,%r9
  ac:	48 83 c7 08          	add    $0x8,%rdi
  b0:	41 39 c9             	cmp    %ecx,%r9d
  b3:	0f 8c 57 ff ff ff    	jl     10 <ScaleRowDown38_2_Box_C+0x10>
  b9:	c3                   	retq   

Disassembly of section .text.ScaleRowDown38_2_Box_16_C:

0000000000000000 <ScaleRowDown38_2_Box_16_C>:
   0:	85 c9                	test   %ecx,%ecx
   2:	0f 8e b4 00 00 00    	jle    bc <ScaleRowDown38_2_Box_16_C+0xbc>
   8:	48 83 c7 0e          	add    $0xe,%rdi
   c:	45 31 c9             	xor    %r9d,%r9d
   f:	90                   	nop
  10:	44 0f b7 47 f2       	movzwl -0xe(%rdi),%r8d
  15:	0f b7 47 f4          	movzwl -0xc(%rdi),%eax
  19:	44 01 c0             	add    %r8d,%eax
  1c:	44 0f b7 47 f6       	movzwl -0xa(%rdi),%r8d
  21:	41 01 c0             	add    %eax,%r8d
  24:	0f b7 44 77 f2       	movzwl -0xe(%rdi,%rsi,2),%eax
  29:	44 01 c0             	add    %r8d,%eax
  2c:	44 0f b7 44 77 f4    	movzwl -0xc(%rdi,%rsi,2),%r8d
  32:	41 01 c0             	add    %eax,%r8d
  35:	0f b7 44 77 f6       	movzwl -0xa(%rdi,%rsi,2),%eax
  3a:	44 01 c0             	add    %r8d,%eax
  3d:	69 c0 aa 2a 00 00    	imul   $0x2aaa,%eax,%eax
  43:	c1 e8 10             	shr    $0x10,%eax
  46:	66 42 89 04 4a       	mov    %ax,(%rdx,%r9,2)
  4b:	44 0f b7 47 f8       	movzwl -0x8(%rdi),%r8d
  50:	0f b7 47 fa          	movzwl -0x6(%rdi),%eax
  54:	44 01 c0             	add    %r8d,%eax
  57:	44 0f b7 47 fc       	movzwl -0x4(%rdi),%r8d
  5c:	41 01 c0             	add    %eax,%r8d
  5f:	0f b7 44 77 f8       	movzwl -0x8(%rdi,%rsi,2),%eax
  64:	44 01 c0             	add    %r8d,%eax
  67:	44 0f b7 44 77 fa    	movzwl -0x6(%rdi,%rsi,2),%r8d
  6d:	41 01 c0             	add    %eax,%r8d
  70:	0f b7 44 77 fc       	movzwl -0x4(%rdi,%rsi,2),%eax
  75:	44 01 c0             	add    %r8d,%eax
  78:	69 c0 aa 2a 00 00    	imul   $0x2aaa,%eax,%eax
  7e:	c1 e8 10             	shr    $0x10,%eax
  81:	66 42 89 44 4a 02    	mov    %ax,0x2(%rdx,%r9,2)
  87:	44 0f b7 47 fe       	movzwl -0x2(%rdi),%r8d
  8c:	0f b7 07             	movzwl (%rdi),%eax
  8f:	44 01 c0             	add    %r8d,%eax
  92:	44 0f b7 44 77 fe    	movzwl -0x2(%rdi,%rsi,2),%r8d
  98:	41 01 c0             	add    %eax,%r8d
  9b:	0f b7 04 77          	movzwl (%rdi,%rsi,2),%eax
  9f:	44 01 c0             	add    %r8d,%eax
  a2:	c1 e8 02             	shr    $0x2,%eax
  a5:	66 42 89 44 4a 04    	mov    %ax,0x4(%rdx,%r9,2)
  ab:	49 83 c1 03          	add    $0x3,%r9
  af:	48 83 c7 10          	add    $0x10,%rdi
  b3:	41 39 c9             	cmp    %ecx,%r9d
  b6:	0f 8c 54 ff ff ff    	jl     10 <ScaleRowDown38_2_Box_16_C+0x10>
  bc:	c3                   	retq   

Disassembly of section .text.ScaleAddRow_C:

0000000000000000 <ScaleAddRow_C>:
   0:	83 fa 02             	cmp    $0x2,%edx
   3:	7d 0a                	jge    f <ScaleAddRow_C+0xf>
   5:	f6 c2 01             	test   $0x1,%dl
   8:	0f 85 8a 00 00 00    	jne    98 <ScaleAddRow_C+0x98>
   e:	c3                   	retq   
   f:	53                   	push   %rbx
  10:	44 8d 5a fe          	lea    -0x2(%rdx),%r11d
  14:	45 89 d8             	mov    %r11d,%r8d
  17:	41 83 e0 fe          	and    $0xfffffffe,%r8d
  1b:	41 d1 eb             	shr    %r11d
  1e:	45 8d 4b 01          	lea    0x1(%r11),%r9d
  22:	41 83 e1 01          	and    $0x1,%r9d
  26:	48 89 fb             	mov    %rdi,%rbx
  29:	48 89 f1             	mov    %rsi,%rcx
  2c:	45 85 db             	test   %r11d,%r11d
  2f:	74 3b                	je     6c <ScaleAddRow_C+0x6c>
  31:	45 8d 51 ff          	lea    -0x1(%r9),%r10d
  35:	45 29 da             	sub    %r11d,%r10d
  38:	48 89 fb             	mov    %rdi,%rbx
  3b:	48 89 f1             	mov    %rsi,%rcx
  3e:	66 90                	xchg   %ax,%ax
  40:	0f b6 03             	movzbl (%rbx),%eax
  43:	66 01 01             	add    %ax,(%rcx)
  46:	0f b6 43 01          	movzbl 0x1(%rbx),%eax
  4a:	66 01 41 02          	add    %ax,0x2(%rcx)
  4e:	0f b6 43 02          	movzbl 0x2(%rbx),%eax
  52:	66 01 41 04          	add    %ax,0x4(%rcx)
  56:	0f b6 43 03          	movzbl 0x3(%rbx),%eax
  5a:	66 01 41 06          	add    %ax,0x6(%rcx)
  5e:	48 83 c3 04          	add    $0x4,%rbx
  62:	48 83 c1 08          	add    $0x8,%rcx
  66:	41 83 c2 02          	add    $0x2,%r10d
  6a:	75 d4                	jne    40 <ScaleAddRow_C+0x40>
  6c:	4d 8d 50 02          	lea    0x2(%r8),%r10
  70:	45 85 c9             	test   %r9d,%r9d
  73:	74 0e                	je     83 <ScaleAddRow_C+0x83>
  75:	0f b6 03             	movzbl (%rbx),%eax
  78:	66 01 01             	add    %ax,(%rcx)
  7b:	0f b6 43 01          	movzbl 0x1(%rbx),%eax
  7f:	66 01 41 02          	add    %ax,0x2(%rcx)
  83:	4c 01 c7             	add    %r8,%rdi
  86:	48 83 c7 02          	add    $0x2,%rdi
  8a:	4a 8d 34 56          	lea    (%rsi,%r10,2),%rsi
  8e:	5b                   	pop    %rbx
  8f:	f6 c2 01             	test   $0x1,%dl
  92:	0f 84 76 ff ff ff    	je     e <ScaleAddRow_C+0xe>
  98:	0f b6 07             	movzbl (%rdi),%eax
  9b:	66 01 06             	add    %ax,(%rsi)
  9e:	c3                   	retq   

Disassembly of section .text.ScaleAddRow_16_C:

0000000000000000 <ScaleAddRow_16_C>:
   0:	83 fa 02             	cmp    $0x2,%edx
   3:	7d 0a                	jge    f <ScaleAddRow_16_C+0xf>
   5:	f6 c2 01             	test   $0x1,%dl
   8:	0f 85 85 00 00 00    	jne    93 <ScaleAddRow_16_C+0x93>
   e:	c3                   	retq   
   f:	53                   	push   %rbx
  10:	44 8d 5a fe          	lea    -0x2(%rdx),%r11d
  14:	45 89 d8             	mov    %r11d,%r8d
  17:	41 83 e0 fe          	and    $0xfffffffe,%r8d
  1b:	41 d1 eb             	shr    %r11d
  1e:	45 8d 4b 01          	lea    0x1(%r11),%r9d
  22:	41 83 e1 01          	and    $0x1,%r9d
  26:	48 89 fb             	mov    %rdi,%rbx
  29:	48 89 f1             	mov    %rsi,%rcx
  2c:	45 85 db             	test   %r11d,%r11d
  2f:	74 37                	je     68 <ScaleAddRow_16_C+0x68>
  31:	45 8d 51 ff          	lea    -0x1(%r9),%r10d
  35:	45 29 da             	sub    %r11d,%r10d
  38:	48 89 fb             	mov    %rdi,%rbx
  3b:	48 89 f1             	mov    %rsi,%rcx
  3e:	66 90                	xchg   %ax,%ax
  40:	0f b7 03             	movzwl (%rbx),%eax
  43:	01 01                	add    %eax,(%rcx)
  45:	0f b7 43 02          	movzwl 0x2(%rbx),%eax
  49:	01 41 04             	add    %eax,0x4(%rcx)
  4c:	0f b7 43 04          	movzwl 0x4(%rbx),%eax
  50:	01 41 08             	add    %eax,0x8(%rcx)
  53:	0f b7 43 06          	movzwl 0x6(%rbx),%eax
  57:	01 41 0c             	add    %eax,0xc(%rcx)
  5a:	48 83 c3 08          	add    $0x8,%rbx
  5e:	48 83 c1 10          	add    $0x10,%rcx
  62:	41 83 c2 02          	add    $0x2,%r10d
  66:	75 d8                	jne    40 <ScaleAddRow_16_C+0x40>
  68:	4d 8d 50 02          	lea    0x2(%r8),%r10
  6c:	45 85 c9             	test   %r9d,%r9d
  6f:	74 0c                	je     7d <ScaleAddRow_16_C+0x7d>
  71:	0f b7 03             	movzwl (%rbx),%eax
  74:	01 01                	add    %eax,(%rcx)
  76:	0f b7 43 02          	movzwl 0x2(%rbx),%eax
  7a:	01 41 04             	add    %eax,0x4(%rcx)
  7d:	4a 8d 3c 47          	lea    (%rdi,%r8,2),%rdi
  81:	48 83 c7 04          	add    $0x4,%rdi
  85:	4a 8d 34 96          	lea    (%rsi,%r10,4),%rsi
  89:	5b                   	pop    %rbx
  8a:	f6 c2 01             	test   $0x1,%dl
  8d:	0f 84 7b ff ff ff    	je     e <ScaleAddRow_16_C+0xe>
  93:	0f b7 07             	movzwl (%rdi),%eax
  96:	01 06                	add    %eax,(%rsi)
  98:	c3                   	retq   

Disassembly of section .text.ScaleARGBRowDown2_C:

0000000000000000 <ScaleARGBRowDown2_C>:
   0:	83 f9 02             	cmp    $0x2,%ecx
   3:	7d 0a                	jge    f <ScaleARGBRowDown2_C+0xf>
   5:	f6 c1 01             	test   $0x1,%cl
   8:	0f 85 d9 00 00 00    	jne    e7 <ScaleARGBRowDown2_C+0xe7>
   e:	c3                   	retq   
   f:	41 56                	push   %r14
  11:	53                   	push   %rbx
  12:	8d 41 fe             	lea    -0x2(%rcx),%eax
  15:	41 89 c0             	mov    %eax,%r8d
  18:	41 d1 e8             	shr    %r8d
  1b:	4d 89 c1             	mov    %r8,%r9
  1e:	49 c1 e1 04          	shl    $0x4,%r9
  22:	45 8d 50 01          	lea    0x1(%r8),%r10d
  26:	41 83 e2 03          	and    $0x3,%r10d
  2a:	83 f8 06             	cmp    $0x6,%eax
  2d:	73 08                	jae    37 <ScaleARGBRowDown2_C+0x37>
  2f:	49 89 d6             	mov    %rdx,%r14
  32:	48 89 fe             	mov    %rdi,%rsi
  35:	eb 5e                	jmp    95 <ScaleARGBRowDown2_C+0x95>
  37:	45 8d 5a ff          	lea    -0x1(%r10),%r11d
  3b:	45 29 c3             	sub    %r8d,%r11d
  3e:	49 89 d6             	mov    %rdx,%r14
  41:	48 89 fe             	mov    %rdi,%rsi
  44:	66 2e 0f 1f 84 00 00 	nopw   %cs:0x0(%rax,%rax,1)
  4b:	00 00 00 
  4e:	66 90                	xchg   %ax,%ax
  50:	8b 46 04             	mov    0x4(%rsi),%eax
  53:	41 89 06             	mov    %eax,(%r14)
  56:	8b 46 0c             	mov    0xc(%rsi),%eax
  59:	41 89 46 04          	mov    %eax,0x4(%r14)
  5d:	8b 46 14             	mov    0x14(%rsi),%eax
  60:	41 89 46 08          	mov    %eax,0x8(%r14)
  64:	8b 46 1c             	mov    0x1c(%rsi),%eax
  67:	41 89 46 0c          	mov    %eax,0xc(%r14)
  6b:	8b 46 24             	mov    0x24(%rsi),%eax
  6e:	41 89 46 10          	mov    %eax,0x10(%r14)
  72:	8b 46 2c             	mov    0x2c(%rsi),%eax
  75:	41 89 46 14          	mov    %eax,0x14(%r14)
  79:	8b 46 34             	mov    0x34(%rsi),%eax
  7c:	41 89 46 18          	mov    %eax,0x18(%r14)
  80:	8b 46 3c             	mov    0x3c(%rsi),%eax
  83:	41 89 46 1c          	mov    %eax,0x1c(%r14)
  87:	48 83 c6 40          	add    $0x40,%rsi
  8b:	49 83 c6 20          	add    $0x20,%r14
  8f:	41 83 c3 04          	add    $0x4,%r11d
  93:	75 bb                	jne    50 <ScaleARGBRowDown2_C+0x50>
  95:	4c 01 cf             	add    %r9,%rdi
  98:	48 83 c7 10          	add    $0x10,%rdi
  9c:	4a 8d 14 c2          	lea    (%rdx,%r8,8),%rdx
  a0:	48 83 c2 08          	add    $0x8,%rdx
  a4:	45 85 d2             	test   %r10d,%r10d
  a7:	74 32                	je     db <ScaleARGBRowDown2_C+0xdb>
  a9:	48 83 c6 0c          	add    $0xc,%rsi
  ad:	41 80 c0 01          	add    $0x1,%r8b
  b1:	45 0f b6 c0          	movzbl %r8b,%r8d
  b5:	41 83 e0 03          	and    $0x3,%r8d
  b9:	31 c0                	xor    %eax,%eax
  bb:	0f 1f 44 00 00       	nopl   0x0(%rax,%rax,1)
  c0:	8b 5e f8             	mov    -0x8(%rsi),%ebx
  c3:	41 89 1c c6          	mov    %ebx,(%r14,%rax,8)
  c7:	8b 1e                	mov    (%rsi),%ebx
  c9:	41 89 5c c6 04       	mov    %ebx,0x4(%r14,%rax,8)
  ce:	48 83 c0 01          	add    $0x1,%rax
  d2:	48 83 c6 10          	add    $0x10,%rsi
  d6:	41 39 c0             	cmp    %eax,%r8d
  d9:	75 e5                	jne    c0 <ScaleARGBRowDown2_C+0xc0>
  db:	5b                   	pop    %rbx
  dc:	41 5e                	pop    %r14
  de:	f6 c1 01             	test   $0x1,%cl
  e1:	0f 84 27 ff ff ff    	je     e <ScaleARGBRowDown2_C+0xe>
  e7:	8b 47 04             	mov    0x4(%rdi),%eax
  ea:	89 02                	mov    %eax,(%rdx)
  ec:	c3                   	retq   

Disassembly of section .text.ScaleARGBRowDown2Linear_C:

0000000000000000 <ScaleARGBRowDown2Linear_C>:
   0:	85 c9                	test   %ecx,%ecx
   2:	7e 6b                	jle    6f <ScaleARGBRowDown2Linear_C+0x6f>
   4:	41 89 c8             	mov    %ecx,%r8d
   7:	31 c9                	xor    %ecx,%ecx
   9:	0f 1f 80 00 00 00 00 	nopl   0x0(%rax)
  10:	0f b6 34 cf          	movzbl (%rdi,%rcx,8),%esi
  14:	0f b6 44 cf 04       	movzbl 0x4(%rdi,%rcx,8),%eax
  19:	8d 04 06             	lea    (%rsi,%rax,1),%eax
  1c:	83 c0 01             	add    $0x1,%eax
  1f:	d1 e8                	shr    %eax
  21:	88 04 8a             	mov    %al,(%rdx,%rcx,4)
  24:	0f b6 44 cf 01       	movzbl 0x1(%rdi,%rcx,8),%eax
  29:	0f b6 74 cf 05       	movzbl 0x5(%rdi,%rcx,8),%esi
  2e:	8d 04 30             	lea    (%rax,%rsi,1),%eax
  31:	83 c0 01             	add    $0x1,%eax
  34:	d1 e8                	shr    %eax
  36:	88 44 8a 01          	mov    %al,0x1(%rdx,%rcx,4)
  3a:	0f b6 44 cf 02       	movzbl 0x2(%rdi,%rcx,8),%eax
  3f:	0f b6 74 cf 06       	movzbl 0x6(%rdi,%rcx,8),%esi
  44:	8d 04 30             	lea    (%rax,%rsi,1),%eax
  47:	83 c0 01             	add    $0x1,%eax
  4a:	d1 e8                	shr    %eax
  4c:	88 44 8a 02          	mov    %al,0x2(%rdx,%rcx,4)
  50:	0f b6 44 cf 03       	movzbl 0x3(%rdi,%rcx,8),%eax
  55:	0f b6 74 cf 07       	movzbl 0x7(%rdi,%rcx,8),%esi
  5a:	8d 04 30             	lea    (%rax,%rsi,1),%eax
  5d:	83 c0 01             	add    $0x1,%eax
  60:	d1 e8                	shr    %eax
  62:	88 44 8a 03          	mov    %al,0x3(%rdx,%rcx,4)
  66:	48 83 c1 01          	add    $0x1,%rcx
  6a:	41 39 c8             	cmp    %ecx,%r8d
  6d:	75 a1                	jne    10 <ScaleARGBRowDown2Linear_C+0x10>
  6f:	c3                   	retq   

Disassembly of section .text.ScaleARGBRowDown2Box_C:

0000000000000000 <ScaleARGBRowDown2Box_C>:
   0:	85 c9                	test   %ecx,%ecx
   2:	0f 8e c0 00 00 00    	jle    c8 <ScaleARGBRowDown2Box_C+0xc8>
   8:	41 89 c8             	mov    %ecx,%r8d
   b:	4c 8d 14 37          	lea    (%rdi,%rsi,1),%r10
   f:	49 83 c2 07          	add    $0x7,%r10
  13:	48 83 c7 07          	add    $0x7,%rdi
  17:	31 f6                	xor    %esi,%esi
  19:	0f 1f 80 00 00 00 00 	nopl   0x0(%rax)
  20:	44 0f b6 4c f7 f9    	movzbl -0x7(%rdi,%rsi,8),%r9d
  26:	0f b6 44 f7 fd       	movzbl -0x3(%rdi,%rsi,8),%eax
  2b:	44 01 c8             	add    %r9d,%eax
  2e:	41 0f b6 4c f2 f9    	movzbl -0x7(%r10,%rsi,8),%ecx
  34:	01 c1                	add    %eax,%ecx
  36:	41 0f b6 44 f2 fd    	movzbl -0x3(%r10,%rsi,8),%eax
  3c:	8d 04 08             	lea    (%rax,%rcx,1),%eax
  3f:	83 c0 02             	add    $0x2,%eax
  42:	c1 e8 02             	shr    $0x2,%eax
  45:	88 04 b2             	mov    %al,(%rdx,%rsi,4)
  48:	0f b6 44 f7 fa       	movzbl -0x6(%rdi,%rsi,8),%eax
  4d:	0f b6 4c f7 fe       	movzbl -0x2(%rdi,%rsi,8),%ecx
  52:	01 c1                	add    %eax,%ecx
  54:	41 0f b6 44 f2 fa    	movzbl -0x6(%r10,%rsi,8),%eax
  5a:	01 c8                	add    %ecx,%eax
  5c:	41 0f b6 4c f2 fe    	movzbl -0x2(%r10,%rsi,8),%ecx
  62:	8d 04 01             	lea    (%rcx,%rax,1),%eax
  65:	83 c0 02             	add    $0x2,%eax
  68:	c1 e8 02             	shr    $0x2,%eax
  6b:	88 44 b2 01          	mov    %al,0x1(%rdx,%rsi,4)
  6f:	0f b6 44 f7 fb       	movzbl -0x5(%rdi,%rsi,8),%eax
  74:	0f b6 4c f7 ff       	movzbl -0x1(%rdi,%rsi,8),%ecx
  79:	01 c1                	add    %eax,%ecx
  7b:	41 0f b6 44 f2 fb    	movzbl -0x5(%r10,%rsi,8),%eax
  81:	01 c8                	add    %ecx,%eax
  83:	41 0f b6 4c f2 ff    	movzbl -0x1(%r10,%rsi,8),%ecx
  89:	8d 04 01             	lea    (%rcx,%rax,1),%eax
  8c:	83 c0 02             	add    $0x2,%eax
  8f:	c1 e8 02             	shr    $0x2,%eax
  92:	88 44 b2 02          	mov    %al,0x2(%rdx,%rsi,4)
  96:	0f b6 44 f7 fc       	movzbl -0x4(%rdi,%rsi,8),%eax
  9b:	0f b6 0c f7          	movzbl (%rdi,%rsi,8),%ecx
  9f:	01 c1                	add    %eax,%ecx
  a1:	41 0f b6 44 f2 fc    	movzbl -0x4(%r10,%rsi,8),%eax
  a7:	01 c8                	add    %ecx,%eax
  a9:	41 0f b6 0c f2       	movzbl (%r10,%rsi,8),%ecx
  ae:	8d 04 01             	lea    (%rcx,%rax,1),%eax
  b1:	83 c0 02             	add    $0x2,%eax
  b4:	c1 e8 02             	shr    $0x2,%eax
  b7:	88 44 b2 03          	mov    %al,0x3(%rdx,%rsi,4)
  bb:	48 83 c6 01          	add    $0x1,%rsi
  bf:	41 39 f0             	cmp    %esi,%r8d
  c2:	0f 85 58 ff ff ff    	jne    20 <ScaleARGBRowDown2Box_C+0x20>
  c8:	c3                   	retq   

Disassembly of section .text.ScaleARGBRowDownEven_C:

0000000000000000 <ScaleARGBRowDownEven_C>:
   0:	41 83 f8 02          	cmp    $0x2,%r8d
   4:	7d 0b                	jge    11 <ScaleARGBRowDownEven_C+0x11>
   6:	41 f6 c0 01          	test   $0x1,%r8b
   a:	0f 85 6c 01 00 00    	jne    17c <ScaleARGBRowDownEven_C+0x17c>
  10:	c3                   	retq   
  11:	55                   	push   %rbp
  12:	41 57                	push   %r15
  14:	41 56                	push   %r14
  16:	41 55                	push   %r13
  18:	41 54                	push   %r12
  1a:	53                   	push   %rbx
  1b:	4c 63 f2             	movslq %edx,%r14
  1e:	43 8d 04 36          	lea    (%r14,%r14,1),%eax
  22:	4c 63 d0             	movslq %eax,%r10
  25:	41 8d 40 fe          	lea    -0x2(%r8),%eax
  29:	89 c5                	mov    %eax,%ebp
  2b:	d1 ed                	shr    %ebp
  2d:	48 8d 14 ad 04 00 00 	lea    0x4(,%rbp,4),%rdx
  34:	00 
  35:	49 0f af d2          	imul   %r10,%rdx
  39:	8d 75 01             	lea    0x1(%rbp),%esi
  3c:	83 e6 03             	and    $0x3,%esi
  3f:	83 f8 06             	cmp    $0x6,%eax
  42:	48 89 74 24 f8       	mov    %rsi,-0x8(%rsp)
  47:	73 0b                	jae    54 <ScaleARGBRowDownEven_C+0x54>
  49:	48 89 ce             	mov    %rcx,%rsi
  4c:	48 89 f8             	mov    %rdi,%rax
  4f:	e9 d1 00 00 00       	jmpq   125 <ScaleARGBRowDownEven_C+0x125>
  54:	48 89 54 24 c0       	mov    %rdx,-0x40(%rsp)
  59:	4c 89 44 24 e0       	mov    %r8,-0x20(%rsp)
  5e:	4e 8d 24 b5 00 00 00 	lea    0x0(,%r14,4),%r12
  65:	00 
  66:	4d 89 d5             	mov    %r10,%r13
  69:	49 c1 e5 04          	shl    $0x4,%r13
  6d:	4a 8d 1c 95 00 00 00 	lea    0x0(,%r10,4),%rbx
  74:	00 
  75:	48 8d 14 5b          	lea    (%rbx,%rbx,2),%rdx
  79:	48 89 f8             	mov    %rdi,%rax
  7c:	4e 8d 0c b2          	lea    (%rdx,%r14,4),%r9
  80:	4e 8d 1c d5 00 00 00 	lea    0x0(,%r10,8),%r11
  87:	00 
  88:	4c 89 54 24 d0       	mov    %r10,-0x30(%rsp)
  8d:	4c 89 d7             	mov    %r10,%rdi
  90:	4f 8d 14 d4          	lea    (%r12,%r10,8),%r10
  94:	4c 89 74 24 d8       	mov    %r14,-0x28(%rsp)
  99:	4e 8d 3c b3          	lea    (%rbx,%r14,4),%r15
  9d:	44 8d 76 ff          	lea    -0x1(%rsi),%r14d
  a1:	48 89 6c 24 c8       	mov    %rbp,-0x38(%rsp)
  a6:	41 29 ee             	sub    %ebp,%r14d
  a9:	48 89 44 24 e8       	mov    %rax,-0x18(%rsp)
  ae:	48 89 4c 24 f0       	mov    %rcx,-0x10(%rsp)
  b3:	48 89 ce             	mov    %rcx,%rsi
  b6:	66 2e 0f 1f 84 00 00 	nopw   %cs:0x0(%rax,%rax,1)
  bd:	00 00 00 
  c0:	44 8b 00             	mov    (%rax),%r8d
  c3:	44 89 06             	mov    %r8d,(%rsi)
  c6:	42 8b 2c 20          	mov    (%rax,%r12,1),%ebp
  ca:	89 6e 04             	mov    %ebp,0x4(%rsi)
  cd:	8b 2c 18             	mov    (%rax,%rbx,1),%ebp
  d0:	89 6e 08             	mov    %ebp,0x8(%rsi)
  d3:	42 8b 2c 38          	mov    (%rax,%r15,1),%ebp
  d7:	89 6e 0c             	mov    %ebp,0xc(%rsi)
  da:	42 8b 2c 18          	mov    (%rax,%r11,1),%ebp
  de:	89 6e 10             	mov    %ebp,0x10(%rsi)
  e1:	42 8b 2c 10          	mov    (%rax,%r10,1),%ebp
  e5:	89 6e 14             	mov    %ebp,0x14(%rsi)
  e8:	8b 2c 10             	mov    (%rax,%rdx,1),%ebp
  eb:	89 6e 18             	mov    %ebp,0x18(%rsi)
  ee:	42 8b 2c 08          	mov    (%rax,%r9,1),%ebp
  f2:	89 6e 1c             	mov    %ebp,0x1c(%rsi)
  f5:	48 83 c6 20          	add    $0x20,%rsi
  f9:	4c 01 e8             	add    %r13,%rax
  fc:	41 83 c6 04          	add    $0x4,%r14d
 100:	75 be                	jne    c0 <ScaleARGBRowDownEven_C+0xc0>
 102:	48 8b 4c 24 f0       	mov    -0x10(%rsp),%rcx
 107:	48 8b 7c 24 e8       	mov    -0x18(%rsp),%rdi
 10c:	4c 8b 44 24 e0       	mov    -0x20(%rsp),%r8
 111:	4c 8b 74 24 d8       	mov    -0x28(%rsp),%r14
 116:	4c 8b 54 24 d0       	mov    -0x30(%rsp),%r10
 11b:	48 8b 6c 24 c8       	mov    -0x38(%rsp),%rbp
 120:	48 8b 54 24 c0       	mov    -0x40(%rsp),%rdx
 125:	48 01 d7             	add    %rdx,%rdi
 128:	48 8d 0c e9          	lea    (%rcx,%rbp,8),%rcx
 12c:	48 83 c1 08          	add    $0x8,%rcx
 130:	83 7c 24 f8 00       	cmpl   $0x0,-0x8(%rsp)
 135:	74 31                	je     168 <ScaleARGBRowDownEven_C+0x168>
 137:	49 c1 e2 02          	shl    $0x2,%r10
 13b:	40 80 c5 01          	add    $0x1,%bpl
 13f:	40 0f b6 ed          	movzbl %bpl,%ebp
 143:	83 e5 03             	and    $0x3,%ebp
 146:	31 d2                	xor    %edx,%edx
 148:	0f 1f 84 00 00 00 00 	nopl   0x0(%rax,%rax,1)
 14f:	00 
 150:	8b 18                	mov    (%rax),%ebx
 152:	89 1c d6             	mov    %ebx,(%rsi,%rdx,8)
 155:	42 8b 1c b0          	mov    (%rax,%r14,4),%ebx
 159:	89 5c d6 04          	mov    %ebx,0x4(%rsi,%rdx,8)
 15d:	48 83 c2 01          	add    $0x1,%rdx
 161:	4c 01 d0             	add    %r10,%rax
 164:	39 d5                	cmp    %edx,%ebp
 166:	75 e8                	jne    150 <ScaleARGBRowDownEven_C+0x150>
 168:	5b                   	pop    %rbx
 169:	41 5c                	pop    %r12
 16b:	41 5d                	pop    %r13
 16d:	41 5e                	pop    %r14
 16f:	41 5f                	pop    %r15
 171:	5d                   	pop    %rbp
 172:	41 f6 c0 01          	test   $0x1,%r8b
 176:	0f 84 94 fe ff ff    	je     10 <ScaleARGBRowDownEven_C+0x10>
 17c:	8b 07                	mov    (%rdi),%eax
 17e:	89 01                	mov    %eax,(%rcx)
 180:	c3                   	retq   

Disassembly of section .text.ScaleARGBRowDownEvenBox_C:

0000000000000000 <ScaleARGBRowDownEvenBox_C>:
   0:	45 85 c0             	test   %r8d,%r8d
   3:	0f 8e b6 00 00 00    	jle    bf <ScaleARGBRowDownEvenBox_C+0xbf>
   9:	c1 e2 02             	shl    $0x2,%edx
   c:	4c 63 ca             	movslq %edx,%r9
   f:	45 89 c0             	mov    %r8d,%r8d
  12:	48 83 c7 07          	add    $0x7,%rdi
  16:	45 31 db             	xor    %r11d,%r11d
  19:	0f 1f 80 00 00 00 00 	nopl   0x0(%rax)
  20:	44 0f b6 57 f9       	movzbl -0x7(%rdi),%r10d
  25:	0f b6 57 fd          	movzbl -0x3(%rdi),%edx
  29:	44 01 d2             	add    %r10d,%edx
  2c:	0f b6 44 37 f9       	movzbl -0x7(%rdi,%rsi,1),%eax
  31:	01 d0                	add    %edx,%eax
  33:	0f b6 54 37 fd       	movzbl -0x3(%rdi,%rsi,1),%edx
  38:	8d 04 02             	lea    (%rdx,%rax,1),%eax
  3b:	83 c0 02             	add    $0x2,%eax
  3e:	c1 e8 02             	shr    $0x2,%eax
  41:	42 88 04 99          	mov    %al,(%rcx,%r11,4)
  45:	0f b6 47 fa          	movzbl -0x6(%rdi),%eax
  49:	0f b6 57 fe          	movzbl -0x2(%rdi),%edx
  4d:	01 c2                	add    %eax,%edx
  4f:	0f b6 44 37 fa       	movzbl -0x6(%rdi,%rsi,1),%eax
  54:	01 d0                	add    %edx,%eax
  56:	0f b6 54 37 fe       	movzbl -0x2(%rdi,%rsi,1),%edx
  5b:	8d 04 02             	lea    (%rdx,%rax,1),%eax
  5e:	83 c0 02             	add    $0x2,%eax
  61:	c1 e8 02             	shr    $0x2,%eax
  64:	42 88 44 99 01       	mov    %al,0x1(%rcx,%r11,4)
  69:	0f b6 47 fb          	movzbl -0x5(%rdi),%eax
  6d:	0f b6 57 ff          	movzbl -0x1(%rdi),%edx
  71:	01 c2                	add    %eax,%edx
  73:	0f b6 44 37 fb       	movzbl -0x5(%rdi,%rsi,1),%eax
  78:	01 d0                	add    %edx,%eax
  7a:	0f b6 54 37 ff       	movzbl -0x1(%rdi,%rsi,1),%edx
  7f:	8d 04 02             	lea    (%rdx,%rax,1),%eax
  82:	83 c0 02             	add    $0x2,%eax
  85:	c1 e8 02             	shr    $0x2,%eax
  88:	42 88 44 99 02       	mov    %al,0x2(%rcx,%r11,4)
  8d:	0f b6 47 fc          	movzbl -0x4(%rdi),%eax
  91:	0f b6 17             	movzbl (%rdi),%edx
  94:	01 c2                	add    %eax,%edx
  96:	0f b6 44 37 fc       	movzbl -0x4(%rdi,%rsi,1),%eax
  9b:	01 d0                	add    %edx,%eax
  9d:	0f b6 14 37          	movzbl (%rdi,%rsi,1),%edx
  a1:	8d 04 02             	lea    (%rdx,%rax,1),%eax
  a4:	83 c0 02             	add    $0x2,%eax
  a7:	c1 e8 02             	shr    $0x2,%eax
  aa:	42 88 44 99 03       	mov    %al,0x3(%rcx,%r11,4)
  af:	49 83 c3 01          	add    $0x1,%r11
  b3:	4c 01 cf             	add    %r9,%rdi
  b6:	45 39 d8             	cmp    %r11d,%r8d
  b9:	0f 85 61 ff ff ff    	jne    20 <ScaleARGBRowDownEvenBox_C+0x20>
  bf:	c3                   	retq   

Disassembly of section .text.ScaleARGBCols_C:

0000000000000000 <ScaleARGBCols_C>:
   0:	83 fa 02             	cmp    $0x2,%edx
   3:	7d 0a                	jge    f <ScaleARGBCols_C+0xf>
   5:	f6 c2 01             	test   $0x1,%dl
   8:	0f 85 e7 00 00 00    	jne    f5 <ScaleARGBCols_C+0xf5>
   e:	c3                   	retq   
   f:	55                   	push   %rbp
  10:	41 57                	push   %r15
  12:	41 56                	push   %r14
  14:	41 55                	push   %r13
  16:	41 54                	push   %r12
  18:	53                   	push   %rbx
  19:	44 8d 5a fe          	lea    -0x2(%rdx),%r11d
  1d:	41 89 d1             	mov    %edx,%r9d
  20:	41 83 e1 fe          	and    $0xfffffffe,%r9d
  24:	41 d1 eb             	shr    %r11d
  27:	45 8d 53 01          	lea    0x1(%r11),%r10d
  2b:	41 83 e2 01          	and    $0x1,%r10d
  2f:	45 85 db             	test   %r11d,%r11d
  32:	74 76                	je     aa <ScaleARGBCols_C+0xaa>
  34:	47 8d 34 40          	lea    (%r8,%r8,2),%r14d
  38:	47 8d 3c 00          	lea    (%r8,%r8,1),%r15d
  3c:	45 8d 62 ff          	lea    -0x1(%r10),%r12d
  40:	45 29 dc             	sub    %r11d,%r12d
  43:	49 89 fd             	mov    %rdi,%r13
  46:	89 cb                	mov    %ecx,%ebx
  48:	0f 1f 84 00 00 00 00 	nopl   0x0(%rax,%rax,1)
  4f:	00 
  50:	89 dd                	mov    %ebx,%ebp
  52:	c1 fd 10             	sar    $0x10,%ebp
  55:	48 63 ed             	movslq %ebp,%rbp
  58:	8b 2c ae             	mov    (%rsi,%rbp,4),%ebp
  5b:	41 89 6d 00          	mov    %ebp,0x0(%r13)
  5f:	42 8d 04 03          	lea    (%rbx,%r8,1),%eax
  63:	89 c5                	mov    %eax,%ebp
  65:	c1 fd 10             	sar    $0x10,%ebp
  68:	48 63 ed             	movslq %ebp,%rbp
  6b:	8b 2c ae             	mov    (%rsi,%rbp,4),%ebp
  6e:	41 89 6d 04          	mov    %ebp,0x4(%r13)
  72:	44 01 c0             	add    %r8d,%eax
  75:	41 8d 2c 1f          	lea    (%r15,%rbx,1),%ebp
  79:	c1 fd 10             	sar    $0x10,%ebp
  7c:	48 63 ed             	movslq %ebp,%rbp
  7f:	8b 2c ae             	mov    (%rsi,%rbp,4),%ebp
  82:	41 89 6d 08          	mov    %ebp,0x8(%r13)
  86:	44 01 c0             	add    %r8d,%eax
  89:	44 01 f3             	add    %r14d,%ebx
  8c:	c1 fb 10             	sar    $0x10,%ebx
  8f:	48 63 db             	movslq %ebx,%rbx
  92:	8b 1c 9e             	mov    (%rsi,%rbx,4),%ebx
  95:	41 89 5d 0c          	mov    %ebx,0xc(%r13)
  99:	89 c3                	mov    %eax,%ebx
  9b:	44 01 c3             	add    %r8d,%ebx
  9e:	49 83 c5 10          	add    $0x10,%r13
  a2:	41 83 c4 02          	add    $0x2,%r12d
  a6:	75 a8                	jne    50 <ScaleARGBCols_C+0x50>
  a8:	eb 05                	jmp    af <ScaleARGBCols_C+0xaf>
  aa:	49 89 fd             	mov    %rdi,%r13
  ad:	89 cb                	mov    %ecx,%ebx
  af:	45 0f af c8          	imul   %r8d,%r9d
  b3:	4a 8d 3c df          	lea    (%rdi,%r11,8),%rdi
  b7:	48 83 c7 08          	add    $0x8,%rdi
  bb:	45 85 d2             	test   %r10d,%r10d
  be:	74 1f                	je     df <ScaleARGBCols_C+0xdf>
  c0:	89 d8                	mov    %ebx,%eax
  c2:	c1 f8 10             	sar    $0x10,%eax
  c5:	48 98                	cltq   
  c7:	8b 04 86             	mov    (%rsi,%rax,4),%eax
  ca:	41 89 45 00          	mov    %eax,0x0(%r13)
  ce:	41 01 d8             	add    %ebx,%r8d
  d1:	41 c1 f8 10          	sar    $0x10,%r8d
  d5:	49 63 c0             	movslq %r8d,%rax
  d8:	8b 04 86             	mov    (%rsi,%rax,4),%eax
  db:	41 89 45 04          	mov    %eax,0x4(%r13)
  df:	44 01 c9             	add    %r9d,%ecx
  e2:	5b                   	pop    %rbx
  e3:	41 5c                	pop    %r12
  e5:	41 5d                	pop    %r13
  e7:	41 5e                	pop    %r14
  e9:	41 5f                	pop    %r15
  eb:	5d                   	pop    %rbp
  ec:	f6 c2 01             	test   $0x1,%dl
  ef:	0f 84 19 ff ff ff    	je     e <ScaleARGBCols_C+0xe>
  f5:	c1 f9 10             	sar    $0x10,%ecx
  f8:	48 63 c1             	movslq %ecx,%rax
  fb:	8b 04 86             	mov    (%rsi,%rax,4),%eax
  fe:	89 07                	mov    %eax,(%rdi)
 100:	c3                   	retq   

Disassembly of section .text.ScaleARGBCols64_C:

0000000000000000 <ScaleARGBCols64_C>:
   0:	4c 63 c9             	movslq %ecx,%r9
   3:	83 fa 02             	cmp    $0x2,%edx
   6:	7d 0a                	jge    12 <ScaleARGBCols64_C+0x12>
   8:	f6 c2 01             	test   $0x1,%dl
   b:	0f 85 ef 00 00 00    	jne    100 <ScaleARGBCols64_C+0x100>
  11:	c3                   	retq   
  12:	55                   	push   %rbp
  13:	41 57                	push   %r15
  15:	41 56                	push   %r14
  17:	41 55                	push   %r13
  19:	41 54                	push   %r12
  1b:	53                   	push   %rbx
  1c:	4d 63 e0             	movslq %r8d,%r12
  1f:	44 8d 5a fe          	lea    -0x2(%rdx),%r11d
  23:	45 89 d8             	mov    %r11d,%r8d
  26:	41 d1 e8             	shr    %r8d
  29:	41 83 e3 fe          	and    $0xfffffffe,%r11d
  2d:	49 83 c3 02          	add    $0x2,%r11
  31:	41 8d 40 01          	lea    0x1(%r8),%eax
  35:	83 e0 01             	and    $0x1,%eax
  38:	45 85 c0             	test   %r8d,%r8d
  3b:	0f 84 79 00 00 00    	je     ba <ScaleARGBCols64_C+0xba>
  41:	4f 8d 34 64          	lea    (%r12,%r12,2),%r14
  45:	4f 8d 3c 24          	lea    (%r12,%r12,1),%r15
  49:	48 89 44 24 f0       	mov    %rax,-0x10(%rsp)
  4e:	44 8d 68 ff          	lea    -0x1(%rax),%r13d
  52:	45 29 c5             	sub    %r8d,%r13d
  55:	48 89 7c 24 f8       	mov    %rdi,-0x8(%rsp)
  5a:	48 89 f9             	mov    %rdi,%rcx
  5d:	4c 89 cd             	mov    %r9,%rbp
  60:	48 89 eb             	mov    %rbp,%rbx
  63:	48 c1 fb 10          	sar    $0x10,%rbx
  67:	8b 1c 9e             	mov    (%rsi,%rbx,4),%ebx
  6a:	89 19                	mov    %ebx,(%rcx)
  6c:	4d 8d 14 2c          	lea    (%r12,%rbp,1),%r10
  70:	4c 89 d3             	mov    %r10,%rbx
  73:	48 c1 fb 10          	sar    $0x10,%rbx
  77:	8b 1c 9e             	mov    (%rsi,%rbx,4),%ebx
  7a:	89 59 04             	mov    %ebx,0x4(%rcx)
  7d:	4d 01 e2             	add    %r12,%r10
  80:	49 8d 1c 2f          	lea    (%r15,%rbp,1),%rbx
  84:	48 c1 fb 10          	sar    $0x10,%rbx
  88:	8b 1c 9e             	mov    (%rsi,%rbx,4),%ebx
  8b:	89 59 08             	mov    %ebx,0x8(%rcx)
  8e:	4d 01 e2             	add    %r12,%r10
  91:	4c 01 f5             	add    %r14,%rbp
  94:	48 c1 fd 10          	sar    $0x10,%rbp
  98:	8b 04 ae             	mov    (%rsi,%rbp,4),%eax
  9b:	89 41 0c             	mov    %eax,0xc(%rcx)
  9e:	4c 89 d5             	mov    %r10,%rbp
  a1:	4c 01 e5             	add    %r12,%rbp
  a4:	48 83 c1 10          	add    $0x10,%rcx
  a8:	41 83 c5 02          	add    $0x2,%r13d
  ac:	75 b2                	jne    60 <ScaleARGBCols64_C+0x60>
  ae:	48 8b 7c 24 f8       	mov    -0x8(%rsp),%rdi
  b3:	48 8b 44 24 f0       	mov    -0x10(%rsp),%rax
  b8:	eb 06                	jmp    c0 <ScaleARGBCols64_C+0xc0>
  ba:	48 89 f9             	mov    %rdi,%rcx
  bd:	4c 89 cd             	mov    %r9,%rbp
  c0:	4d 0f af dc          	imul   %r12,%r11
  c4:	4a 8d 3c c7          	lea    (%rdi,%r8,8),%rdi
  c8:	48 83 c7 08          	add    $0x8,%rdi
  cc:	85 c0                	test   %eax,%eax
  ce:	74 1a                	je     ea <ScaleARGBCols64_C+0xea>
  d0:	48 89 e8             	mov    %rbp,%rax
  d3:	48 c1 f8 10          	sar    $0x10,%rax
  d7:	8b 04 86             	mov    (%rsi,%rax,4),%eax
  da:	89 01                	mov    %eax,(%rcx)
  dc:	49 01 ec             	add    %rbp,%r12
  df:	49 c1 fc 10          	sar    $0x10,%r12
  e3:	42 8b 04 a6          	mov    (%rsi,%r12,4),%eax
  e7:	89 41 04             	mov    %eax,0x4(%rcx)
  ea:	4d 01 d9             	add    %r11,%r9
  ed:	5b                   	pop    %rbx
  ee:	41 5c                	pop    %r12
  f0:	41 5d                	pop    %r13
  f2:	41 5e                	pop    %r14
  f4:	41 5f                	pop    %r15
  f6:	5d                   	pop    %rbp
  f7:	f6 c2 01             	test   $0x1,%dl
  fa:	0f 84 11 ff ff ff    	je     11 <ScaleARGBCols64_C+0x11>
 100:	49 c1 f9 10          	sar    $0x10,%r9
 104:	42 8b 04 8e          	mov    (%rsi,%r9,4),%eax
 108:	89 07                	mov    %eax,(%rdi)
 10a:	c3                   	retq   

Disassembly of section .text.ScaleARGBColsUp2_C:

0000000000000000 <ScaleARGBColsUp2_C>:
   0:	83 fa 02             	cmp    $0x2,%edx
   3:	0f 8c ad 00 00 00    	jl     b6 <ScaleARGBColsUp2_C+0xb6>
   9:	8d 42 fe             	lea    -0x2(%rdx),%eax
   c:	41 89 c0             	mov    %eax,%r8d
   f:	41 d1 e8             	shr    %r8d
  12:	45 8d 48 01          	lea    0x1(%r8),%r9d
  16:	41 83 e1 03          	and    $0x3,%r9d
  1a:	83 f8 06             	cmp    $0x6,%eax
  1d:	73 08                	jae    27 <ScaleARGBColsUp2_C+0x27>
  1f:	48 89 f8             	mov    %rdi,%rax
  22:	49 89 f3             	mov    %rsi,%r11
  25:	eb 4d                	jmp    74 <ScaleARGBColsUp2_C+0x74>
  27:	45 8d 51 ff          	lea    -0x1(%r9),%r10d
  2b:	45 29 c2             	sub    %r8d,%r10d
  2e:	48 89 f8             	mov    %rdi,%rax
  31:	49 89 f3             	mov    %rsi,%r11
  34:	66 2e 0f 1f 84 00 00 	nopw   %cs:0x0(%rax,%rax,1)
  3b:	00 00 00 
  3e:	66 90                	xchg   %ax,%ax
  40:	41 8b 0b             	mov    (%r11),%ecx
  43:	89 08                	mov    %ecx,(%rax)
  45:	89 48 04             	mov    %ecx,0x4(%rax)
  48:	41 8b 4b 04          	mov    0x4(%r11),%ecx
  4c:	89 48 08             	mov    %ecx,0x8(%rax)
  4f:	89 48 0c             	mov    %ecx,0xc(%rax)
  52:	41 8b 4b 08          	mov    0x8(%r11),%ecx
  56:	89 48 10             	mov    %ecx,0x10(%rax)
  59:	89 48 14             	mov    %ecx,0x14(%rax)
  5c:	41 8b 4b 0c          	mov    0xc(%r11),%ecx
  60:	89 48 18             	mov    %ecx,0x18(%rax)
  63:	89 48 1c             	mov    %ecx,0x1c(%rax)
  66:	49 83 c3 10          	add    $0x10,%r11
  6a:	48 83 c0 20          	add    $0x20,%rax
  6e:	41 83 c2 04          	add    $0x4,%r10d
  72:	75 cc                	jne    40 <ScaleARGBColsUp2_C+0x40>
  74:	4a 8d 34 86          	lea    (%rsi,%r8,4),%rsi
  78:	48 83 c6 04          	add    $0x4,%rsi
  7c:	4a 8d 3c c7          	lea    (%rdi,%r8,8),%rdi
  80:	48 83 c7 08          	add    $0x8,%rdi
  84:	45 85 c9             	test   %r9d,%r9d
  87:	74 2d                	je     b6 <ScaleARGBColsUp2_C+0xb6>
  89:	41 80 c0 01          	add    $0x1,%r8b
  8d:	45 0f b6 c0          	movzbl %r8b,%r8d
  91:	41 83 e0 03          	and    $0x3,%r8d
  95:	31 c9                	xor    %ecx,%ecx
  97:	66 0f 1f 84 00 00 00 	nopw   0x0(%rax,%rax,1)
  9e:	00 00 
  a0:	45 8b 0c 8b          	mov    (%r11,%rcx,4),%r9d
  a4:	44 89 0c c8          	mov    %r9d,(%rax,%rcx,8)
  a8:	44 89 4c c8 04       	mov    %r9d,0x4(%rax,%rcx,8)
  ad:	48 83 c1 01          	add    $0x1,%rcx
  b1:	41 39 c8             	cmp    %ecx,%r8d
  b4:	75 ea                	jne    a0 <ScaleARGBColsUp2_C+0xa0>
  b6:	f6 c2 01             	test   $0x1,%dl
  b9:	74 04                	je     bf <ScaleARGBColsUp2_C+0xbf>
  bb:	8b 06                	mov    (%rsi),%eax
  bd:	89 07                	mov    %eax,(%rdi)
  bf:	c3                   	retq   

Disassembly of section .text.ScaleARGBFilterCols_C:

0000000000000000 <ScaleARGBFilterCols_C>:
   0:	55                   	push   %rbp
   1:	41 57                	push   %r15
   3:	41 56                	push   %r14
   5:	41 55                	push   %r13
   7:	41 54                	push   %r12
   9:	53                   	push   %rbx
   a:	83 fa 02             	cmp    $0x2,%edx
   d:	0f 8c 99 01 00 00    	jl     1ac <ScaleARGBFilterCols_C+0x1ac>
  13:	8d 42 ff             	lea    -0x1(%rdx),%eax
  16:	89 44 24 ec          	mov    %eax,-0x14(%rsp)
  1a:	8d 42 fe             	lea    -0x2(%rdx),%eax
  1d:	48 89 54 24 f8       	mov    %rdx,-0x8(%rsp)
  22:	83 e2 fe             	and    $0xfffffffe,%edx
  25:	41 0f af d0          	imul   %r8d,%edx
  29:	89 54 24 e4          	mov    %edx,-0x1c(%rsp)
  2d:	d1 e8                	shr    %eax
  2f:	48 8d 04 c7          	lea    (%rdi,%rax,8),%rax
  33:	48 83 c0 08          	add    $0x8,%rax
  37:	48 89 44 24 f0       	mov    %rax,-0x10(%rsp)
  3c:	45 31 f6             	xor    %r14d,%r14d
  3f:	89 4c 24 e8          	mov    %ecx,-0x18(%rsp)
  43:	41 89 cb             	mov    %ecx,%r11d
  46:	66 2e 0f 1f 84 00 00 	nopw   %cs:0x0(%rax,%rax,1)
  4d:	00 00 00 
  50:	44 89 d8             	mov    %r11d,%eax
  53:	c1 f8 10             	sar    $0x10,%eax
  56:	44 89 dd             	mov    %r11d,%ebp
  59:	c1 ed 09             	shr    $0x9,%ebp
  5c:	83 e5 7f             	and    $0x7f,%ebp
  5f:	48 98                	cltq   
  61:	8b 0c 86             	mov    (%rsi,%rax,4),%ecx
  64:	8b 44 86 04          	mov    0x4(%rsi,%rax,4),%eax
  68:	41 89 cc             	mov    %ecx,%r12d
  6b:	0f b6 dd             	movzbl %ch,%ebx
  6e:	44 0f b6 d1          	movzbl %cl,%r10d
  72:	41 89 c9             	mov    %ecx,%r9d
  75:	41 c1 e9 18          	shr    $0x18,%r9d
  79:	89 c2                	mov    %eax,%edx
  7b:	0f b6 cc             	movzbl %ah,%ecx
  7e:	44 0f b6 f8          	movzbl %al,%r15d
  82:	41 89 c5             	mov    %eax,%r13d
  85:	41 c1 ed 18          	shr    $0x18,%r13d
  89:	44 0f af ed          	imul   %ebp,%r13d
  8d:	c1 ea 10             	shr    $0x10,%edx
  90:	0f b6 d2             	movzbl %dl,%edx
  93:	0f af d5             	imul   %ebp,%edx
  96:	0f af cd             	imul   %ebp,%ecx
  99:	44 0f af fd          	imul   %ebp,%r15d
  9d:	83 f5 7f             	xor    $0x7f,%ebp
  a0:	44 0f af cd          	imul   %ebp,%r9d
  a4:	45 01 cd             	add    %r9d,%r13d
  a7:	41 83 e5 80          	and    $0xffffff80,%r13d
  ab:	41 c1 e5 11          	shl    $0x11,%r13d
  af:	41 c1 ec 10          	shr    $0x10,%r12d
  b3:	41 0f b6 c4          	movzbl %r12b,%eax
  b7:	0f af c5             	imul   %ebp,%eax
  ba:	01 c2                	add    %eax,%edx
  bc:	c1 e2 09             	shl    $0x9,%edx
  bf:	81 e2 00 00 ff 01    	and    $0x1ff0000,%edx
  c5:	0f af dd             	imul   %ebp,%ebx
  c8:	01 d9                	add    %ebx,%ecx
  ca:	01 c9                	add    %ecx,%ecx
  cc:	81 e1 00 ff 01 00    	and    $0x1ff00,%ecx
  d2:	44 0f af d5          	imul   %ebp,%r10d
  d6:	45 01 d7             	add    %r10d,%r15d
  d9:	41 c1 ef 07          	shr    $0x7,%r15d
  dd:	45 09 ef             	or     %r13d,%r15d
  e0:	41 09 d7             	or     %edx,%r15d
  e3:	41 09 cf             	or     %ecx,%r15d
  e6:	46 89 3c b7          	mov    %r15d,(%rdi,%r14,4)
  ea:	45 01 c3             	add    %r8d,%r11d
  ed:	44 89 d8             	mov    %r11d,%eax
  f0:	c1 f8 10             	sar    $0x10,%eax
  f3:	45 89 da             	mov    %r11d,%r10d
  f6:	41 c1 ea 09          	shr    $0x9,%r10d
  fa:	41 83 e2 7f          	and    $0x7f,%r10d
  fe:	48 98                	cltq   
 100:	8b 14 86             	mov    (%rsi,%rax,4),%edx
 103:	8b 44 86 04          	mov    0x4(%rsi,%rax,4),%eax
 107:	41 89 d4             	mov    %edx,%r12d
 10a:	0f b6 ce             	movzbl %dh,%ecx
 10d:	44 0f b6 ca          	movzbl %dl,%r9d
 111:	89 d3                	mov    %edx,%ebx
 113:	c1 eb 18             	shr    $0x18,%ebx
 116:	41 89 c7             	mov    %eax,%r15d
 119:	0f b6 d4             	movzbl %ah,%edx
 11c:	0f b6 e8             	movzbl %al,%ebp
 11f:	c1 e8 18             	shr    $0x18,%eax
 122:	41 0f af c2          	imul   %r10d,%eax
 126:	41 c1 ef 10          	shr    $0x10,%r15d
 12a:	45 0f b6 ff          	movzbl %r15b,%r15d
 12e:	45 0f af fa          	imul   %r10d,%r15d
 132:	41 0f af d2          	imul   %r10d,%edx
 136:	41 0f af ea          	imul   %r10d,%ebp
 13a:	41 83 f2 7f          	xor    $0x7f,%r10d
 13e:	41 0f af da          	imul   %r10d,%ebx
 142:	01 d8                	add    %ebx,%eax
 144:	83 e0 80             	and    $0xffffff80,%eax
 147:	c1 e0 11             	shl    $0x11,%eax
 14a:	41 c1 ec 10          	shr    $0x10,%r12d
 14e:	41 0f b6 dc          	movzbl %r12b,%ebx
 152:	41 0f af da          	imul   %r10d,%ebx
 156:	41 01 df             	add    %ebx,%r15d
 159:	41 c1 e7 09          	shl    $0x9,%r15d
 15d:	41 81 e7 00 00 ff 01 	and    $0x1ff0000,%r15d
 164:	41 0f af ca          	imul   %r10d,%ecx
 168:	01 ca                	add    %ecx,%edx
 16a:	01 d2                	add    %edx,%edx
 16c:	81 e2 00 ff 01 00    	and    $0x1ff00,%edx
 172:	45 0f af ca          	imul   %r10d,%r9d
 176:	44 01 cd             	add    %r9d,%ebp
 179:	c1 ed 07             	shr    $0x7,%ebp
 17c:	09 c5                	or     %eax,%ebp
 17e:	44 09 fd             	or     %r15d,%ebp
 181:	09 d5                	or     %edx,%ebp
 183:	42 89 6c b7 04       	mov    %ebp,0x4(%rdi,%r14,4)
 188:	45 01 c3             	add    %r8d,%r11d
 18b:	49 83 c6 02          	add    $0x2,%r14
 18f:	44 3b 74 24 ec       	cmp    -0x14(%rsp),%r14d
 194:	0f 8c b6 fe ff ff    	jl     50 <ScaleARGBFilterCols_C+0x50>
 19a:	8b 4c 24 e8          	mov    -0x18(%rsp),%ecx
 19e:	03 4c 24 e4          	add    -0x1c(%rsp),%ecx
 1a2:	48 8b 7c 24 f0       	mov    -0x10(%rsp),%rdi
 1a7:	48 8b 54 24 f8       	mov    -0x8(%rsp),%rdx
 1ac:	f6 c2 01             	test   $0x1,%dl
 1af:	0f 84 91 00 00 00    	je     246 <ScaleARGBFilterCols_C+0x246>
 1b5:	89 c8                	mov    %ecx,%eax
 1b7:	c1 f8 10             	sar    $0x10,%eax
 1ba:	c1 e9 09             	shr    $0x9,%ecx
 1bd:	83 e1 7f             	and    $0x7f,%ecx
 1c0:	48 98                	cltq   
 1c2:	8b 14 86             	mov    (%rsi,%rax,4),%edx
 1c5:	8b 44 86 04          	mov    0x4(%rsi,%rax,4),%eax
 1c9:	41 89 d0             	mov    %edx,%r8d
 1cc:	0f b6 f6             	movzbl %dh,%esi
 1cf:	41 89 f3             	mov    %esi,%r11d
 1d2:	44 0f b6 ca          	movzbl %dl,%r9d
 1d6:	89 d5                	mov    %edx,%ebp
 1d8:	c1 ed 18             	shr    $0x18,%ebp
 1db:	41 89 ca             	mov    %ecx,%r10d
 1de:	41 83 f2 7f          	xor    $0x7f,%r10d
 1e2:	41 0f af ea          	imul   %r10d,%ebp
 1e6:	89 c6                	mov    %eax,%esi
 1e8:	0f b6 d4             	movzbl %ah,%edx
 1eb:	0f b6 d8             	movzbl %al,%ebx
 1ee:	c1 e8 18             	shr    $0x18,%eax
 1f1:	0f af c1             	imul   %ecx,%eax
 1f4:	01 e8                	add    %ebp,%eax
 1f6:	41 c1 e8 10          	shr    $0x10,%r8d
 1fa:	41 0f b6 e8          	movzbl %r8b,%ebp
 1fe:	41 0f af ea          	imul   %r10d,%ebp
 202:	c1 ee 10             	shr    $0x10,%esi
 205:	40 0f b6 f6          	movzbl %sil,%esi
 209:	0f af f1             	imul   %ecx,%esi
 20c:	01 ee                	add    %ebp,%esi
 20e:	83 e0 80             	and    $0xffffff80,%eax
 211:	c1 e0 11             	shl    $0x11,%eax
 214:	c1 e6 09             	shl    $0x9,%esi
 217:	81 e6 00 00 ff 01    	and    $0x1ff0000,%esi
 21d:	44 89 dd             	mov    %r11d,%ebp
 220:	41 0f af ea          	imul   %r10d,%ebp
 224:	0f af d1             	imul   %ecx,%edx
 227:	01 ea                	add    %ebp,%edx
 229:	01 d2                	add    %edx,%edx
 22b:	81 e2 00 ff 01 00    	and    $0x1ff00,%edx
 231:	45 0f af ca          	imul   %r10d,%r9d
 235:	0f af d9             	imul   %ecx,%ebx
 238:	44 01 cb             	add    %r9d,%ebx
 23b:	c1 eb 07             	shr    $0x7,%ebx
 23e:	09 c3                	or     %eax,%ebx
 240:	09 f3                	or     %esi,%ebx
 242:	09 d3                	or     %edx,%ebx
 244:	89 1f                	mov    %ebx,(%rdi)
 246:	5b                   	pop    %rbx
 247:	41 5c                	pop    %r12
 249:	41 5d                	pop    %r13
 24b:	41 5e                	pop    %r14
 24d:	41 5f                	pop    %r15
 24f:	5d                   	pop    %rbp
 250:	c3                   	retq   

Disassembly of section .text.ScaleARGBFilterCols64_C:

0000000000000000 <ScaleARGBFilterCols64_C>:
   0:	55                   	push   %rbp
   1:	41 57                	push   %r15
   3:	41 56                	push   %r14
   5:	41 55                	push   %r13
   7:	41 54                	push   %r12
   9:	53                   	push   %rbx
   a:	4c 63 d9             	movslq %ecx,%r11
   d:	83 fa 02             	cmp    $0x2,%edx
  10:	0f 8c a6 01 00 00    	jl     1bc <ScaleARGBFilterCols64_C+0x1bc>
  16:	8d 42 ff             	lea    -0x1(%rdx),%eax
  19:	89 44 24 dc          	mov    %eax,-0x24(%rsp)
  1d:	4d 63 f0             	movslq %r8d,%r14
  20:	48 89 54 24 f0       	mov    %rdx,-0x10(%rsp)
  25:	8d 4a fe             	lea    -0x2(%rdx),%ecx
  28:	89 c8                	mov    %ecx,%eax
  2a:	d1 e8                	shr    %eax
  2c:	83 e1 fe             	and    $0xfffffffe,%ecx
  2f:	48 83 c1 02          	add    $0x2,%rcx
  33:	49 0f af ce          	imul   %r14,%rcx
  37:	48 89 4c 24 e8       	mov    %rcx,-0x18(%rsp)
  3c:	48 8d 04 c7          	lea    (%rdi,%rax,8),%rax
  40:	48 83 c0 08          	add    $0x8,%rax
  44:	48 89 44 24 e0       	mov    %rax,-0x20(%rsp)
  49:	45 31 ff             	xor    %r15d,%r15d
  4c:	4c 89 5c 24 f8       	mov    %r11,-0x8(%rsp)
  51:	66 2e 0f 1f 84 00 00 	nopw   %cs:0x0(%rax,%rax,1)
  58:	00 00 00 
  5b:	0f 1f 44 00 00       	nopl   0x0(%rax,%rax,1)
  60:	4c 89 d8             	mov    %r11,%rax
  63:	48 c1 f8 10          	sar    $0x10,%rax
  67:	44 89 dd             	mov    %r11d,%ebp
  6a:	c1 ed 09             	shr    $0x9,%ebp
  6d:	83 e5 7f             	and    $0x7f,%ebp
  70:	8b 0c 86             	mov    (%rsi,%rax,4),%ecx
  73:	8b 44 86 04          	mov    0x4(%rsi,%rax,4),%eax
  77:	41 89 cc             	mov    %ecx,%r12d
  7a:	0f b6 dd             	movzbl %ch,%ebx
  7d:	44 0f b6 d1          	movzbl %cl,%r10d
  81:	41 89 cd             	mov    %ecx,%r13d
  84:	41 c1 ed 18          	shr    $0x18,%r13d
  88:	89 c2                	mov    %eax,%edx
  8a:	0f b6 cc             	movzbl %ah,%ecx
  8d:	44 0f b6 c0          	movzbl %al,%r8d
  91:	41 89 c1             	mov    %eax,%r9d
  94:	41 c1 e9 18          	shr    $0x18,%r9d
  98:	44 0f af cd          	imul   %ebp,%r9d
  9c:	c1 ea 10             	shr    $0x10,%edx
  9f:	0f b6 d2             	movzbl %dl,%edx
  a2:	0f af d5             	imul   %ebp,%edx
  a5:	0f af cd             	imul   %ebp,%ecx
  a8:	44 0f af c5          	imul   %ebp,%r8d
  ac:	83 f5 7f             	xor    $0x7f,%ebp
  af:	44 0f af ed          	imul   %ebp,%r13d
  b3:	45 01 e9             	add    %r13d,%r9d
  b6:	41 83 e1 80          	and    $0xffffff80,%r9d
  ba:	41 c1 e1 11          	shl    $0x11,%r9d
  be:	41 c1 ec 10          	shr    $0x10,%r12d
  c2:	41 0f b6 c4          	movzbl %r12b,%eax
  c6:	0f af c5             	imul   %ebp,%eax
  c9:	01 c2                	add    %eax,%edx
  cb:	c1 e2 09             	shl    $0x9,%edx
  ce:	81 e2 00 00 ff 01    	and    $0x1ff0000,%edx
  d4:	0f af dd             	imul   %ebp,%ebx
  d7:	01 d9                	add    %ebx,%ecx
  d9:	01 c9                	add    %ecx,%ecx
  db:	81 e1 00 ff 01 00    	and    $0x1ff00,%ecx
  e1:	44 0f af d5          	imul   %ebp,%r10d
  e5:	45 01 d0             	add    %r10d,%r8d
  e8:	41 c1 e8 07          	shr    $0x7,%r8d
  ec:	45 09 c8             	or     %r9d,%r8d
  ef:	41 09 d0             	or     %edx,%r8d
  f2:	41 09 c8             	or     %ecx,%r8d
  f5:	46 89 04 bf          	mov    %r8d,(%rdi,%r15,4)
  f9:	4d 01 f3             	add    %r14,%r11
  fc:	4c 89 d8             	mov    %r11,%rax
  ff:	48 c1 f8 10          	sar    $0x10,%rax
 103:	45 89 d9             	mov    %r11d,%r9d
 106:	41 c1 e9 09          	shr    $0x9,%r9d
 10a:	41 83 e1 7f          	and    $0x7f,%r9d
 10e:	8b 0c 86             	mov    (%rsi,%rax,4),%ecx
 111:	8b 44 86 04          	mov    0x4(%rsi,%rax,4),%eax
 115:	41 89 cc             	mov    %ecx,%r12d
 118:	0f b6 d5             	movzbl %ch,%edx
 11b:	44 0f b6 c1          	movzbl %cl,%r8d
 11f:	89 cb                	mov    %ecx,%ebx
 121:	c1 eb 18             	shr    $0x18,%ebx
 124:	41 89 c2             	mov    %eax,%r10d
 127:	0f b6 cc             	movzbl %ah,%ecx
 12a:	0f b6 e8             	movzbl %al,%ebp
 12d:	c1 e8 18             	shr    $0x18,%eax
 130:	41 0f af c1          	imul   %r9d,%eax
 134:	41 c1 ea 10          	shr    $0x10,%r10d
 138:	45 0f b6 d2          	movzbl %r10b,%r10d
 13c:	45 0f af d1          	imul   %r9d,%r10d
 140:	41 0f af c9          	imul   %r9d,%ecx
 144:	41 0f af e9          	imul   %r9d,%ebp
 148:	41 83 f1 7f          	xor    $0x7f,%r9d
 14c:	41 0f af d9          	imul   %r9d,%ebx
 150:	01 d8                	add    %ebx,%eax
 152:	83 e0 80             	and    $0xffffff80,%eax
 155:	c1 e0 11             	shl    $0x11,%eax
 158:	41 c1 ec 10          	shr    $0x10,%r12d
 15c:	41 0f b6 dc          	movzbl %r12b,%ebx
 160:	41 0f af d9          	imul   %r9d,%ebx
 164:	41 01 da             	add    %ebx,%r10d
 167:	41 c1 e2 09          	shl    $0x9,%r10d
 16b:	41 81 e2 00 00 ff 01 	and    $0x1ff0000,%r10d
 172:	41 0f af d1          	imul   %r9d,%edx
 176:	01 d1                	add    %edx,%ecx
 178:	01 c9                	add    %ecx,%ecx
 17a:	81 e1 00 ff 01 00    	and    $0x1ff00,%ecx
 180:	45 0f af c1          	imul   %r9d,%r8d
 184:	44 01 c5             	add    %r8d,%ebp
 187:	c1 ed 07             	shr    $0x7,%ebp
 18a:	09 c5                	or     %eax,%ebp
 18c:	44 09 d5             	or     %r10d,%ebp
 18f:	09 cd                	or     %ecx,%ebp
 191:	42 89 6c bf 04       	mov    %ebp,0x4(%rdi,%r15,4)
 196:	4d 01 f3             	add    %r14,%r11
 199:	49 83 c7 02          	add    $0x2,%r15
 19d:	44 3b 7c 24 dc       	cmp    -0x24(%rsp),%r15d
 1a2:	0f 8c b8 fe ff ff    	jl     60 <ScaleARGBFilterCols64_C+0x60>
 1a8:	4c 8b 5c 24 f8       	mov    -0x8(%rsp),%r11
 1ad:	4c 03 5c 24 e8       	add    -0x18(%rsp),%r11
 1b2:	48 8b 7c 24 e0       	mov    -0x20(%rsp),%rdi
 1b7:	48 8b 54 24 f0       	mov    -0x10(%rsp),%rdx
 1bc:	f6 c2 01             	test   $0x1,%dl
 1bf:	0f 84 90 00 00 00    	je     255 <ScaleARGBFilterCols64_C+0x255>
 1c5:	4c 89 d8             	mov    %r11,%rax
 1c8:	48 c1 f8 10          	sar    $0x10,%rax
 1cc:	41 c1 eb 09          	shr    $0x9,%r11d
 1d0:	41 83 e3 7f          	and    $0x7f,%r11d
 1d4:	8b 0c 86             	mov    (%rsi,%rax,4),%ecx
 1d7:	8b 44 86 04          	mov    0x4(%rsi,%rax,4),%eax
 1db:	41 89 c8             	mov    %ecx,%r8d
 1de:	0f b6 f5             	movzbl %ch,%esi
 1e1:	44 0f b6 c9          	movzbl %cl,%r9d
 1e5:	89 cd                	mov    %ecx,%ebp
 1e7:	c1 ed 18             	shr    $0x18,%ebp
 1ea:	45 89 da             	mov    %r11d,%r10d
 1ed:	41 83 f2 7f          	xor    $0x7f,%r10d
 1f1:	41 0f af ea          	imul   %r10d,%ebp
 1f5:	89 c2                	mov    %eax,%edx
 1f7:	0f b6 cc             	movzbl %ah,%ecx
 1fa:	0f b6 d8             	movzbl %al,%ebx
 1fd:	c1 e8 18             	shr    $0x18,%eax
 200:	41 0f af c3          	imul   %r11d,%eax
 204:	01 e8                	add    %ebp,%eax
 206:	41 c1 e8 10          	shr    $0x10,%r8d
 20a:	41 0f b6 e8          	movzbl %r8b,%ebp
 20e:	41 0f af ea          	imul   %r10d,%ebp
 212:	c1 ea 10             	shr    $0x10,%edx
 215:	0f b6 d2             	movzbl %dl,%edx
 218:	41 0f af d3          	imul   %r11d,%edx
 21c:	01 ea                	add    %ebp,%edx
 21e:	83 e0 80             	and    $0xffffff80,%eax
 221:	c1 e0 11             	shl    $0x11,%eax
 224:	c1 e2 09             	shl    $0x9,%edx
 227:	81 e2 00 00 ff 01    	and    $0x1ff0000,%edx
 22d:	41 0f af f2          	imul   %r10d,%esi
 231:	41 0f af cb          	imul   %r11d,%ecx
 235:	01 f1                	add    %esi,%ecx
 237:	01 c9                	add    %ecx,%ecx
 239:	81 e1 00 ff 01 00    	and    $0x1ff00,%ecx
 23f:	45 0f af ca          	imul   %r10d,%r9d
 243:	41 0f af db          	imul   %r11d,%ebx
 247:	44 01 cb             	add    %r9d,%ebx
 24a:	c1 eb 07             	shr    $0x7,%ebx
 24d:	09 c3                	or     %eax,%ebx
 24f:	09 d3                	or     %edx,%ebx
 251:	09 cb                	or     %ecx,%ebx
 253:	89 1f                	mov    %ebx,(%rdi)
 255:	5b                   	pop    %rbx
 256:	41 5c                	pop    %r12
 258:	41 5d                	pop    %r13
 25a:	41 5e                	pop    %r14
 25c:	41 5f                	pop    %r15
 25e:	5d                   	pop    %rbp
 25f:	c3                   	retq   

Disassembly of section .text.ScalePlaneVertical:

0000000000000000 <ScalePlaneVertical>:
   0:	55                   	push   %rbp
   1:	48 89 e5             	mov    %rsp,%rbp
   4:	41 57                	push   %r15
   6:	41 56                	push   %r14
   8:	41 55                	push   %r13
   a:	41 54                	push   %r12
   c:	53                   	push   %rbx
   d:	48 83 ec 28          	sub    $0x28,%rsp
  11:	4d 89 cf             	mov    %r9,%r15
  14:	44 89 45 c8          	mov    %r8d,-0x38(%rbp)
  18:	41 89 c8             	mov    %ecx,%r8d
  1b:	41 89 d6             	mov    %edx,%r14d
  1e:	89 f1                	mov    %esi,%ecx
  20:	89 f8                	mov    %edi,%eax
  22:	c1 e0 10             	shl    $0x10,%eax
  25:	05 ff ff fe ff       	add    $0xfffeffff,%eax
  2a:	31 db                	xor    %ebx,%ebx
  2c:	83 ff 01             	cmp    $0x1,%edi
  2f:	0f 4f d8             	cmovg  %eax,%ebx
  32:	8b 55 30             	mov    0x30(%rbp),%edx
  35:	48 8b 35 00 00 00 00 	mov    0x0(%rip),%rsi        # 3c <ScalePlaneVertical+0x3c>
  3c:	8b 06                	mov    (%rsi),%eax
  3e:	85 c0                	test   %eax,%eax
  40:	75 21                	jne    63 <ScalePlaneVertical+0x63>
  42:	4d 89 fd             	mov    %r15,%r13
  45:	41 89 cc             	mov    %ecx,%r12d
  48:	45 89 c7             	mov    %r8d,%r15d
  4b:	e8 00 00 00 00       	callq  50 <ScalePlaneVertical+0x50>
  50:	48 8b 35 00 00 00 00 	mov    0x0(%rip),%rsi        # 57 <ScalePlaneVertical+0x57>
  57:	8b 55 30             	mov    0x30(%rbp),%edx
  5a:	45 89 f8             	mov    %r15d,%r8d
  5d:	44 89 e1             	mov    %r12d,%ecx
  60:	4d 89 ef             	mov    %r13,%r15
  63:	0f af ca             	imul   %edx,%ecx
  66:	a8 40                	test   $0x40,%al
  68:	75 09                	jne    73 <ScalePlaneVertical+0x73>
  6a:	4c 8b 15 00 00 00 00 	mov    0x0(%rip),%r10        # 71 <ScalePlaneVertical+0x71>
  71:	eb 15                	jmp    88 <ScalePlaneVertical+0x88>
  73:	f6 c1 0f             	test   $0xf,%cl
  76:	75 09                	jne    81 <ScalePlaneVertical+0x81>
  78:	4c 8b 15 00 00 00 00 	mov    0x0(%rip),%r10        # 7f <ScalePlaneVertical+0x7f>
  7f:	eb 07                	jmp    88 <ScalePlaneVertical+0x88>
  81:	4c 8b 15 00 00 00 00 	mov    0x0(%rip),%r10        # 88 <ScalePlaneVertical+0x88>
  88:	8b 06                	mov    (%rsi),%eax
  8a:	85 c0                	test   %eax,%eax
  8c:	0f 84 9e 00 00 00    	je     130 <ScalePlaneVertical+0x130>
  92:	a9 00 04 00 00       	test   $0x400,%eax
  97:	0f 85 cb 00 00 00    	jne    168 <ScalePlaneVertical+0x168>
  9d:	45 85 f6             	test   %r14d,%r14d
  a0:	0f 8e 7b 00 00 00    	jle    121 <ScalePlaneVertical+0x121>
  a6:	89 de                	mov    %ebx,%esi
  a8:	8b 45 18             	mov    0x18(%rbp),%eax
  ab:	c1 f8 10             	sar    $0x10,%eax
  ae:	0f af c2             	imul   %edx,%eax
  b1:	48 98                	cltq   
  b3:	8b 5d 20             	mov    0x20(%rbp),%ebx
  b6:	4c 8b 65 10          	mov    0x10(%rbp),%r12
  ba:	49 01 c7             	add    %rax,%r15
  bd:	49 63 c0             	movslq %r8d,%rax
  c0:	48 89 45 c0          	mov    %rax,-0x40(%rbp)
  c4:	48 63 45 c8          	movslq -0x38(%rbp),%rax
  c8:	48 89 45 c8          	mov    %rax,-0x38(%rbp)
  cc:	89 75 bc             	mov    %esi,-0x44(%rbp)
  cf:	90                   	nop
  d0:	44 89 75 d4          	mov    %r14d,-0x2c(%rbp)
  d4:	39 f3                	cmp    %esi,%ebx
  d6:	0f 4f de             	cmovg  %esi,%ebx
  d9:	89 d8                	mov    %ebx,%eax
  db:	c1 f8 10             	sar    $0x10,%eax
  de:	8b 55 38             	mov    0x38(%rbp),%edx
  e1:	85 d2                	test   %edx,%edx
  e3:	0f b6 f7             	movzbl %bh,%esi
  e6:	0f 44 f2             	cmove  %edx,%esi
  e9:	41 89 f0             	mov    %esi,%r8d
  ec:	48 8b 55 c0          	mov    -0x40(%rbp),%rdx
  f0:	89 d6                	mov    %edx,%esi
  f2:	0f af f0             	imul   %eax,%esi
  f5:	48 63 f6             	movslq %esi,%rsi
  f8:	4c 01 fe             	add    %r15,%rsi
  fb:	4c 89 e7             	mov    %r12,%rdi
  fe:	41 89 cd             	mov    %ecx,%r13d
 101:	4d 89 d6             	mov    %r10,%r14
 104:	41 ff d2             	callq  *%r10
 107:	8b 75 bc             	mov    -0x44(%rbp),%esi
 10a:	4d 89 f2             	mov    %r14,%r10
 10d:	44 8b 75 d4          	mov    -0x2c(%rbp),%r14d
 111:	44 89 e9             	mov    %r13d,%ecx
 114:	4c 03 65 c8          	add    -0x38(%rbp),%r12
 118:	03 5d 28             	add    0x28(%rbp),%ebx
 11b:	41 83 c6 ff          	add    $0xffffffff,%r14d
 11f:	75 af                	jne    d0 <ScalePlaneVertical+0xd0>
 121:	48 83 c4 28          	add    $0x28,%rsp
 125:	5b                   	pop    %rbx
 126:	41 5c                	pop    %r12
 128:	41 5d                	pop    %r13
 12a:	41 5e                	pop    %r14
 12c:	41 5f                	pop    %r15
 12e:	5d                   	pop    %rbp
 12f:	c3                   	retq   
 130:	4c 89 7d c0          	mov    %r15,-0x40(%rbp)
 134:	41 89 cc             	mov    %ecx,%r12d
 137:	45 89 c5             	mov    %r8d,%r13d
 13a:	44 89 75 d4          	mov    %r14d,-0x2c(%rbp)
 13e:	4d 89 d6             	mov    %r10,%r14
 141:	41 89 d7             	mov    %edx,%r15d
 144:	e8 00 00 00 00       	callq  149 <ScalePlaneVertical+0x149>
 149:	44 89 fa             	mov    %r15d,%edx
 14c:	4d 89 f2             	mov    %r14,%r10
 14f:	44 8b 75 d4          	mov    -0x2c(%rbp),%r14d
 153:	45 89 e8             	mov    %r13d,%r8d
 156:	44 89 e1             	mov    %r12d,%ecx
 159:	4c 8b 7d c0          	mov    -0x40(%rbp),%r15
 15d:	a9 00 04 00 00       	test   $0x400,%eax
 162:	0f 84 35 ff ff ff    	je     9d <ScalePlaneVertical+0x9d>
 168:	f6 c1 1f             	test   $0x1f,%cl
 16b:	75 12                	jne    17f <ScalePlaneVertical+0x17f>
 16d:	4c 8b 15 00 00 00 00 	mov    0x0(%rip),%r10        # 174 <ScalePlaneVertical+0x174>
 174:	45 85 f6             	test   %r14d,%r14d
 177:	0f 8f 29 ff ff ff    	jg     a6 <ScalePlaneVertical+0xa6>
 17d:	eb a2                	jmp    121 <ScalePlaneVertical+0x121>
 17f:	4c 8b 15 00 00 00 00 	mov    0x0(%rip),%r10        # 186 <ScalePlaneVertical+0x186>
 186:	45 85 f6             	test   %r14d,%r14d
 189:	0f 8f 17 ff ff ff    	jg     a6 <ScalePlaneVertical+0xa6>
 18f:	eb 90                	jmp    121 <ScalePlaneVertical+0x121>

Disassembly of section .text.ScalePlaneVertical_16:

0000000000000000 <ScalePlaneVertical_16>:
   0:	55                   	push   %rbp
   1:	48 89 e5             	mov    %rsp,%rbp
   4:	41 57                	push   %r15
   6:	41 56                	push   %r14
   8:	41 55                	push   %r13
   a:	41 54                	push   %r12
   c:	53                   	push   %rbx
   d:	48 83 ec 18          	sub    $0x18,%rsp
  11:	89 75 d4             	mov    %esi,-0x2c(%rbp)
  14:	89 f8                	mov    %edi,%eax
  16:	c1 e0 10             	shl    $0x10,%eax
  19:	05 ff ff fe ff       	add    $0xfffeffff,%eax
  1e:	45 31 ed             	xor    %r13d,%r13d
  21:	83 ff 01             	cmp    $0x1,%edi
  24:	44 0f 4f e8          	cmovg  %eax,%r13d
  28:	85 d2                	test   %edx,%edx
  2a:	0f 8e 86 00 00 00    	jle    b6 <ScalePlaneVertical_16+0xb6>
  30:	41 89 d7             	mov    %edx,%r15d
  33:	8b 5d 20             	mov    0x20(%rbp),%ebx
  36:	4c 8b 75 10          	mov    0x10(%rbp),%r14
  3a:	8b 45 18             	mov    0x18(%rbp),%eax
  3d:	8b 55 30             	mov    0x30(%rbp),%edx
  40:	8b 75 d4             	mov    -0x2c(%rbp),%esi
  43:	0f af f2             	imul   %edx,%esi
  46:	89 75 d4             	mov    %esi,-0x2c(%rbp)
  49:	c1 f8 10             	sar    $0x10,%eax
  4c:	0f af c2             	imul   %edx,%eax
  4f:	48 98                	cltq   
  51:	49 8d 04 41          	lea    (%r9,%rax,2),%rax
  55:	48 89 45 c0          	mov    %rax,-0x40(%rbp)
  59:	4c 63 e1             	movslq %ecx,%r12
  5c:	49 63 c0             	movslq %r8d,%rax
  5f:	48 01 c0             	add    %rax,%rax
  62:	48 89 45 c8          	mov    %rax,-0x38(%rbp)
  66:	66 2e 0f 1f 84 00 00 	nopw   %cs:0x0(%rax,%rax,1)
  6d:	00 00 00 
  70:	44 39 eb             	cmp    %r13d,%ebx
  73:	41 0f 4f dd          	cmovg  %r13d,%ebx
  77:	89 d8                	mov    %ebx,%eax
  79:	c1 f8 10             	sar    $0x10,%eax
  7c:	8b 4d 38             	mov    0x38(%rbp),%ecx
  7f:	85 c9                	test   %ecx,%ecx
  81:	0f b6 d7             	movzbl %bh,%edx
  84:	0f 44 d1             	cmove  %ecx,%edx
  87:	41 89 d0             	mov    %edx,%r8d
  8a:	44 89 e1             	mov    %r12d,%ecx
  8d:	0f af c8             	imul   %eax,%ecx
  90:	48 63 c1             	movslq %ecx,%rax
  93:	48 8b 4d c0          	mov    -0x40(%rbp),%rcx
  97:	48 8d 34 41          	lea    (%rcx,%rax,2),%rsi
  9b:	4c 89 f7             	mov    %r14,%rdi
  9e:	4c 89 e2             	mov    %r12,%rdx
  a1:	8b 4d d4             	mov    -0x2c(%rbp),%ecx
  a4:	e8 00 00 00 00       	callq  a9 <ScalePlaneVertical_16+0xa9>
  a9:	03 5d 28             	add    0x28(%rbp),%ebx
  ac:	4c 03 75 c8          	add    -0x38(%rbp),%r14
  b0:	41 83 c7 ff          	add    $0xffffffff,%r15d
  b4:	75 ba                	jne    70 <ScalePlaneVertical_16+0x70>
  b6:	48 83 c4 18          	add    $0x18,%rsp
  ba:	5b                   	pop    %rbx
  bb:	41 5c                	pop    %r12
  bd:	41 5d                	pop    %r13
  bf:	41 5e                	pop    %r14
  c1:	41 5f                	pop    %r15
  c3:	5d                   	pop    %rbp
  c4:	c3                   	retq   

Disassembly of section .text.ScaleFilterReduce:

0000000000000000 <ScaleFilterReduce>:
   0:	89 f0                	mov    %esi,%eax
   2:	f7 d8                	neg    %eax
   4:	0f 4c c6             	cmovl  %esi,%eax
   7:	89 fe                	mov    %edi,%esi
   9:	f7 de                	neg    %esi
   b:	0f 4c f7             	cmovl  %edi,%esi
   e:	41 83 f8 03          	cmp    $0x3,%r8d
  12:	41 0f 95 c3          	setne  %r11b
  16:	8d 3c 12             	lea    (%rdx,%rdx,1),%edi
  19:	39 f7                	cmp    %esi,%edi
  1b:	41 0f 9c c1          	setl   %r9b
  1f:	8d 3c 09             	lea    (%rcx,%rcx,1),%edi
  22:	39 c7                	cmp    %eax,%edi
  24:	41 0f 9c c2          	setl   %r10b
  28:	41 83 f8 02          	cmp    $0x2,%r8d
  2c:	74 10                	je     3e <ScaleFilterReduce+0x3e>
  2e:	45 08 d9             	or     %r11b,%r9b
  31:	45 08 ca             	or     %r9b,%r10b
  34:	74 08                	je     3e <ScaleFilterReduce+0x3e>
  36:	41 83 f8 01          	cmp    $0x1,%r8d
  3a:	74 38                	je     74 <ScaleFilterReduce+0x74>
  3c:	eb 51                	jmp    8f <ScaleFilterReduce+0x8f>
  3e:	83 f8 01             	cmp    $0x1,%eax
  41:	40 0f 94 c7          	sete   %dil
  45:	39 c8                	cmp    %ecx,%eax
  47:	41 0f 94 c1          	sete   %r9b
  4b:	8d 0c 49             	lea    (%rcx,%rcx,2),%ecx
  4e:	39 c1                	cmp    %eax,%ecx
  50:	0f 94 c0             	sete   %al
  53:	45 31 c0             	xor    %r8d,%r8d
  56:	83 fe 01             	cmp    $0x1,%esi
  59:	74 34                	je     8f <ScaleFilterReduce+0x8f>
  5b:	41 08 c1             	or     %al,%r9b
  5e:	44 08 cf             	or     %r9b,%dil
  61:	40 0f b6 c7          	movzbl %dil,%eax
  65:	41 b8 02 00 00 00    	mov    $0x2,%r8d
  6b:	41 29 c0             	sub    %eax,%r8d
  6e:	41 83 f8 01          	cmp    $0x1,%r8d
  72:	75 1b                	jne    8f <ScaleFilterReduce+0x8f>
  74:	83 fe 01             	cmp    $0x1,%esi
  77:	0f 95 c0             	setne  %al
  7a:	39 d6                	cmp    %edx,%esi
  7c:	0f 95 c1             	setne  %cl
  7f:	8d 14 52             	lea    (%rdx,%rdx,2),%edx
  82:	39 f2                	cmp    %esi,%edx
  84:	0f 95 c2             	setne  %dl
  87:	20 ca                	and    %cl,%dl
  89:	20 c2                	and    %al,%dl
  8b:	0f b6 c2             	movzbl %dl,%eax
  8e:	c3                   	retq   
  8f:	44 89 c0             	mov    %r8d,%eax
  92:	c3                   	retq   

Disassembly of section .text.FixedDiv_C:

0000000000000000 <FixedDiv_C>:
   0:	48 63 c7             	movslq %edi,%rax
   3:	48 c1 e0 10          	shl    $0x10,%rax
   7:	48 63 ce             	movslq %esi,%rcx
   a:	48 99                	cqto   
   c:	48 f7 f9             	idiv   %rcx
   f:	c3                   	retq   

Disassembly of section .text.FixedDiv1_C:

0000000000000000 <FixedDiv1_C>:
   0:	48 63 c7             	movslq %edi,%rax
   3:	48 c1 e0 10          	shl    $0x10,%rax
   7:	48 05 ff ff fe ff    	add    $0xfffffffffffeffff,%rax
   d:	83 c6 ff             	add    $0xffffffff,%esi
  10:	48 63 ce             	movslq %esi,%rcx
  13:	48 99                	cqto   
  15:	48 f7 f9             	idiv   %rcx
  18:	c3                   	retq   

Disassembly of section .text.ScaleSlope:

0000000000000000 <ScaleSlope>:
   0:	55                   	push   %rbp
   1:	48 89 e5             	mov    %rsp,%rbp
   4:	41 57                	push   %r15
   6:	41 56                	push   %r14
   8:	41 55                	push   %r13
   a:	41 54                	push   %r12
   c:	53                   	push   %rbx
   d:	50                   	push   %rax
   e:	4d 89 ce             	mov    %r9,%r14
  11:	41 89 f4             	mov    %esi,%r12d
  14:	41 89 ff             	mov    %edi,%r15d
  17:	83 fa 01             	cmp    $0x1,%edx
  1a:	41 89 d5             	mov    %edx,%r13d
  1d:	44 0f 44 ef          	cmove  %edi,%r13d
  21:	81 ff ff 7f 00 00    	cmp    $0x7fff,%edi
  27:	44 0f 4e ea          	cmovle %edx,%r13d
  2b:	83 f9 01             	cmp    $0x1,%ecx
  2e:	89 cb                	mov    %ecx,%ebx
  30:	0f 44 de             	cmove  %esi,%ebx
  33:	81 fe ff 7f 00 00    	cmp    $0x7fff,%esi
  39:	0f 4e d9             	cmovle %ecx,%ebx
  3c:	41 83 f8 01          	cmp    $0x1,%r8d
  40:	74 45                	je     87 <ScaleSlope+0x87>
  42:	41 83 f8 02          	cmp    $0x2,%r8d
  46:	74 70                	je     b8 <ScaleSlope+0xb8>
  48:	41 83 f8 03          	cmp    $0x3,%r8d
  4c:	0f 85 93 00 00 00    	jne    e5 <ScaleSlope+0xe5>
  52:	44 89 ff             	mov    %r15d,%edi
  55:	f7 df                	neg    %edi
  57:	41 0f 4c ff          	cmovl  %r15d,%edi
  5b:	44 89 ee             	mov    %r13d,%esi
  5e:	e8 00 00 00 00       	callq  63 <ScaleSlope+0x63>
  63:	48 8b 4d 18          	mov    0x18(%rbp),%rcx
  67:	89 01                	mov    %eax,(%rcx)
  69:	44 89 e7             	mov    %r12d,%edi
  6c:	89 de                	mov    %ebx,%esi
  6e:	e8 00 00 00 00       	callq  73 <ScaleSlope+0x73>
  73:	48 8b 4d 20          	mov    0x20(%rbp),%rcx
  77:	89 01                	mov    %eax,(%rcx)
  79:	41 c7 06 00 00 00 00 	movl   $0x0,(%r14)
  80:	31 c0                	xor    %eax,%eax
  82:	e9 73 01 00 00       	jmpq   1fa <ScaleSlope+0x1fa>
  87:	44 89 ff             	mov    %r15d,%edi
  8a:	f7 df                	neg    %edi
  8c:	41 0f 4c ff          	cmovl  %r15d,%edi
  90:	41 39 fd             	cmp    %edi,%r13d
  93:	0f 8e 83 00 00 00    	jle    11c <ScaleSlope+0x11c>
  99:	41 83 fd 02          	cmp    $0x2,%r13d
  9d:	0f 8c 45 01 00 00    	jl     1e8 <ScaleSlope+0x1e8>
  a3:	44 89 ee             	mov    %r13d,%esi
  a6:	e8 00 00 00 00       	callq  ab <ScaleSlope+0xab>
  ab:	48 8b 4d 18          	mov    0x18(%rbp),%rcx
  af:	89 01                	mov    %eax,(%rcx)
  b1:	31 c9                	xor    %ecx,%ecx
  b3:	e9 2d 01 00 00       	jmpq   1e5 <ScaleSlope+0x1e5>
  b8:	44 89 ff             	mov    %r15d,%edi
  bb:	f7 df                	neg    %edi
  bd:	41 0f 4c ff          	cmovl  %r15d,%edi
  c1:	41 39 fd             	cmp    %edi,%r13d
  c4:	7e 7a                	jle    140 <ScaleSlope+0x140>
  c6:	41 83 fd 02          	cmp    $0x2,%r13d
  ca:	0f 8c bd 00 00 00    	jl     18d <ScaleSlope+0x18d>
  d0:	44 89 ee             	mov    %r13d,%esi
  d3:	e8 00 00 00 00       	callq  d8 <ScaleSlope+0xd8>
  d8:	48 8b 4d 18          	mov    0x18(%rbp),%rcx
  dc:	89 01                	mov    %eax,(%rcx)
  de:	31 c9                	xor    %ecx,%ecx
  e0:	e9 a5 00 00 00       	jmpq   18a <ScaleSlope+0x18a>
  e5:	4c 89 75 d0          	mov    %r14,-0x30(%rbp)
  e9:	44 89 ff             	mov    %r15d,%edi
  ec:	f7 df                	neg    %edi
  ee:	41 0f 4c ff          	cmovl  %r15d,%edi
  f2:	44 89 ee             	mov    %r13d,%esi
  f5:	e8 00 00 00 00       	callq  fa <ScaleSlope+0xfa>
  fa:	4c 8b 75 18          	mov    0x18(%rbp),%r14
  fe:	41 89 06             	mov    %eax,(%r14)
 101:	44 89 e7             	mov    %r12d,%edi
 104:	89 de                	mov    %ebx,%esi
 106:	e8 00 00 00 00       	callq  10b <ScaleSlope+0x10b>
 10b:	48 8b 4d 20          	mov    0x20(%rbp),%rcx
 10f:	89 01                	mov    %eax,(%rcx)
 111:	41 8b 06             	mov    (%r14),%eax
 114:	85 c0                	test   %eax,%eax
 116:	78 45                	js     15d <ScaleSlope+0x15d>
 118:	d1 e8                	shr    %eax
 11a:	eb 47                	jmp    163 <ScaleSlope+0x163>
 11c:	44 89 ee             	mov    %r13d,%esi
 11f:	e8 00 00 00 00       	callq  124 <ScaleSlope+0x124>
 124:	48 8b 4d 18          	mov    0x18(%rbp),%rcx
 128:	89 01                	mov    %eax,(%rcx)
 12a:	85 c0                	test   %eax,%eax
 12c:	0f 88 a8 00 00 00    	js     1da <ScaleSlope+0x1da>
 132:	d1 e8                	shr    %eax
 134:	05 00 80 ff ff       	add    $0xffff8000,%eax
 139:	89 c1                	mov    %eax,%ecx
 13b:	e9 a5 00 00 00       	jmpq   1e5 <ScaleSlope+0x1e5>
 140:	44 89 ee             	mov    %r13d,%esi
 143:	e8 00 00 00 00       	callq  148 <ScaleSlope+0x148>
 148:	48 8b 4d 18          	mov    0x18(%rbp),%rcx
 14c:	89 01                	mov    %eax,(%rcx)
 14e:	85 c0                	test   %eax,%eax
 150:	78 2d                	js     17f <ScaleSlope+0x17f>
 152:	d1 e8                	shr    %eax
 154:	05 00 80 ff ff       	add    $0xffff8000,%eax
 159:	89 c1                	mov    %eax,%ecx
 15b:	eb 2d                	jmp    18a <ScaleSlope+0x18a>
 15d:	f7 d8                	neg    %eax
 15f:	d1 f8                	sar    %eax
 161:	f7 d8                	neg    %eax
 163:	4c 8b 75 d0          	mov    -0x30(%rbp),%r14
 167:	41 89 06             	mov    %eax,(%r14)
 16a:	8b 01                	mov    (%rcx),%eax
 16c:	85 c0                	test   %eax,%eax
 16e:	78 07                	js     177 <ScaleSlope+0x177>
 170:	d1 e8                	shr    %eax
 172:	e9 83 00 00 00       	jmpq   1fa <ScaleSlope+0x1fa>
 177:	f7 d8                	neg    %eax
 179:	d1 f8                	sar    %eax
 17b:	f7 d8                	neg    %eax
 17d:	eb 7b                	jmp    1fa <ScaleSlope+0x1fa>
 17f:	f7 d8                	neg    %eax
 181:	d1 f8                	sar    %eax
 183:	b9 00 80 00 00       	mov    $0x8000,%ecx
 188:	29 c1                	sub    %eax,%ecx
 18a:	41 89 0e             	mov    %ecx,(%r14)
 18d:	44 39 e3             	cmp    %r12d,%ebx
 190:	7e 19                	jle    1ab <ScaleSlope+0x1ab>
 192:	83 fb 02             	cmp    $0x2,%ebx
 195:	7c 69                	jl     200 <ScaleSlope+0x200>
 197:	44 89 e7             	mov    %r12d,%edi
 19a:	89 de                	mov    %ebx,%esi
 19c:	e8 00 00 00 00       	callq  1a1 <ScaleSlope+0x1a1>
 1a1:	48 8b 4d 20          	mov    0x20(%rbp),%rcx
 1a5:	89 01                	mov    %eax,(%rcx)
 1a7:	31 c0                	xor    %eax,%eax
 1a9:	eb 4f                	jmp    1fa <ScaleSlope+0x1fa>
 1ab:	44 89 e7             	mov    %r12d,%edi
 1ae:	89 de                	mov    %ebx,%esi
 1b0:	e8 00 00 00 00       	callq  1b5 <ScaleSlope+0x1b5>
 1b5:	89 c1                	mov    %eax,%ecx
 1b7:	48 8b 45 20          	mov    0x20(%rbp),%rax
 1bb:	89 08                	mov    %ecx,(%rax)
 1bd:	85 c9                	test   %ecx,%ecx
 1bf:	78 0c                	js     1cd <ScaleSlope+0x1cd>
 1c1:	d1 e9                	shr    %ecx
 1c3:	81 c1 00 80 ff ff    	add    $0xffff8000,%ecx
 1c9:	89 c8                	mov    %ecx,%eax
 1cb:	eb 2d                	jmp    1fa <ScaleSlope+0x1fa>
 1cd:	f7 d9                	neg    %ecx
 1cf:	d1 f9                	sar    %ecx
 1d1:	b8 00 80 00 00       	mov    $0x8000,%eax
 1d6:	29 c8                	sub    %ecx,%eax
 1d8:	eb 20                	jmp    1fa <ScaleSlope+0x1fa>
 1da:	f7 d8                	neg    %eax
 1dc:	d1 f8                	sar    %eax
 1de:	b9 00 80 00 00       	mov    $0x8000,%ecx
 1e3:	29 c1                	sub    %eax,%ecx
 1e5:	41 89 0e             	mov    %ecx,(%r14)
 1e8:	44 89 e7             	mov    %r12d,%edi
 1eb:	89 de                	mov    %ebx,%esi
 1ed:	e8 00 00 00 00       	callq  1f2 <ScaleSlope+0x1f2>
 1f2:	48 8b 4d 20          	mov    0x20(%rbp),%rcx
 1f6:	89 01                	mov    %eax,(%rcx)
 1f8:	d1 f8                	sar    %eax
 1fa:	48 8b 4d 10          	mov    0x10(%rbp),%rcx
 1fe:	89 01                	mov    %eax,(%rcx)
 200:	45 85 ff             	test   %r15d,%r15d
 203:	79 11                	jns    216 <ScaleSlope+0x216>
 205:	41 83 c5 ff          	add    $0xffffffff,%r13d
 209:	48 8b 45 18          	mov    0x18(%rbp),%rax
 20d:	44 0f af 28          	imul   (%rax),%r13d
 211:	45 01 2e             	add    %r13d,(%r14)
 214:	f7 18                	negl   (%rax)
 216:	48 83 c4 08          	add    $0x8,%rsp
 21a:	5b                   	pop    %rbx
 21b:	41 5c                	pop    %r12
 21d:	41 5d                	pop    %r13
 21f:	41 5e                	pop    %r14
 221:	41 5f                	pop    %r15
 223:	5d                   	pop    %rbp
 224:	c3                   	retq   

Disassembly of section .text.ScaleRowUp2_16_C:

0000000000000000 <ScaleRowUp2_16_C>:
   0:	49 89 d1             	mov    %rdx,%r9
   3:	4c 8d 1c 77          	lea    (%rdi,%rsi,2),%r11
   7:	83 f9 02             	cmp    $0x2,%ecx
   a:	7d 0a                	jge    16 <ScaleRowUp2_16_C+0x16>
   c:	f6 c1 01             	test   $0x1,%cl
   f:	0f 85 34 03 00 00    	jne    349 <ScaleRowUp2_16_C+0x349>
  15:	c3                   	retq   
  16:	55                   	push   %rbp
  17:	41 57                	push   %r15
  19:	41 56                	push   %r14
  1b:	41 55                	push   %r13
  1d:	41 54                	push   %r12
  1f:	53                   	push   %rbx
  20:	8d 59 fe             	lea    -0x2(%rcx),%ebx
  23:	89 d8                	mov    %ebx,%eax
  25:	d1 e8                	shr    %eax
  27:	4c 8d 04 30          	lea    (%rax,%rsi,1),%r8
  2b:	49 83 c0 01          	add    $0x1,%r8
  2f:	4c 8d 50 01          	lea    0x1(%rax),%r10
  33:	83 e3 fe             	and    $0xfffffffe,%ebx
  36:	48 8d 53 02          	lea    0x2(%rbx),%rdx
  3a:	44 8d 78 01          	lea    0x1(%rax),%r15d
  3e:	45 31 f6             	xor    %r14d,%r14d
  41:	41 83 ff 08          	cmp    $0x8,%r15d
  45:	4c 89 44 24 f8       	mov    %r8,-0x8(%rsp)
  4a:	4c 89 54 24 f0       	mov    %r10,-0x10(%rsp)
  4f:	48 89 54 24 e8       	mov    %rdx,-0x18(%rsp)
  54:	0f 82 53 02 00 00    	jb     2ad <ScaleRowUp2_16_C+0x2ad>
  5a:	49 8d 1c 59          	lea    (%r9,%rbx,2),%rbx
  5e:	48 83 c3 04          	add    $0x4,%rbx
  62:	48 8d 2c 30          	lea    (%rax,%rsi,1),%rbp
  66:	48 8d 2c 6f          	lea    (%rdi,%rbp,2),%rbp
  6a:	48 83 c5 04          	add    $0x4,%rbp
  6e:	48 8d 04 47          	lea    (%rdi,%rax,2),%rax
  72:	48 83 c0 04          	add    $0x4,%rax
  76:	4c 39 cd             	cmp    %r9,%rbp
  79:	40 0f 97 c5          	seta   %bpl
  7d:	49 39 db             	cmp    %rbx,%r11
  80:	41 0f 92 c4          	setb   %r12b
  84:	4c 39 c8             	cmp    %r9,%rax
  87:	0f 97 c0             	seta   %al
  8a:	48 39 fb             	cmp    %rdi,%rbx
  8d:	0f 97 c3             	seta   %bl
  90:	44 84 e5             	test   %r12b,%bpl
  93:	0f 85 14 02 00 00    	jne    2ad <ScaleRowUp2_16_C+0x2ad>
  99:	20 d8                	and    %bl,%al
  9b:	0f 85 0c 02 00 00    	jne    2ad <ScaleRowUp2_16_C+0x2ad>
  a1:	45 89 fc             	mov    %r15d,%r12d
  a4:	41 83 e4 f8          	and    $0xfffffff8,%r12d
  a8:	4e 8d 2c 67          	lea    (%rdi,%r12,2),%r13
  ac:	4f 8d 04 a1          	lea    (%r9,%r12,4),%r8
  b0:	4f 8d 1c 63          	lea    (%r11,%r12,2),%r11
  b4:	47 8d 34 24          	lea    (%r12,%r12,1),%r14d
  b8:	48 8d 34 77          	lea    (%rdi,%rsi,2),%rsi
  bc:	48 83 c6 02          	add    $0x2,%rsi
  c0:	31 ed                	xor    %ebp,%ebp
  c2:	66 45 0f ef d2       	pxor   %xmm10,%xmm10
  c7:	66 44 0f 6f 05 00 00 	movdqa 0x0(%rip),%xmm8        # d0 <ScaleRowUp2_16_C+0xd0>
  ce:	00 00 
  d0:	66 44 0f 6f 1d 00 00 	movdqa 0x0(%rip),%xmm11        # d9 <ScaleRowUp2_16_C+0xd9>
  d7:	00 00 
  d9:	66 44 0f 6f 0d 00 00 	movdqa 0x0(%rip),%xmm9        # e2 <ScaleRowUp2_16_C+0xe2>
  e0:	00 00 
  e2:	66 2e 0f 1f 84 00 00 	nopw   %cs:0x0(%rax,%rax,1)
  e9:	00 00 00 
  ec:	0f 1f 40 00          	nopl   0x0(%rax)
  f0:	f3 0f 6f 2c 6f       	movdqu (%rdi,%rbp,2),%xmm5
  f5:	f3 0f 6f 74 6f 02    	movdqu 0x2(%rdi,%rbp,2),%xmm6
  fb:	f3 44 0f 6f 74 6e fe 	movdqu -0x2(%rsi,%rbp,2),%xmm14
 102:	f3 0f 6f 14 6e       	movdqu (%rsi,%rbp,2),%xmm2
 107:	66 44 0f 6f e5       	movdqa %xmm5,%xmm12
 10c:	66 45 0f 69 e2       	punpckhwd %xmm10,%xmm12
 111:	66 44 0f 6f ed       	movdqa %xmm5,%xmm13
 116:	66 45 0f 61 ea       	punpcklwd %xmm10,%xmm13
 11b:	66 0f 6f cd          	movdqa %xmm5,%xmm1
 11f:	66 41 0f e4 c8       	pmulhuw %xmm8,%xmm1
 124:	66 41 0f d5 e8       	pmullw %xmm8,%xmm5
 129:	66 0f 6f dd          	movdqa %xmm5,%xmm3
 12d:	66 0f 61 d9          	punpcklwd %xmm1,%xmm3
 131:	66 0f 69 e9          	punpckhwd %xmm1,%xmm5
 135:	66 0f 6f e6          	movdqa %xmm6,%xmm4
 139:	66 41 0f 69 e2       	punpckhwd %xmm10,%xmm4
 13e:	66 0f 6f c6          	movdqa %xmm6,%xmm0
 142:	66 41 0f 61 c2       	punpcklwd %xmm10,%xmm0
 147:	66 45 0f 6f fe       	movdqa %xmm14,%xmm15
 14c:	66 45 0f 69 fa       	punpckhwd %xmm10,%xmm15
 151:	66 45 0f 61 f2       	punpcklwd %xmm10,%xmm14
 156:	66 0f 6f fa          	movdqa %xmm2,%xmm7
 15a:	66 41 0f 61 fa       	punpcklwd %xmm10,%xmm7
 15f:	66 41 0f 69 d2       	punpckhwd %xmm10,%xmm2
 164:	66 41 0f fe c6       	paddd  %xmm14,%xmm0
 169:	66 41 0f fe e7       	paddd  %xmm15,%xmm4
 16e:	66 0f 70 cc f5       	pshufd $0xf5,%xmm4,%xmm1
 173:	66 41 0f f4 e3       	pmuludq %xmm11,%xmm4
 178:	66 0f 70 e4 e8       	pshufd $0xe8,%xmm4,%xmm4
 17d:	66 41 0f f4 cb       	pmuludq %xmm11,%xmm1
 182:	66 0f 70 c9 e8       	pshufd $0xe8,%xmm1,%xmm1
 187:	66 0f 62 e1          	punpckldq %xmm1,%xmm4
 18b:	66 0f 70 c8 f5       	pshufd $0xf5,%xmm0,%xmm1
 190:	66 41 0f f4 c3       	pmuludq %xmm11,%xmm0
 195:	66 0f 70 c0 e8       	pshufd $0xe8,%xmm0,%xmm0
 19a:	66 41 0f f4 cb       	pmuludq %xmm11,%xmm1
 19f:	66 0f 70 c9 e8       	pshufd $0xe8,%xmm1,%xmm1
 1a4:	66 0f 62 c1          	punpckldq %xmm1,%xmm0
 1a8:	66 0f fe ea          	paddd  %xmm2,%xmm5
 1ac:	66 0f fe df          	paddd  %xmm7,%xmm3
 1b0:	66 41 0f fe e9       	paddd  %xmm9,%xmm5
 1b5:	66 0f fe ec          	paddd  %xmm4,%xmm5
 1b9:	66 41 0f fe d9       	paddd  %xmm9,%xmm3
 1be:	66 0f fe d8          	paddd  %xmm0,%xmm3
 1c2:	66 0f 72 d3 04       	psrld  $0x4,%xmm3
 1c7:	66 0f 72 d5 04       	psrld  $0x4,%xmm5
 1cc:	66 0f 72 f5 10       	pslld  $0x10,%xmm5
 1d1:	66 0f 72 e5 10       	psrad  $0x10,%xmm5
 1d6:	66 0f 72 f3 10       	pslld  $0x10,%xmm3
 1db:	66 0f 72 e3 10       	psrad  $0x10,%xmm3
 1e0:	66 0f 6b dd          	packssdw %xmm5,%xmm3
 1e4:	66 0f 6f c6          	movdqa %xmm6,%xmm0
 1e8:	66 41 0f e4 c0       	pmulhuw %xmm8,%xmm0
 1ed:	66 41 0f d5 f0       	pmullw %xmm8,%xmm6
 1f2:	66 0f 6f ee          	movdqa %xmm6,%xmm5
 1f6:	66 0f 61 e8          	punpcklwd %xmm0,%xmm5
 1fa:	66 0f 69 f0          	punpckhwd %xmm0,%xmm6
 1fe:	66 41 0f fe fd       	paddd  %xmm13,%xmm7
 203:	66 41 0f fe d4       	paddd  %xmm12,%xmm2
 208:	66 0f 70 c2 f5       	pshufd $0xf5,%xmm2,%xmm0
 20d:	66 41 0f f4 d3       	pmuludq %xmm11,%xmm2
 212:	66 0f 70 ca e8       	pshufd $0xe8,%xmm2,%xmm1
 217:	66 41 0f f4 c3       	pmuludq %xmm11,%xmm0
 21c:	66 0f 70 c0 e8       	pshufd $0xe8,%xmm0,%xmm0
 221:	66 0f 62 c8          	punpckldq %xmm0,%xmm1
 225:	66 0f 70 c7 f5       	pshufd $0xf5,%xmm7,%xmm0
 22a:	66 41 0f f4 fb       	pmuludq %xmm11,%xmm7
 22f:	66 0f 70 d7 e8       	pshufd $0xe8,%xmm7,%xmm2
 234:	66 41 0f f4 c3       	pmuludq %xmm11,%xmm0
 239:	66 0f 70 c0 e8       	pshufd $0xe8,%xmm0,%xmm0
 23e:	66 0f 62 d0          	punpckldq %xmm0,%xmm2
 242:	66 41 0f fe f7       	paddd  %xmm15,%xmm6
 247:	66 41 0f fe ee       	paddd  %xmm14,%xmm5
 24c:	66 41 0f fe f1       	paddd  %xmm9,%xmm6
 251:	66 0f fe f1          	paddd  %xmm1,%xmm6
 255:	66 41 0f fe e9       	paddd  %xmm9,%xmm5
 25a:	66 0f fe ea          	paddd  %xmm2,%xmm5
 25e:	66 0f 72 d5 04       	psrld  $0x4,%xmm5
 263:	66 0f 72 d6 04       	psrld  $0x4,%xmm6
 268:	66 0f 72 f6 10       	pslld  $0x10,%xmm6
 26d:	66 0f 72 e6 10       	psrad  $0x10,%xmm6
 272:	66 0f 72 f5 10       	pslld  $0x10,%xmm5
 277:	66 0f 72 e5 10       	psrad  $0x10,%xmm5
 27c:	66 0f 6b ee          	packssdw %xmm6,%xmm5
 280:	66 0f 6f c3          	movdqa %xmm3,%xmm0
 284:	66 0f 61 c5          	punpcklwd %xmm5,%xmm0
 288:	66 0f 69 dd          	punpckhwd %xmm5,%xmm3
 28c:	f3 41 0f 7f 5c a9 10 	movdqu %xmm3,0x10(%r9,%rbp,4)
 293:	f3 41 0f 7f 04 a9    	movdqu %xmm0,(%r9,%rbp,4)
 299:	48 83 c5 08          	add    $0x8,%rbp
 29d:	49 39 ec             	cmp    %rbp,%r12
 2a0:	0f 85 4a fe ff ff    	jne    f0 <ScaleRowUp2_16_C+0xf0>
 2a6:	4d 39 fc             	cmp    %r15,%r12
 2a9:	75 08                	jne    2b3 <ScaleRowUp2_16_C+0x2b3>
 2ab:	eb 6e                	jmp    31b <ScaleRowUp2_16_C+0x31b>
 2ad:	49 89 fd             	mov    %rdi,%r13
 2b0:	4d 89 c8             	mov    %r9,%r8
 2b3:	44 8d 79 ff          	lea    -0x1(%rcx),%r15d
 2b7:	45 89 f6             	mov    %r14d,%r14d
 2ba:	31 c0                	xor    %eax,%eax
 2bc:	0f 1f 40 00          	nopl   0x0(%rax)
 2c0:	41 0f b7 5c 05 00    	movzwl 0x0(%r13,%rax,1),%ebx
 2c6:	41 0f b7 54 05 02    	movzwl 0x2(%r13,%rax,1),%edx
 2cc:	45 0f b7 24 03       	movzwl (%r11,%rax,1),%r12d
 2d1:	41 0f b7 6c 03 02    	movzwl 0x2(%r11,%rax,1),%ebp
 2d7:	8d 34 db             	lea    (%rbx,%rbx,8),%esi
 2da:	45 8d 14 14          	lea    (%r12,%rdx,1),%r10d
 2de:	47 8d 14 52          	lea    (%r10,%r10,2),%r10d
 2e2:	01 ee                	add    %ebp,%esi
 2e4:	42 8d 34 16          	lea    (%rsi,%r10,1),%esi
 2e8:	83 c6 08             	add    $0x8,%esi
 2eb:	c1 ee 04             	shr    $0x4,%esi
 2ee:	66 41 89 34 40       	mov    %si,(%r8,%rax,2)
 2f3:	8d 14 d2             	lea    (%rdx,%rdx,8),%edx
 2f6:	01 dd                	add    %ebx,%ebp
 2f8:	8d 74 6d 00          	lea    0x0(%rbp,%rbp,2),%esi
 2fc:	44 01 e2             	add    %r12d,%edx
 2ff:	8d 14 32             	lea    (%rdx,%rsi,1),%edx
 302:	83 c2 08             	add    $0x8,%edx
 305:	c1 ea 04             	shr    $0x4,%edx
 308:	66 41 89 54 40 02    	mov    %dx,0x2(%r8,%rax,2)
 30e:	48 83 c0 02          	add    $0x2,%rax
 312:	41 8d 14 06          	lea    (%r14,%rax,1),%edx
 316:	44 39 fa             	cmp    %r15d,%edx
 319:	7c a5                	jl     2c0 <ScaleRowUp2_16_C+0x2c0>
 31b:	48 8b 44 24 f8       	mov    -0x8(%rsp),%rax
 320:	4c 8d 1c 47          	lea    (%rdi,%rax,2),%r11
 324:	48 8b 44 24 f0       	mov    -0x10(%rsp),%rax
 329:	48 8d 3c 47          	lea    (%rdi,%rax,2),%rdi
 32d:	48 8b 44 24 e8       	mov    -0x18(%rsp),%rax
 332:	4d 8d 0c 41          	lea    (%r9,%rax,2),%r9
 336:	5b                   	pop    %rbx
 337:	41 5c                	pop    %r12
 339:	41 5d                	pop    %r13
 33b:	41 5e                	pop    %r14
 33d:	41 5f                	pop    %r15
 33f:	5d                   	pop    %rbp
 340:	f6 c1 01             	test   $0x1,%cl
 343:	0f 84 cc fc ff ff    	je     15 <ScaleRowUp2_16_C+0x15>
 349:	0f b7 07             	movzwl (%rdi),%eax
 34c:	0f b7 4f 02          	movzwl 0x2(%rdi),%ecx
 350:	41 0f b7 13          	movzwl (%r11),%edx
 354:	01 ca                	add    %ecx,%edx
 356:	41 0f b7 4b 02       	movzwl 0x2(%r11),%ecx
 35b:	8d 04 c0             	lea    (%rax,%rax,8),%eax
 35e:	01 c8                	add    %ecx,%eax
 360:	8d 0c 52             	lea    (%rdx,%rdx,2),%ecx
 363:	8d 04 08             	lea    (%rax,%rcx,1),%eax
 366:	83 c0 08             	add    $0x8,%eax
 369:	c1 e8 04             	shr    $0x4,%eax
 36c:	66 41 89 01          	mov    %ax,(%r9)
 370:	c3                   	retq   
